
ISP_USB_SPI_FLASH:     file format elf32-littlearm

Sections:
Idx Name          Size      VMA       LMA       File off  Algn
  0 .reset        000002f0  00000000  00000000  00008000  2**4
                  CONTENTS, ALLOC, LOAD, READONLY, DATA
  1 .text         0000b070  000002f0  000002f0  000082f0  2**3
                  CONTENTS, ALLOC, LOAD, READONLY, CODE
  2 .ARM.exidx    00000008  0000b360  0000b360  00013360  2**2
                  CONTENTS, ALLOC, LOAD, READONLY, DATA
  3 .data         00000538  20000000  0000b368  00018000  2**2
                  CONTENTS, ALLOC, LOAD, DATA
  4 .bss          00000418  20000538  0000b8a0  00018538  2**2
                  ALLOC
  5 .comment      000001d9  00000000  00000000  00018538  2**0
                  CONTENTS, READONLY
  6 .debug_frame  00000834  00000000  00000000  00018714  2**2
                  CONTENTS, READONLY, DEBUGGING
  7 .ARM.attributes 00000025  00000000  00000000  00018f48  2**0
                  CONTENTS, READONLY

Disassembly of section .text:

000002f0 <__do_global_dtors_aux>:
     2f0:	f240 5338 	movw	r3, #1336	; 0x538
     2f4:	f2c2 0300 	movt	r3, #8192	; 0x2000
     2f8:	781a      	ldrb	r2, [r3, #0]
     2fa:	b90a      	cbnz	r2, 300 <__do_global_dtors_aux+0x10>
     2fc:	2001      	movs	r0, #1
     2fe:	7018      	strb	r0, [r3, #0]
     300:	4770      	bx	lr
     302:	bf00      	nop

00000304 <frame_dummy>:
     304:	f240 0000 	movw	r0, #0
     308:	f2c2 0000 	movt	r0, #8192	; 0x2000
     30c:	b508      	push	{r3, lr}
     30e:	6803      	ldr	r3, [r0, #0]
     310:	b12b      	cbz	r3, 31e <frame_dummy+0x1a>
     312:	f240 0300 	movw	r3, #0
     316:	f2c0 0300 	movt	r3, #0
     31a:	b103      	cbz	r3, 31e <frame_dummy+0x1a>
     31c:	4798      	blx	r3
     31e:	bd08      	pop	{r3, pc}

00000320 <int_to_hex_int>:
     320:	b470      	push	{r4, r5, r6}
     322:	b083      	sub	sp, #12
     324:	2300      	movs	r3, #0
     326:	466d      	mov	r5, sp
     328:	e000      	b.n	32c <int_to_hex_int+0xc>
     32a:	4663      	mov	r3, ip
     32c:	f000 0c0f 	and.w	ip, r0, #15
     330:	f1bc 0f09 	cmp.w	ip, #9
     334:	bfd4      	ite	le
     336:	f10c 0c30 	addle.w	ip, ip, #48	; 0x30
     33a:	f10c 0c37 	addgt.w	ip, ip, #55	; 0x37
     33e:	0900      	lsrs	r0, r0, #4
     340:	f805 c003 	strb.w	ip, [r5, r3]
     344:	bf0c      	ite	eq
     346:	2400      	moveq	r4, #0
     348:	2401      	movne	r4, #1
     34a:	f103 0c01 	add.w	ip, r3, #1
     34e:	f1bc 0f07 	cmp.w	ip, #7
     352:	bfcc      	ite	gt
     354:	2400      	movgt	r4, #0
     356:	f004 0401 	andle.w	r4, r4, #1
     35a:	2c00      	cmp	r4, #0
     35c:	d1e5      	bne.n	32a <int_to_hex_int+0xa>
     35e:	1e10      	subs	r0, r2, #0
     360:	bf18      	it	ne
     362:	2001      	movne	r0, #1
     364:	b190      	cbz	r0, 38c <int_to_hex_int+0x6c>
     366:	4620      	mov	r0, r4
     368:	18ec      	adds	r4, r5, r3
     36a:	4603      	mov	r3, r0
     36c:	3301      	adds	r3, #1
     36e:	f814 6901 	ldrb.w	r6, [r4], #-1
     372:	4563      	cmp	r3, ip
     374:	bfac      	ite	ge
     376:	2500      	movge	r5, #0
     378:	2501      	movlt	r5, #1
     37a:	429a      	cmp	r2, r3
     37c:	bf94      	ite	ls
     37e:	2500      	movls	r5, #0
     380:	f005 0501 	andhi.w	r5, r5, #1
     384:	540e      	strb	r6, [r1, r0]
     386:	4618      	mov	r0, r3
     388:	2d00      	cmp	r5, #0
     38a:	d1ef      	bne.n	36c <int_to_hex_int+0x4c>
     38c:	b003      	add	sp, #12
     38e:	bc70      	pop	{r4, r5, r6}
     390:	4770      	bx	lr
     392:	bf00      	nop

00000394 <delay>:
     394:	4770      	bx	lr
     396:	bf00      	nop

00000398 <display_hex_values>:
     398:	b5f0      	push	{r4, r5, r6, r7, lr}
     39a:	2910      	cmp	r1, #16
     39c:	b0a1      	sub	sp, #132	; 0x84
     39e:	460f      	mov	r7, r1
     3a0:	4606      	mov	r6, r0
     3a2:	d85f      	bhi.n	464 <display_hex_values+0xcc>
     3a4:	2900      	cmp	r1, #0
     3a6:	d050      	beq.n	44a <display_hex_values+0xb2>
     3a8:	2400      	movs	r4, #0
     3aa:	f017 0f01 	tst.w	r7, #1
     3ae:	466d      	mov	r5, sp
     3b0:	d038      	beq.n	424 <display_hex_values+0x8c>
     3b2:	f24a 7258 	movw	r2, #42840	; 0xa758
     3b6:	5d33      	ldrb	r3, [r6, r4]
     3b8:	2180      	movs	r1, #128	; 0x80
     3ba:	f2c0 0200 	movt	r2, #0
     3be:	4668      	mov	r0, sp
     3c0:	f004 ff48 	bl	5254 <snprintf>
     3c4:	f240 70d4 	movw	r0, #2004	; 0x7d4
     3c8:	3401      	adds	r4, #1
     3ca:	f2c2 0000 	movt	r0, #8192	; 0x2000
     3ce:	4669      	mov	r1, sp
     3d0:	f000 ff9c 	bl	130c <MSS_UART_polled_tx_string>
     3d4:	42a7      	cmp	r7, r4
     3d6:	d938      	bls.n	44a <display_hex_values+0xb2>
     3d8:	2c01      	cmp	r4, #1
     3da:	d902      	bls.n	3e2 <display_hex_values+0x4a>
     3dc:	f014 0f0f 	tst.w	r4, #15
     3e0:	d035      	beq.n	44e <display_hex_values+0xb6>
     3e2:	f24a 7258 	movw	r2, #42840	; 0xa758
     3e6:	5d33      	ldrb	r3, [r6, r4]
     3e8:	2180      	movs	r1, #128	; 0x80
     3ea:	f2c0 0200 	movt	r2, #0
     3ee:	4668      	mov	r0, sp
     3f0:	f004 ff30 	bl	5254 <snprintf>
     3f4:	f240 70d4 	movw	r0, #2004	; 0x7d4
     3f8:	f2c2 0000 	movt	r0, #8192	; 0x2000
     3fc:	3401      	adds	r4, #1
     3fe:	4669      	mov	r1, sp
     400:	f000 ff84 	bl	130c <MSS_UART_polled_tx_string>
     404:	2c01      	cmp	r4, #1
     406:	d9d4      	bls.n	3b2 <display_hex_values+0x1a>
     408:	f014 0f0f 	tst.w	r4, #15
     40c:	d1d1      	bne.n	3b2 <display_hex_values+0x1a>
     40e:	f240 70d4 	movw	r0, #2004	; 0x7d4
     412:	f24b 1138 	movw	r1, #45368	; 0xb138
     416:	f2c2 0000 	movt	r0, #8192	; 0x2000
     41a:	f2c0 0100 	movt	r1, #0
     41e:	f000 ff75 	bl	130c <MSS_UART_polled_tx_string>
     422:	e7c6      	b.n	3b2 <display_hex_values+0x1a>
     424:	f24a 7258 	movw	r2, #42840	; 0xa758
     428:	2180      	movs	r1, #128	; 0x80
     42a:	f2c0 0200 	movt	r2, #0
     42e:	7833      	ldrb	r3, [r6, #0]
     430:	4668      	mov	r0, sp
     432:	f004 ff0f 	bl	5254 <snprintf>
     436:	f240 70d4 	movw	r0, #2004	; 0x7d4
     43a:	f2c2 0000 	movt	r0, #8192	; 0x2000
     43e:	4669      	mov	r1, sp
     440:	2401      	movs	r4, #1
     442:	f000 ff63 	bl	130c <MSS_UART_polled_tx_string>
     446:	42a7      	cmp	r7, r4
     448:	d8b3      	bhi.n	3b2 <display_hex_values+0x1a>
     44a:	b021      	add	sp, #132	; 0x84
     44c:	bdf0      	pop	{r4, r5, r6, r7, pc}
     44e:	f240 70d4 	movw	r0, #2004	; 0x7d4
     452:	f24b 1138 	movw	r1, #45368	; 0xb138
     456:	f2c2 0000 	movt	r0, #8192	; 0x2000
     45a:	f2c0 0100 	movt	r1, #0
     45e:	f000 ff55 	bl	130c <MSS_UART_polled_tx_string>
     462:	e7be      	b.n	3e2 <display_hex_values+0x4a>
     464:	f240 70d4 	movw	r0, #2004	; 0x7d4
     468:	f24b 1138 	movw	r1, #45368	; 0xb138
     46c:	f2c2 0000 	movt	r0, #8192	; 0x2000
     470:	f2c0 0100 	movt	r1, #0
     474:	f000 ff4a 	bl	130c <MSS_UART_polled_tx_string>
     478:	e796      	b.n	3a8 <display_hex_values+0x10>
     47a:	bf00      	nop

0000047c <dump_spi_image>:
     47c:	e92d 45f0 	stmdb	sp!, {r4, r5, r6, r7, r8, sl, lr}
     480:	4607      	mov	r7, r0
     482:	b0c1      	sub	sp, #260	; 0x104
     484:	460c      	mov	r4, r1
     486:	2900      	cmp	r1, #0
     488:	d03f      	beq.n	50a <dump_spi_image+0x8e>
     48a:	f100 38ff 	add.w	r8, r0, #4294967295
     48e:	2300      	movs	r3, #0
     490:	f411 7f80 	tst.w	r1, #256	; 0x100
     494:	4646      	mov	r6, r8
     496:	466d      	mov	r5, sp
     498:	d13a      	bne.n	510 <dump_spi_image+0x94>
     49a:	f44f 7280 	mov.w	r2, #256	; 0x100
     49e:	18b7      	adds	r7, r6, r2
     4a0:	4630      	mov	r0, r6
     4a2:	18be      	adds	r6, r7, r2
     4a4:	2cff      	cmp	r4, #255	; 0xff
     4a6:	4669      	mov	r1, sp
     4a8:	eb03 0a02 	add.w	sl, r3, r2
     4ac:	d923      	bls.n	4f6 <dump_spi_image+0x7a>
     4ae:	f004 fa2b 	bl	4908 <FLASH_read>
     4b2:	4668      	mov	r0, sp
     4b4:	f44f 7180 	mov.w	r1, #256	; 0x100
     4b8:	f7ff ff6e 	bl	398 <display_hex_values>
     4bc:	f5b4 7480 	subs.w	r4, r4, #256	; 0x100
     4c0:	4669      	mov	r1, sp
     4c2:	f44f 7280 	mov.w	r2, #256	; 0x100
     4c6:	4638      	mov	r0, r7
     4c8:	d01f      	beq.n	50a <dump_spi_image+0x8e>
     4ca:	f004 fa1d 	bl	4908 <FLASH_read>
     4ce:	4668      	mov	r0, sp
     4d0:	f44f 7180 	mov.w	r1, #256	; 0x100
     4d4:	f7ff ff60 	bl	398 <display_hex_values>
     4d8:	f5b4 7480 	subs.w	r4, r4, #256	; 0x100
     4dc:	d015      	beq.n	50a <dump_spi_image+0x8e>
     4de:	f44f 7280 	mov.w	r2, #256	; 0x100
     4e2:	18b7      	adds	r7, r6, r2
     4e4:	f50a 7380 	add.w	r3, sl, #256	; 0x100
     4e8:	4630      	mov	r0, r6
     4ea:	18be      	adds	r6, r7, r2
     4ec:	2cff      	cmp	r4, #255	; 0xff
     4ee:	4669      	mov	r1, sp
     4f0:	eb03 0a02 	add.w	sl, r3, r2
     4f4:	d8db      	bhi.n	4ae <dump_spi_image+0x32>
     4f6:	eb08 0003 	add.w	r0, r8, r3
     4fa:	4669      	mov	r1, sp
     4fc:	4622      	mov	r2, r4
     4fe:	f004 fa03 	bl	4908 <FLASH_read>
     502:	4668      	mov	r0, sp
     504:	4621      	mov	r1, r4
     506:	f7ff ff47 	bl	398 <display_hex_values>
     50a:	b041      	add	sp, #260	; 0x104
     50c:	e8bd 85f0 	ldmia.w	sp!, {r4, r5, r6, r7, r8, sl, pc}
     510:	4669      	mov	r1, sp
     512:	f44f 7280 	mov.w	r2, #256	; 0x100
     516:	4640      	mov	r0, r8
     518:	f004 f9f6 	bl	4908 <FLASH_read>
     51c:	4668      	mov	r0, sp
     51e:	f44f 7180 	mov.w	r1, #256	; 0x100
     522:	f7ff ff39 	bl	398 <display_hex_values>
     526:	f5b4 7480 	subs.w	r4, r4, #256	; 0x100
     52a:	f107 06ff 	add.w	r6, r7, #255	; 0xff
     52e:	bf18      	it	ne
     530:	f44f 7380 	movne.w	r3, #256	; 0x100
     534:	d1b1      	bne.n	49a <dump_spi_image+0x1e>
     536:	e7e8      	b.n	50a <dump_spi_image+0x8e>

00000538 <copy_spi_image>:
     538:	e92d 4ff0 	stmdb	sp!, {r4, r5, r6, r7, r8, r9, sl, fp, lr}
     53c:	f5ad 6d80 	sub.w	sp, sp, #1024	; 0x400
     540:	b083      	sub	sp, #12
     542:	460f      	mov	r7, r1
     544:	2900      	cmp	r1, #0
     546:	d07a      	beq.n	63e <copy_spi_image+0x106>
     548:	f246 4a4c 	movw	sl, #25676	; 0x644c
     54c:	f100 39ff 	add.w	r9, r0, #4294967295
     550:	f2c0 0a01 	movt	sl, #1
     554:	f04f 0800 	mov.w	r8, #0
     558:	f04f 4520 	mov.w	r5, #2684354560	; 0xa0000000
     55c:	f240 3bff 	movw	fp, #1023	; 0x3ff
     560:	ac02      	add	r4, sp, #8
     562:	455f      	cmp	r7, fp
     564:	bf94      	ite	ls
     566:	463e      	movls	r6, r7
     568:	f44f 6680 	movhi.w	r6, #1024	; 0x400
     56c:	eb08 0009 	add.w	r0, r8, r9
     570:	4621      	mov	r1, r4
     572:	4632      	mov	r2, r6
     574:	f004 f9c8 	bl	4908 <FLASH_read>
     578:	1e71      	subs	r1, r6, #1
     57a:	2201      	movs	r2, #1
     57c:	7820      	ldrb	r0, [r4, #0]
     57e:	462b      	mov	r3, r5
     580:	4011      	ands	r1, r2
     582:	4296      	cmp	r6, r2
     584:	f803 0b01 	strb.w	r0, [r3], #1
     588:	d913      	bls.n	5b2 <copy_spi_image+0x7a>
     58a:	b129      	cbz	r1, 598 <copy_spi_image+0x60>
     58c:	5ca0      	ldrb	r0, [r4, r2]
     58e:	3301      	adds	r3, #1
     590:	54a8      	strb	r0, [r5, r2]
     592:	2202      	movs	r2, #2
     594:	4296      	cmp	r6, r2
     596:	d90c      	bls.n	5b2 <copy_spi_image+0x7a>
     598:	f814 e002 	ldrb.w	lr, [r4, r2]
     59c:	1c51      	adds	r1, r2, #1
     59e:	f805 e002 	strb.w	lr, [r5, r2]
     5a2:	f814 c001 	ldrb.w	ip, [r4, r1]
     5a6:	1c4a      	adds	r2, r1, #1
     5a8:	3302      	adds	r3, #2
     5aa:	4296      	cmp	r6, r2
     5ac:	f805 c001 	strb.w	ip, [r5, r1]
     5b0:	d8f2      	bhi.n	598 <copy_spi_image+0x60>
     5b2:	4557      	cmp	r7, sl
     5b4:	d004      	beq.n	5c0 <copy_spi_image+0x88>
     5b6:	1bbf      	subs	r7, r7, r6
     5b8:	d041      	beq.n	63e <copy_spi_image+0x106>
     5ba:	44b0      	add	r8, r6
     5bc:	461d      	mov	r5, r3
     5be:	e7d0      	b.n	562 <copy_spi_image+0x2a>
     5c0:	f240 70d4 	movw	r0, #2004	; 0x7d4
     5c4:	f24a 7160 	movw	r1, #42848	; 0xa760
     5c8:	f2c0 0100 	movt	r1, #0
     5cc:	f2c2 0000 	movt	r0, #8192	; 0x2000
     5d0:	9301      	str	r3, [sp, #4]
     5d2:	f000 fe9b 	bl	130c <MSS_UART_polled_tx_string>
     5d6:	2180      	movs	r1, #128	; 0x80
     5d8:	4620      	mov	r0, r4
     5da:	f7ff fedd 	bl	398 <display_hex_values>
     5de:	f240 70d4 	movw	r0, #2004	; 0x7d4
     5e2:	f24b 1138 	movw	r1, #45368	; 0xb138
     5e6:	f2c2 0000 	movt	r0, #8192	; 0x2000
     5ea:	f2c0 0100 	movt	r1, #0
     5ee:	f000 fe8d 	bl	130c <MSS_UART_polled_tx_string>
     5f2:	f240 70d4 	movw	r0, #2004	; 0x7d4
     5f6:	f24b 1138 	movw	r1, #45368	; 0xb138
     5fa:	f2c2 0000 	movt	r0, #8192	; 0x2000
     5fe:	f2c0 0100 	movt	r1, #0
     602:	f000 fe83 	bl	130c <MSS_UART_polled_tx_string>
     606:	f240 70d4 	movw	r0, #2004	; 0x7d4
     60a:	f24a 7198 	movw	r1, #42904	; 0xa798
     60e:	f2c2 0000 	movt	r0, #8192	; 0x2000
     612:	f2c0 0100 	movt	r1, #0
     616:	f000 fe79 	bl	130c <MSS_UART_polled_tx_string>
     61a:	9b01      	ldr	r3, [sp, #4]
     61c:	2180      	movs	r1, #128	; 0x80
     61e:	1b98      	subs	r0, r3, r6
     620:	f7ff feba 	bl	398 <display_hex_values>
     624:	f240 70d4 	movw	r0, #2004	; 0x7d4
     628:	f24b 1138 	movw	r1, #45368	; 0xb138
     62c:	f2c2 0000 	movt	r0, #8192	; 0x2000
     630:	f2c0 0100 	movt	r1, #0
     634:	f000 fe6a 	bl	130c <MSS_UART_polled_tx_string>
     638:	1bbf      	subs	r7, r7, r6
     63a:	9b01      	ldr	r3, [sp, #4]
     63c:	d1bd      	bne.n	5ba <copy_spi_image+0x82>
     63e:	f240 70d4 	movw	r0, #2004	; 0x7d4
     642:	f24a 71cc 	movw	r1, #42956	; 0xa7cc
     646:	f2c2 0000 	movt	r0, #8192	; 0x2000
     64a:	f2c0 0100 	movt	r1, #0
     64e:	f000 fe5d 	bl	130c <MSS_UART_polled_tx_string>
     652:	b003      	add	sp, #12
     654:	f50d 6d80 	add.w	sp, sp, #1024	; 0x400
     658:	e8bd 8ff0 	ldmia.w	sp!, {r4, r5, r6, r7, r8, r9, sl, fp, pc}

0000065c <press_any_key>:
     65c:	b510      	push	{r4, lr}
     65e:	f240 70d4 	movw	r0, #2004	; 0x7d4
     662:	b082      	sub	sp, #8
     664:	f24a 71e4 	movw	r1, #42980	; 0xa7e4
     668:	ac02      	add	r4, sp, #8
     66a:	2300      	movs	r3, #0
     66c:	f2c2 0000 	movt	r0, #8192	; 0x2000
     670:	f2c0 0100 	movt	r1, #0
     674:	f804 3d01 	strb.w	r3, [r4, #-1]!
     678:	f000 fe48 	bl	130c <MSS_UART_polled_tx_string>
     67c:	f240 70d4 	movw	r0, #2004	; 0x7d4
     680:	2201      	movs	r2, #1
     682:	f2c2 0000 	movt	r0, #8192	; 0x2000
     686:	4621      	mov	r1, r4
     688:	f000 feee 	bl	1468 <MSS_UART_get_rx>
     68c:	f010 0fff 	tst.w	r0, #255	; 0xff
     690:	d0f4      	beq.n	67c <press_any_key+0x20>
     692:	b002      	add	sp, #8
     694:	bd10      	pop	{r4, pc}
     696:	bf00      	nop

00000698 <action_menu>:
     698:	b510      	push	{r4, lr}
     69a:	f240 70d4 	movw	r0, #2004	; 0x7d4
     69e:	b082      	sub	sp, #8
     6a0:	f64a 0104 	movw	r1, #43012	; 0xa804
     6a4:	2300      	movs	r3, #0
     6a6:	f2c2 0000 	movt	r0, #8192	; 0x2000
     6aa:	f2c0 0100 	movt	r1, #0
     6ae:	ac02      	add	r4, sp, #8
     6b0:	f804 3d01 	strb.w	r3, [r4, #-1]!
     6b4:	f000 fe2a 	bl	130c <MSS_UART_polled_tx_string>
     6b8:	f240 70d4 	movw	r0, #2004	; 0x7d4
     6bc:	f64a 014c 	movw	r1, #43084	; 0xa84c
     6c0:	f2c2 0000 	movt	r0, #8192	; 0x2000
     6c4:	f2c0 0100 	movt	r1, #0
     6c8:	f000 fe20 	bl	130c <MSS_UART_polled_tx_string>
     6cc:	f240 70d4 	movw	r0, #2004	; 0x7d4
     6d0:	f64a 016c 	movw	r1, #43116	; 0xa86c
     6d4:	f2c2 0000 	movt	r0, #8192	; 0x2000
     6d8:	f2c0 0100 	movt	r1, #0
     6dc:	f000 fe16 	bl	130c <MSS_UART_polled_tx_string>
     6e0:	f240 70d4 	movw	r0, #2004	; 0x7d4
     6e4:	f64a 0190 	movw	r1, #43152	; 0xa890
     6e8:	f2c2 0000 	movt	r0, #8192	; 0x2000
     6ec:	f2c0 0100 	movt	r1, #0
     6f0:	f000 fe0c 	bl	130c <MSS_UART_polled_tx_string>
     6f4:	f240 70d4 	movw	r0, #2004	; 0x7d4
     6f8:	f64a 01b4 	movw	r1, #43188	; 0xa8b4
     6fc:	f2c2 0000 	movt	r0, #8192	; 0x2000
     700:	f2c0 0100 	movt	r1, #0
     704:	f000 fe02 	bl	130c <MSS_UART_polled_tx_string>
     708:	f240 70d4 	movw	r0, #2004	; 0x7d4
     70c:	f64a 01d4 	movw	r1, #43220	; 0xa8d4
     710:	f2c2 0000 	movt	r0, #8192	; 0x2000
     714:	f2c0 0100 	movt	r1, #0
     718:	f000 fdf8 	bl	130c <MSS_UART_polled_tx_string>
     71c:	f240 70d4 	movw	r0, #2004	; 0x7d4
     720:	f64a 01f0 	movw	r1, #43248	; 0xa8f0
     724:	f2c2 0000 	movt	r0, #8192	; 0x2000
     728:	f2c0 0100 	movt	r1, #0
     72c:	f000 fdee 	bl	130c <MSS_UART_polled_tx_string>
     730:	f240 70d4 	movw	r0, #2004	; 0x7d4
     734:	f64a 01fc 	movw	r1, #43260	; 0xa8fc
     738:	f2c2 0000 	movt	r0, #8192	; 0x2000
     73c:	f2c0 0100 	movt	r1, #0
     740:	f000 fde4 	bl	130c <MSS_UART_polled_tx_string>
     744:	f240 70d4 	movw	r0, #2004	; 0x7d4
     748:	f64a 1108 	movw	r1, #43272	; 0xa908
     74c:	f2c2 0000 	movt	r0, #8192	; 0x2000
     750:	f2c0 0100 	movt	r1, #0
     754:	f000 fdda 	bl	130c <MSS_UART_polled_tx_string>
     758:	f240 70d4 	movw	r0, #2004	; 0x7d4
     75c:	f64a 1128 	movw	r1, #43304	; 0xa928
     760:	f2c2 0000 	movt	r0, #8192	; 0x2000
     764:	f2c0 0100 	movt	r1, #0
     768:	f000 fdd0 	bl	130c <MSS_UART_polled_tx_string>
     76c:	f240 70d4 	movw	r0, #2004	; 0x7d4
     770:	2201      	movs	r2, #1
     772:	f2c2 0000 	movt	r0, #8192	; 0x2000
     776:	4621      	mov	r1, r4
     778:	f000 fe76 	bl	1468 <MSS_UART_get_rx>
     77c:	f010 0fff 	tst.w	r0, #255	; 0xff
     780:	d0f4      	beq.n	76c <action_menu+0xd4>
     782:	f89d 0007 	ldrb.w	r0, [sp, #7]
     786:	f1a0 0131 	sub.w	r1, r0, #49	; 0x31
     78a:	b2ca      	uxtb	r2, r1
     78c:	2a06      	cmp	r2, #6
     78e:	bf9e      	ittt	ls
     790:	f240 0204 	movwls	r2, #4
     794:	f2c2 0200 	movtls	r2, #8192	; 0x2000
     798:	7010      	strbls	r0, [r2, #0]
     79a:	d801      	bhi.n	7a0 <action_menu+0x108>
     79c:	b002      	add	sp, #8
     79e:	bd10      	pop	{r4, pc}
     7a0:	f240 70d4 	movw	r0, #2004	; 0x7d4
     7a4:	f64a 1140 	movw	r1, #43328	; 0xa940
     7a8:	f2c2 0000 	movt	r0, #8192	; 0x2000
     7ac:	f2c0 0100 	movt	r1, #0
     7b0:	f000 fdac 	bl	130c <MSS_UART_polled_tx_string>
     7b4:	e7f2      	b.n	79c <action_menu+0x104>
     7b6:	bf00      	nop

000007b8 <spi_flash_bootloader>:
     7b8:	b508      	push	{r3, lr}
     7ba:	f004 fb9d 	bl	4ef8 <SystemInit>
     7be:	f240 70d4 	movw	r0, #2004	; 0x7d4
     7c2:	f64a 1168 	movw	r1, #43368	; 0xa968
     7c6:	f2c2 0000 	movt	r0, #8192	; 0x2000
     7ca:	f2c0 0100 	movt	r1, #0
     7ce:	f000 fd9d 	bl	130c <MSS_UART_polled_tx_string>
     7d2:	f246 414c 	movw	r1, #25676	; 0x644c
     7d6:	f2c0 0101 	movt	r1, #1
     7da:	f44f 1080 	mov.w	r0, #1048576	; 0x100000
     7de:	f7ff feab 	bl	538 <copy_spi_image>
     7e2:	f240 70d4 	movw	r0, #2004	; 0x7d4
     7e6:	f64a 1180 	movw	r1, #43392	; 0xa980
     7ea:	f2c2 0000 	movt	r0, #8192	; 0x2000
     7ee:	f2c0 0100 	movt	r1, #0
     7f2:	f000 fd8b 	bl	130c <MSS_UART_polled_tx_string>
     7f6:	f240 70d4 	movw	r0, #2004	; 0x7d4
     7fa:	f64a 11a4 	movw	r1, #43428	; 0xa9a4
     7fe:	f2c2 0000 	movt	r0, #8192	; 0x2000
     802:	f2c0 0100 	movt	r1, #0
     806:	f000 fd81 	bl	130c <MSS_UART_polled_tx_string>
     80a:	f240 70d4 	movw	r0, #2004	; 0x7d4
     80e:	f2c2 0000 	movt	r0, #8192	; 0x2000
     812:	2101      	movs	r1, #1
     814:	f000 fe98 	bl	1548 <MSS_UART_disable_irq>
     818:	f04f 4020 	mov.w	r0, #2684354560	; 0xa0000000
     81c:	6803      	ldr	r3, [r0, #0]
     81e:	f383 8808 	msr	MSP, r3
     822:	f248 0108 	movw	r1, #32776	; 0x8008
     826:	f2c4 0103 	movt	r1, #16387	; 0x4003
     82a:	2201      	movs	r2, #1
     82c:	2004      	movs	r0, #4
     82e:	600a      	str	r2, [r1, #0]
     830:	6803      	ldr	r3, [r0, #0]
     832:	4798      	blx	r3
     834:	e7fe      	b.n	834 <spi_flash_bootloader+0x7c>
     836:	bf00      	nop

00000838 <isp_completion_handler>:
     838:	b570      	push	{r4, r5, r6, lr}
     83a:	f240 74d4 	movw	r4, #2004	; 0x7d4
     83e:	b08e      	sub	sp, #56	; 0x38
     840:	f2c2 0400 	movt	r4, #8192	; 0x2000
     844:	f64a 11ec 	movw	r1, #43500	; 0xa9ec
     848:	4605      	mov	r5, r0
     84a:	f2c0 0100 	movt	r1, #0
     84e:	4620      	mov	r0, r4
     850:	ae01      	add	r6, sp, #4
     852:	f000 fd5b 	bl	130c <MSS_UART_polled_tx_string>
     856:	4631      	mov	r1, r6
     858:	2208      	movs	r2, #8
     85a:	4628      	mov	r0, r5
     85c:	f7ff fd60 	bl	320 <int_to_hex_int>
     860:	4631      	mov	r1, r6
     862:	4602      	mov	r2, r0
     864:	4620      	mov	r0, r4
     866:	f000 fcfb 	bl	1260 <MSS_UART_polled_tx>
     86a:	f240 0304 	movw	r3, #4
     86e:	f2c2 0300 	movt	r3, #8192	; 0x2000
     872:	2200      	movs	r2, #0
     874:	721a      	strb	r2, [r3, #8]
     876:	605d      	str	r5, [r3, #4]
     878:	b00e      	add	sp, #56	; 0x38
     87a:	bd70      	pop	{r4, r5, r6, pc}

0000087c <sys_services_event_handler>:
     87c:	b500      	push	{lr}
     87e:	2300      	movs	r3, #0
     880:	b083      	sub	sp, #12
     882:	28e0      	cmp	r0, #224	; 0xe0
     884:	f88d 3006 	strb.w	r3, [sp, #6]
     888:	f88d 3007 	strb.w	r3, [sp, #7]
     88c:	d034      	beq.n	8f8 <sys_services_event_handler+0x7c>
     88e:	28e1      	cmp	r0, #225	; 0xe1
     890:	d001      	beq.n	896 <sys_services_event_handler+0x1a>
     892:	b003      	add	sp, #12
     894:	bd00      	pop	{pc}
     896:	f240 70d4 	movw	r0, #2004	; 0x7d4
     89a:	f2c2 0000 	movt	r0, #8192	; 0x2000
     89e:	2203      	movs	r2, #3
     8a0:	f44f 31e1 	mov.w	r1, #115200	; 0x1c200
     8a4:	f001 fefa 	bl	269c <MSS_UART_init>
     8a8:	f240 70d4 	movw	r0, #2004	; 0x7d4
     8ac:	f64a 218c 	movw	r1, #43660	; 0xaa8c
     8b0:	f2c2 0000 	movt	r0, #8192	; 0x2000
     8b4:	f2c0 0100 	movt	r1, #0
     8b8:	f000 fd28 	bl	130c <MSS_UART_polled_tx_string>
     8bc:	2004      	movs	r0, #4
     8be:	f004 f975 	bl	4bac <FLASH_init>
     8c2:	f003 fff3 	bl	48ac <FLASH_global_unprotect>
     8c6:	f10d 0007 	add.w	r0, sp, #7
     8ca:	f10d 0106 	add.w	r1, sp, #6
     8ce:	f004 f84d 	bl	496c <FLASH_read_device_id>
     8d2:	f89d 0007 	ldrb.w	r0, [sp, #7]
     8d6:	28ef      	cmp	r0, #239	; 0xef
     8d8:	d103      	bne.n	8e2 <sys_services_event_handler+0x66>
     8da:	f89d 1006 	ldrb.w	r1, [sp, #6]
     8de:	2940      	cmp	r1, #64	; 0x40
     8e0:	d01f      	beq.n	922 <sys_services_event_handler+0xa6>
     8e2:	f240 70d4 	movw	r0, #2004	; 0x7d4
     8e6:	f64a 2148 	movw	r1, #43592	; 0xaa48
     8ea:	f2c2 0000 	movt	r0, #8192	; 0x2000
     8ee:	f2c0 0100 	movt	r1, #0
     8f2:	f000 fd0b 	bl	130c <MSS_UART_polled_tx_string>
     8f6:	e7cc      	b.n	892 <sys_services_event_handler+0x16>
     8f8:	f240 70d4 	movw	r0, #2004	; 0x7d4
     8fc:	f2c2 0000 	movt	r0, #8192	; 0x2000
     900:	2203      	movs	r2, #3
     902:	f44f 31e1 	mov.w	r1, #115200	; 0x1c200
     906:	f001 fec9 	bl	269c <MSS_UART_init>
     90a:	f240 70d4 	movw	r0, #2004	; 0x7d4
     90e:	f64a 2100 	movw	r1, #43520	; 0xaa00
     912:	f2c2 0000 	movt	r0, #8192	; 0x2000
     916:	f2c0 0100 	movt	r1, #0
     91a:	f000 fcf7 	bl	130c <MSS_UART_polled_tx_string>
     91e:	2005      	movs	r0, #5
     920:	e7cd      	b.n	8be <sys_services_event_handler+0x42>
     922:	f240 70d4 	movw	r0, #2004	; 0x7d4
     926:	f64a 2168 	movw	r1, #43624	; 0xaa68
     92a:	f2c2 0000 	movt	r0, #8192	; 0x2000
     92e:	f2c0 0100 	movt	r1, #0
     932:	f000 fceb 	bl	130c <MSS_UART_polled_tx_string>
     936:	e7ac      	b.n	892 <sys_services_event_handler+0x16>

00000938 <main>:
     938:	e92d 4ff0 	stmdb	sp!, {r4, r5, r6, r7, r8, r9, sl, fp, lr}
     93c:	f240 553c 	movw	r5, #1340	; 0x53c
     940:	f2c2 0500 	movt	r5, #8192	; 0x2000
     944:	2400      	movs	r4, #0
     946:	462e      	mov	r6, r5
     948:	b095      	sub	sp, #84	; 0x54
     94a:	f806 4b04 	strb.w	r4, [r6], #4
     94e:	9410      	str	r4, [sp, #64]	; 0x40
     950:	f88d 404f 	strb.w	r4, [sp, #79]	; 0x4f
     954:	f88d 404e 	strb.w	r4, [sp, #78]	; 0x4e
     958:	f004 face 	bl	4ef8 <SystemInit>
     95c:	f248 0300 	movw	r3, #32768	; 0x8000
     960:	f2c4 0303 	movt	r3, #16387	; 0x4003
     964:	f240 70d4 	movw	r0, #2004	; 0x7d4
     968:	2203      	movs	r2, #3
     96a:	66dc      	str	r4, [r3, #108]	; 0x6c
     96c:	f2c2 0000 	movt	r0, #8192	; 0x2000
     970:	f44f 31e1 	mov.w	r1, #115200	; 0x1c200
     974:	f001 fe92 	bl	269c <MSS_UART_init>
     978:	f240 70d4 	movw	r0, #2004	; 0x7d4
     97c:	f24a 51a0 	movw	r1, #42400	; 0xa5a0
     980:	f2c0 0100 	movt	r1, #0
     984:	f2c2 0000 	movt	r0, #8192	; 0x2000
     988:	f000 fcc0 	bl	130c <MSS_UART_polled_tx_string>
     98c:	f505 7282 	add.w	r2, r5, #260	; 0x104
     990:	4621      	mov	r1, r4
     992:	1c63      	adds	r3, r4, #1
     994:	5534      	strb	r4, [r6, r4]
     996:	5511      	strb	r1, [r2, r4]
     998:	1c5c      	adds	r4, r3, #1
     99a:	2700      	movs	r7, #0
     99c:	f5b4 7f80 	cmp.w	r4, #256	; 0x100
     9a0:	54f3      	strb	r3, [r6, r3]
     9a2:	54d7      	strb	r7, [r2, r3]
     9a4:	d1f5      	bne.n	992 <main+0x5a>
     9a6:	f248 0100 	movw	r1, #32768	; 0x8000
     9aa:	f2c4 0103 	movt	r1, #16387	; 0x4003
     9ae:	f8d1 2098 	ldr.w	r2, [r1, #152]	; 0x98
     9b2:	f240 70d4 	movw	r0, #2004	; 0x7d4
     9b6:	f64a 21c8 	movw	r1, #43720	; 0xaac8
     9ba:	f2c2 0000 	movt	r0, #8192	; 0x2000
     9be:	f2c0 0100 	movt	r1, #0
     9c2:	f10d 0838 	add.w	r8, sp, #56	; 0x38
     9c6:	920e      	str	r2, [sp, #56]	; 0x38
     9c8:	970f      	str	r7, [sp, #60]	; 0x3c
     9ca:	f000 fc9f 	bl	130c <MSS_UART_polled_tx_string>
     9ce:	4640      	mov	r0, r8
     9d0:	2108      	movs	r1, #8
     9d2:	f7ff fce1 	bl	398 <display_hex_values>
     9d6:	f240 70d4 	movw	r0, #2004	; 0x7d4
     9da:	f24b 1138 	movw	r1, #45368	; 0xb138
     9de:	f2c2 0000 	movt	r0, #8192	; 0x2000
     9e2:	f2c0 0100 	movt	r1, #0
     9e6:	f000 fc91 	bl	130c <MSS_UART_polled_tx_string>
     9ea:	f240 70d4 	movw	r0, #2004	; 0x7d4
     9ee:	f64a 21f8 	movw	r1, #43768	; 0xaaf8
     9f2:	f2c2 0000 	movt	r0, #8192	; 0x2000
     9f6:	f2c0 0100 	movt	r1, #0
     9fa:	f000 fc87 	bl	130c <MSS_UART_polled_tx_string>
     9fe:	f240 70d4 	movw	r0, #2004	; 0x7d4
     a02:	f64a 3130 	movw	r1, #43824	; 0xab30
     a06:	f2c2 0000 	movt	r0, #8192	; 0x2000
     a0a:	f2c0 0100 	movt	r1, #0
     a0e:	f000 fc7d 	bl	130c <MSS_UART_polled_tx_string>
     a12:	f240 76d4 	movw	r6, #2004	; 0x7d4
     a16:	463c      	mov	r4, r7
     a18:	f2c2 0600 	movt	r6, #8192	; 0x2000
     a1c:	f240 70d4 	movw	r0, #2004	; 0x7d4
     a20:	f64a 3164 	movw	r1, #43876	; 0xab64
     a24:	f2c2 0000 	movt	r0, #8192	; 0x2000
     a28:	f2c0 0100 	movt	r1, #0
     a2c:	f000 fc6e 	bl	130c <MSS_UART_polled_tx_string>
     a30:	b9af      	cbnz	r7, a5e <main+0x126>
     a32:	6831      	ldr	r1, [r6, #0]
     a34:	7d0b      	ldrb	r3, [r1, #20]
     a36:	f013 0f01 	tst.w	r3, #1
     a3a:	bf04      	itt	eq
     a3c:	f644 3340 	movweq	r3, #19264	; 0x4b40
     a40:	f2c0 034c 	movteq	r3, #76	; 0x4c
     a44:	d005      	beq.n	a52 <main+0x11a>
     a46:	e0d3      	b.n	bf0 <main+0x2b8>
     a48:	7d0f      	ldrb	r7, [r1, #20]
     a4a:	f017 0f01 	tst.w	r7, #1
     a4e:	f040 80cf 	bne.w	bf0 <main+0x2b8>
     a52:	3b01      	subs	r3, #1
     a54:	bf0c      	ite	eq
     a56:	2700      	moveq	r7, #0
     a58:	2701      	movne	r7, #1
     a5a:	2f00      	cmp	r7, #0
     a5c:	d1f4      	bne.n	a48 <main+0x110>
     a5e:	3401      	adds	r4, #1
     a60:	2c0a      	cmp	r4, #10
     a62:	d1db      	bne.n	a1c <main+0xe4>
     a64:	2f00      	cmp	r7, #0
     a66:	f000 8325 	beq.w	10b4 <PROCESS_STACK_SIZE+0xb4>
     a6a:	f240 70d4 	movw	r0, #2004	; 0x7d4
     a6e:	f64a 3188 	movw	r1, #43912	; 0xab88
     a72:	f2c2 0000 	movt	r0, #8192	; 0x2000
     a76:	f2c0 0100 	movt	r1, #0
     a7a:	f000 fc47 	bl	130c <MSS_UART_polled_tx_string>
     a7e:	2701      	movs	r7, #1
     a80:	2004      	movs	r0, #4
     a82:	f004 f893 	bl	4bac <FLASH_init>
     a86:	f003 ff11 	bl	48ac <FLASH_global_unprotect>
     a8a:	f44f 00e0 	mov.w	r0, #7340032	; 0x700000
     a8e:	f003 fea9 	bl	47e4 <FLASH_erase_4k_block>
     a92:	f10d 004f 	add.w	r0, sp, #79	; 0x4f
     a96:	f10d 014e 	add.w	r1, sp, #78	; 0x4e
     a9a:	f003 ff67 	bl	496c <FLASH_read_device_id>
     a9e:	f89d 404f 	ldrb.w	r4, [sp, #79]	; 0x4f
     aa2:	2cef      	cmp	r4, #239	; 0xef
     aa4:	d104      	bne.n	ab0 <main+0x178>
     aa6:	f89d 604e 	ldrb.w	r6, [sp, #78]	; 0x4e
     aaa:	2e40      	cmp	r6, #64	; 0x40
     aac:	f000 8319 	beq.w	10e2 <PROCESS_STACK_SIZE+0xe2>
     ab0:	9a10      	ldr	r2, [sp, #64]	; 0x40
     ab2:	f240 70d4 	movw	r0, #2004	; 0x7d4
     ab6:	f64a 2148 	movw	r1, #43592	; 0xaa48
     aba:	1c53      	adds	r3, r2, #1
     abc:	f2c2 0000 	movt	r0, #8192	; 0x2000
     ac0:	f2c0 0100 	movt	r1, #0
     ac4:	9310      	str	r3, [sp, #64]	; 0x40
     ac6:	f000 fc21 	bl	130c <MSS_UART_polled_tx_string>
     aca:	f640 007d 	movw	r0, #2173	; 0x87d
     ace:	f2c0 0000 	movt	r0, #0
     ad2:	ae13      	add	r6, sp, #76	; 0x4c
     ad4:	f003 fada 	bl	408c <MSS_SYS_init>
     ad8:	4630      	mov	r0, r6
     ada:	f003 f983 	bl	3de4 <MSS_SYS_get_design_version>
     ade:	4604      	mov	r4, r0
     ae0:	2800      	cmp	r0, #0
     ae2:	f040 81ac 	bne.w	e3e <main+0x506>
     ae6:	f240 70d4 	movw	r0, #2004	; 0x7d4
     aea:	f64a 31a8 	movw	r1, #43944	; 0xaba8
     aee:	f2c0 0100 	movt	r1, #0
     af2:	f2c2 0000 	movt	r0, #8192	; 0x2000
     af6:	f000 fc09 	bl	130c <MSS_UART_polled_tx_string>
     afa:	4630      	mov	r0, r6
     afc:	2102      	movs	r1, #2
     afe:	f7ff fc4b 	bl	398 <display_hex_values>
     b02:	f240 70d4 	movw	r0, #2004	; 0x7d4
     b06:	f24b 1138 	movw	r1, #45368	; 0xb138
     b0a:	f2c2 0000 	movt	r0, #8192	; 0x2000
     b0e:	f2c0 0100 	movt	r1, #0
     b12:	f000 fbfb 	bl	130c <MSS_UART_polled_tx_string>
     b16:	f10d 0b44 	add.w	fp, sp, #68	; 0x44
     b1a:	f240 107c 	movw	r0, #380	; 0x17c
     b1e:	2202      	movs	r2, #2
     b20:	f2c0 0020 	movt	r0, #32
     b24:	4659      	mov	r1, fp
     b26:	f003 feef 	bl	4908 <FLASH_read>
     b2a:	f240 70d4 	movw	r0, #2004	; 0x7d4
     b2e:	f64a 4120 	movw	r1, #44064	; 0xac20
     b32:	f2c0 0100 	movt	r1, #0
     b36:	f2c2 0000 	movt	r0, #8192	; 0x2000
     b3a:	f000 fbe7 	bl	130c <MSS_UART_polled_tx_string>
     b3e:	2102      	movs	r1, #2
     b40:	4658      	mov	r0, fp
     b42:	f7ff fc29 	bl	398 <display_hex_values>
     b46:	f240 70d4 	movw	r0, #2004	; 0x7d4
     b4a:	f24b 1138 	movw	r1, #45368	; 0xb138
     b4e:	f2c2 0000 	movt	r0, #8192	; 0x2000
     b52:	f2c0 0100 	movt	r1, #0
     b56:	f000 fbd9 	bl	130c <MSS_UART_polled_tx_string>
     b5a:	f240 0006 	movw	r0, #6
     b5e:	2202      	movs	r2, #2
     b60:	f2c0 0070 	movt	r0, #112	; 0x70
     b64:	4631      	mov	r1, r6
     b66:	f003 ff83 	bl	4a70 <FLASH_program>
     b6a:	f240 0004 	movw	r0, #4
     b6e:	2202      	movs	r2, #2
     b70:	f2c0 0070 	movt	r0, #112	; 0x70
     b74:	4659      	mov	r1, fp
     b76:	f003 ff7b 	bl	4a70 <FLASH_program>
     b7a:	f89d 904c 	ldrb.w	r9, [sp, #76]	; 0x4c
     b7e:	f89d a044 	ldrb.w	sl, [sp, #68]	; 0x44
     b82:	45d1      	cmp	r9, sl
     b84:	f000 82a1 	beq.w	10ca <PROCESS_STACK_SIZE+0xca>
     b88:	2601      	movs	r6, #1
     b8a:	2f00      	cmp	r7, #0
     b8c:	f000 816f 	beq.w	e6e <main+0x536>
     b90:	f240 0404 	movw	r4, #4
     b94:	f248 0600 	movw	r6, #32768	; 0x8000
     b98:	f64e 5a0c 	movw	sl, #60684	; 0xed0c
     b9c:	f240 0904 	movw	r9, #4
     ba0:	f2c2 0400 	movt	r4, #8192	; 0x2000
     ba4:	f2c4 0603 	movt	r6, #16387	; 0x4003
     ba8:	f2ce 0a00 	movt	sl, #57344	; 0xe000
     bac:	f2c0 59fa 	movt	r9, #1530	; 0x5fa
     bb0:	af12      	add	r7, sp, #72	; 0x48
     bb2:	f7ff fd71 	bl	698 <action_menu>
     bb6:	f640 007d 	movw	r0, #2173	; 0x87d
     bba:	f2c0 0000 	movt	r0, #0
     bbe:	f003 fa65 	bl	408c <MSS_SYS_init>
     bc2:	7823      	ldrb	r3, [r4, #0]
     bc4:	3b31      	subs	r3, #49	; 0x31
     bc6:	2b06      	cmp	r3, #6
     bc8:	f200 8110 	bhi.w	dec <main+0x4b4>
     bcc:	a201      	add	r2, pc, #4	; (adr r2, bd4 <main+0x29c>)
     bce:	f852 f023 	ldr.w	pc, [r2, r3, lsl #2]
     bd2:	bf00      	nop
     bd4:	00000dcf 	.word	0x00000dcf
     bd8:	00000db7 	.word	0x00000db7
     bdc:	00000d75 	.word	0x00000d75
     be0:	00000d33 	.word	0x00000d33
     be4:	00000bf5 	.word	0x00000bf5
     be8:	00000e07 	.word	0x00000e07
     bec:	00000bb3 	.word	0x00000bb3
     bf0:	2701      	movs	r7, #1
     bf2:	e734      	b.n	a5e <main+0x126>
     bf4:	f240 70d4 	movw	r0, #2004	; 0x7d4
     bf8:	f64a 61b4 	movw	r1, #44724	; 0xaeb4
     bfc:	f2c2 0000 	movt	r0, #8192	; 0x2000
     c00:	f2c0 0100 	movt	r1, #0
     c04:	f000 fb82 	bl	130c <MSS_UART_polled_tx_string>
     c08:	2301      	movs	r3, #1
     c0a:	f241 11bd 	movw	r1, #4541	; 0x11bd
     c0e:	f640 0239 	movw	r2, #2105	; 0x839
     c12:	7223      	strb	r3, [r4, #8]
     c14:	f44f 1300 	mov.w	r3, #2097152	; 0x200000
     c18:	f2c0 0100 	movt	r1, #0
     c1c:	f2c0 0200 	movt	r2, #0
     c20:	2002      	movs	r0, #2
     c22:	f8c5 3204 	str.w	r3, [r5, #516]	; 0x204
     c26:	f003 f8fb 	bl	3e20 <MSS_SYS_start_isp>
     c2a:	7a21      	ldrb	r1, [r4, #8]
     c2c:	2900      	cmp	r1, #0
     c2e:	d1fc      	bne.n	c2a <main+0x2f2>
     c30:	f640 007d 	movw	r0, #2173	; 0x87d
     c34:	f2c0 0000 	movt	r0, #0
     c38:	f003 fa28 	bl	408c <MSS_SYS_init>
     c3c:	4638      	mov	r0, r7
     c3e:	f003 f8d1 	bl	3de4 <MSS_SYS_get_design_version>
     c42:	4683      	mov	fp, r0
     c44:	2800      	cmp	r0, #0
     c46:	f040 80e1 	bne.w	e0c <main+0x4d4>
     c4a:	f240 70d4 	movw	r0, #2004	; 0x7d4
     c4e:	f64a 5144 	movw	r1, #44356	; 0xad44
     c52:	f2c0 0100 	movt	r1, #0
     c56:	f2c2 0000 	movt	r0, #8192	; 0x2000
     c5a:	f000 fb57 	bl	130c <MSS_UART_polled_tx_string>
     c5e:	4638      	mov	r0, r7
     c60:	2102      	movs	r1, #2
     c62:	f7ff fb99 	bl	398 <display_hex_values>
     c66:	f240 70d4 	movw	r0, #2004	; 0x7d4
     c6a:	f24b 1138 	movw	r1, #45368	; 0xb138
     c6e:	f2c2 0000 	movt	r0, #8192	; 0x2000
     c72:	f2c0 0100 	movt	r1, #0
     c76:	f000 fb49 	bl	130c <MSS_UART_polled_tx_string>
     c7a:	f240 0002 	movw	r0, #2
     c7e:	2202      	movs	r2, #2
     c80:	4639      	mov	r1, r7
     c82:	f2c0 0070 	movt	r0, #112	; 0x70
     c86:	f003 fef3 	bl	4a70 <FLASH_program>
     c8a:	f8d6 3098 	ldr.w	r3, [r6, #152]	; 0x98
     c8e:	f240 70d4 	movw	r0, #2004	; 0x7d4
     c92:	f64a 21c8 	movw	r1, #43720	; 0xaac8
     c96:	f2c0 0100 	movt	r1, #0
     c9a:	f2c2 0000 	movt	r0, #8192	; 0x2000
     c9e:	930f      	str	r3, [sp, #60]	; 0x3c
     ca0:	f000 fb34 	bl	130c <MSS_UART_polled_tx_string>
     ca4:	4640      	mov	r0, r8
     ca6:	2108      	movs	r1, #8
     ca8:	f7ff fb76 	bl	398 <display_hex_values>
     cac:	f240 70d4 	movw	r0, #2004	; 0x7d4
     cb0:	f24b 1138 	movw	r1, #45368	; 0xb138
     cb4:	f2c2 0000 	movt	r0, #8192	; 0x2000
     cb8:	f2c0 0100 	movt	r1, #0
     cbc:	f000 fb26 	bl	130c <MSS_UART_polled_tx_string>
     cc0:	f240 70d4 	movw	r0, #2004	; 0x7d4
     cc4:	f64a 5174 	movw	r1, #44404	; 0xad74
     cc8:	f2c2 0000 	movt	r0, #8192	; 0x2000
     ccc:	f2c0 0100 	movt	r1, #0
     cd0:	f000 fb1c 	bl	130c <MSS_UART_polled_tx_string>
     cd4:	9a0e      	ldr	r2, [sp, #56]	; 0x38
     cd6:	f240 70d4 	movw	r0, #2004	; 0x7d4
     cda:	f8c6 2098 	str.w	r2, [r6, #152]	; 0x98
     cde:	f8d6 3098 	ldr.w	r3, [r6, #152]	; 0x98
     ce2:	2203      	movs	r2, #3
     ce4:	f2c2 0000 	movt	r0, #8192	; 0x2000
     ce8:	f44f 31e1 	mov.w	r1, #115200	; 0x1c200
     cec:	930f      	str	r3, [sp, #60]	; 0x3c
     cee:	f001 fcd5 	bl	269c <MSS_UART_init>
     cf2:	f240 70d4 	movw	r0, #2004	; 0x7d4
     cf6:	f64a 61e4 	movw	r1, #44772	; 0xaee4
     cfa:	f2c0 0100 	movt	r1, #0
     cfe:	f2c2 0000 	movt	r0, #8192	; 0x2000
     d02:	f000 fb03 	bl	130c <MSS_UART_polled_tx_string>
     d06:	4640      	mov	r0, r8
     d08:	2108      	movs	r1, #8
     d0a:	f7ff fb45 	bl	398 <display_hex_values>
     d0e:	f240 70d4 	movw	r0, #2004	; 0x7d4
     d12:	f24b 1138 	movw	r1, #45368	; 0xb138
     d16:	f2c0 0100 	movt	r1, #0
     d1a:	f2c2 0000 	movt	r0, #8192	; 0x2000
     d1e:	f000 faf5 	bl	130c <MSS_UART_polled_tx_string>
     d22:	2004      	movs	r0, #4
     d24:	f003 ff42 	bl	4bac <FLASH_init>
     d28:	f003 fdc0 	bl	48ac <FLASH_global_unprotect>
     d2c:	f7ff fc96 	bl	65c <press_any_key>
     d30:	e73f      	b.n	bb2 <main+0x27a>
     d32:	f240 70d4 	movw	r0, #2004	; 0x7d4
     d36:	f64a 6188 	movw	r1, #44680	; 0xae88
     d3a:	f2c2 0000 	movt	r0, #8192	; 0x2000
     d3e:	f2c0 0100 	movt	r1, #0
     d42:	f000 fae3 	bl	130c <MSS_UART_polled_tx_string>
     d46:	2301      	movs	r3, #1
     d48:	f241 11bd 	movw	r1, #4541	; 0x11bd
     d4c:	f640 0239 	movw	r2, #2105	; 0x839
     d50:	f44f 1c00 	mov.w	ip, #2097152	; 0x200000
     d54:	4618      	mov	r0, r3
     d56:	f2c0 0100 	movt	r1, #0
     d5a:	f2c0 0200 	movt	r2, #0
     d5e:	f8c5 c204 	str.w	ip, [r5, #516]	; 0x204
     d62:	7223      	strb	r3, [r4, #8]
     d64:	f003 f85c 	bl	3e20 <MSS_SYS_start_isp>
     d68:	7a20      	ldrb	r0, [r4, #8]
     d6a:	2800      	cmp	r0, #0
     d6c:	d1fc      	bne.n	d68 <main+0x430>
     d6e:	f7ff fc75 	bl	65c <press_any_key>
     d72:	e71e      	b.n	bb2 <main+0x27a>
     d74:	f240 70d4 	movw	r0, #2004	; 0x7d4
     d78:	f64a 6158 	movw	r1, #44632	; 0xae58
     d7c:	f2c2 0000 	movt	r0, #8192	; 0x2000
     d80:	f2c0 0100 	movt	r1, #0
     d84:	f000 fac2 	bl	130c <MSS_UART_polled_tx_string>
     d88:	2301      	movs	r3, #1
     d8a:	f241 11bd 	movw	r1, #4541	; 0x11bd
     d8e:	f640 0239 	movw	r2, #2105	; 0x839
     d92:	7223      	strb	r3, [r4, #8]
     d94:	f44f 1300 	mov.w	r3, #2097152	; 0x200000
     d98:	f2c0 0100 	movt	r1, #0
     d9c:	f2c0 0200 	movt	r2, #0
     da0:	2000      	movs	r0, #0
     da2:	f8c5 3204 	str.w	r3, [r5, #516]	; 0x204
     da6:	f003 f83b 	bl	3e20 <MSS_SYS_start_isp>
     daa:	7a22      	ldrb	r2, [r4, #8]
     dac:	2a00      	cmp	r2, #0
     dae:	d1fc      	bne.n	daa <main+0x472>
     db0:	f7ff fc54 	bl	65c <press_any_key>
     db4:	e6fd      	b.n	bb2 <main+0x27a>
     db6:	f240 70d4 	movw	r0, #2004	; 0x7d4
     dba:	f2c2 0000 	movt	r0, #8192	; 0x2000
     dbe:	2101      	movs	r1, #1
     dc0:	f000 fbc2 	bl	1548 <MSS_UART_disable_irq>
     dc4:	f7ff fcf8 	bl	7b8 <spi_flash_bootloader>
     dc8:	f7ff fc48 	bl	65c <press_any_key>
     dcc:	e6f1      	b.n	bb2 <main+0x27a>
     dce:	f240 70d4 	movw	r0, #2004	; 0x7d4
     dd2:	2101      	movs	r1, #1
     dd4:	f2c2 0000 	movt	r0, #8192	; 0x2000
     dd8:	f000 fbb6 	bl	1548 <MSS_UART_disable_irq>
     ddc:	f44f 1000 	mov.w	r0, #2097152	; 0x200000
     de0:	2164      	movs	r1, #100	; 0x64
     de2:	f7ff fb4b 	bl	47c <dump_spi_image>
     de6:	f7ff fc39 	bl	65c <press_any_key>
     dea:	e6e2      	b.n	bb2 <main+0x27a>
     dec:	f240 70d4 	movw	r0, #2004	; 0x7d4
     df0:	f64a 7118 	movw	r1, #44824	; 0xaf18
     df4:	f2c2 0000 	movt	r0, #8192	; 0x2000
     df8:	f2c0 0100 	movt	r1, #0
     dfc:	f000 fa86 	bl	130c <MSS_UART_polled_tx_string>
     e00:	f7ff fc2c 	bl	65c <press_any_key>
     e04:	e6d5      	b.n	bb2 <main+0x27a>
     e06:	f8ca 9000 	str.w	r9, [sl]
     e0a:	e6d2      	b.n	bb2 <main+0x27a>
     e0c:	f240 70d4 	movw	r0, #2004	; 0x7d4
     e10:	f64a 31d4 	movw	r1, #43988	; 0xabd4
     e14:	f2c2 0000 	movt	r0, #8192	; 0x2000
     e18:	f2c0 0100 	movt	r1, #0
     e1c:	f000 fa76 	bl	130c <MSS_UART_polled_tx_string>
     e20:	f1bb 0f7f 	cmp.w	fp, #127	; 0x7f
     e24:	f47f af29 	bne.w	c7a <main+0x342>
     e28:	f240 70d4 	movw	r0, #2004	; 0x7d4
     e2c:	f64a 31fc 	movw	r1, #44028	; 0xabfc
     e30:	f2c2 0000 	movt	r0, #8192	; 0x2000
     e34:	f2c0 0100 	movt	r1, #0
     e38:	f000 fa68 	bl	130c <MSS_UART_polled_tx_string>
     e3c:	e71d      	b.n	c7a <main+0x342>
     e3e:	f240 70d4 	movw	r0, #2004	; 0x7d4
     e42:	f64a 31d4 	movw	r1, #43988	; 0xabd4
     e46:	f2c2 0000 	movt	r0, #8192	; 0x2000
     e4a:	f2c0 0100 	movt	r1, #0
     e4e:	f000 fa5d 	bl	130c <MSS_UART_polled_tx_string>
     e52:	2c7f      	cmp	r4, #127	; 0x7f
     e54:	f47f ae5f 	bne.w	b16 <main+0x1de>
     e58:	f240 70d4 	movw	r0, #2004	; 0x7d4
     e5c:	f64a 31fc 	movw	r1, #44028	; 0xabfc
     e60:	f2c2 0000 	movt	r0, #8192	; 0x2000
     e64:	f2c0 0100 	movt	r1, #0
     e68:	f000 fa50 	bl	130c <MSS_UART_polled_tx_string>
     e6c:	e653      	b.n	b16 <main+0x1de>
     e6e:	b916      	cbnz	r6, e76 <main+0x53e>
     e70:	f7ff fca2 	bl	7b8 <spi_flash_bootloader>
     e74:	e7fe      	b.n	e74 <main+0x53c>
     e76:	f640 007d 	movw	r0, #2173	; 0x87d
     e7a:	f2c0 0000 	movt	r0, #0
     e7e:	f003 f905 	bl	408c <MSS_SYS_init>
     e82:	f240 70d4 	movw	r0, #2004	; 0x7d4
     e86:	f64a 4170 	movw	r1, #44144	; 0xac70
     e8a:	f2c2 0000 	movt	r0, #8192	; 0x2000
     e8e:	f2c0 0100 	movt	r1, #0
     e92:	f240 0404 	movw	r4, #4
     e96:	f000 fa39 	bl	130c <MSS_UART_polled_tx_string>
     e9a:	f2c2 0400 	movt	r4, #8192	; 0x2000
     e9e:	f241 11bd 	movw	r1, #4541	; 0x11bd
     ea2:	f640 0239 	movw	r2, #2105	; 0x839
     ea6:	4638      	mov	r0, r7
     ea8:	f44f 1700 	mov.w	r7, #2097152	; 0x200000
     eac:	f2c0 0100 	movt	r1, #0
     eb0:	f2c0 0200 	movt	r2, #0
     eb4:	7226      	strb	r6, [r4, #8]
     eb6:	f8c5 7204 	str.w	r7, [r5, #516]	; 0x204
     eba:	f002 ffb1 	bl	3e20 <MSS_SYS_start_isp>
     ebe:	7a20      	ldrb	r0, [r4, #8]
     ec0:	f240 0604 	movw	r6, #4
     ec4:	f2c2 0600 	movt	r6, #8192	; 0x2000
     ec8:	2800      	cmp	r0, #0
     eca:	d1f8      	bne.n	ebe <main+0x586>
     ecc:	6870      	ldr	r0, [r6, #4]
     ece:	2800      	cmp	r0, #0
     ed0:	f040 8112 	bne.w	10f8 <PROCESS_STACK_SIZE+0xf8>
     ed4:	f240 70d4 	movw	r0, #2004	; 0x7d4
     ed8:	f64a 4188 	movw	r1, #44168	; 0xac88
     edc:	f2c2 0000 	movt	r0, #8192	; 0x2000
     ee0:	f2c0 0100 	movt	r1, #0
     ee4:	f000 fa12 	bl	130c <MSS_UART_polled_tx_string>
     ee8:	f240 70d4 	movw	r0, #2004	; 0x7d4
     eec:	f64a 41bc 	movw	r1, #44220	; 0xacbc
     ef0:	f2c0 0100 	movt	r1, #0
     ef4:	f2c2 0000 	movt	r0, #8192	; 0x2000
     ef8:	f000 fa08 	bl	130c <MSS_UART_polled_tx_string>
     efc:	f640 007d 	movw	r0, #2173	; 0x87d
     f00:	f2c0 0000 	movt	r0, #0
     f04:	f003 f8c2 	bl	408c <MSS_SYS_init>
     f08:	2301      	movs	r3, #1
     f0a:	f241 11bd 	movw	r1, #4541	; 0x11bd
     f0e:	f640 0239 	movw	r2, #2105	; 0x839
     f12:	7233      	strb	r3, [r6, #8]
     f14:	f44f 1600 	mov.w	r6, #2097152	; 0x200000
     f18:	4618      	mov	r0, r3
     f1a:	f2c0 0100 	movt	r1, #0
     f1e:	f2c0 0200 	movt	r2, #0
     f22:	f8c5 6204 	str.w	r6, [r5, #516]	; 0x204
     f26:	f002 ff7b 	bl	3e20 <MSS_SYS_start_isp>
     f2a:	7a21      	ldrb	r1, [r4, #8]
     f2c:	f240 0604 	movw	r6, #4
     f30:	f2c2 0600 	movt	r6, #8192	; 0x2000
     f34:	2900      	cmp	r1, #0
     f36:	d1f8      	bne.n	f2a <main+0x5f2>
     f38:	6870      	ldr	r0, [r6, #4]
     f3a:	2800      	cmp	r0, #0
     f3c:	f040 8108 	bne.w	1150 <PROCESS_STACK_SIZE+0x150>
     f40:	f240 70d4 	movw	r0, #2004	; 0x7d4
     f44:	f64a 41e8 	movw	r1, #44264	; 0xace8
     f48:	f2c0 0100 	movt	r1, #0
     f4c:	f2c2 0000 	movt	r0, #8192	; 0x2000
     f50:	f000 f9dc 	bl	130c <MSS_UART_polled_tx_string>
     f54:	f640 007d 	movw	r0, #2173	; 0x87d
     f58:	f2c0 0000 	movt	r0, #0
     f5c:	f003 f896 	bl	408c <MSS_SYS_init>
     f60:	f44f 1700 	mov.w	r7, #2097152	; 0x200000
     f64:	f241 11bd 	movw	r1, #4541	; 0x11bd
     f68:	f640 0239 	movw	r2, #2105	; 0x839
     f6c:	2301      	movs	r3, #1
     f6e:	f2c0 0100 	movt	r1, #0
     f72:	f2c0 0200 	movt	r2, #0
     f76:	2002      	movs	r0, #2
     f78:	7233      	strb	r3, [r6, #8]
     f7a:	f8c5 7204 	str.w	r7, [r5, #516]	; 0x204
     f7e:	f002 ff4f 	bl	3e20 <MSS_SYS_start_isp>
     f82:	7a25      	ldrb	r5, [r4, #8]
     f84:	f240 0304 	movw	r3, #4
     f88:	f2c2 0300 	movt	r3, #8192	; 0x2000
     f8c:	2d00      	cmp	r5, #0
     f8e:	d1f8      	bne.n	f82 <main+0x64a>
     f90:	6858      	ldr	r0, [r3, #4]
     f92:	2800      	cmp	r0, #0
     f94:	f040 80eb 	bne.w	116e <PROCESS_STACK_SIZE+0x16e>
     f98:	f240 70d4 	movw	r0, #2004	; 0x7d4
     f9c:	f64a 5118 	movw	r1, #44312	; 0xad18
     fa0:	f2c0 0100 	movt	r1, #0
     fa4:	f2c2 0000 	movt	r0, #8192	; 0x2000
     fa8:	f000 f9b0 	bl	130c <MSS_UART_polled_tx_string>
     fac:	f640 007d 	movw	r0, #2173	; 0x87d
     fb0:	f2c0 0000 	movt	r0, #0
     fb4:	ad12      	add	r5, sp, #72	; 0x48
     fb6:	f003 f869 	bl	408c <MSS_SYS_init>
     fba:	4628      	mov	r0, r5
     fbc:	f002 ff12 	bl	3de4 <MSS_SYS_get_design_version>
     fc0:	4604      	mov	r4, r0
     fc2:	2800      	cmp	r0, #0
     fc4:	f040 80e2 	bne.w	118c <PROCESS_STACK_SIZE+0x18c>
     fc8:	f240 70d4 	movw	r0, #2004	; 0x7d4
     fcc:	f64a 5144 	movw	r1, #44356	; 0xad44
     fd0:	f2c0 0100 	movt	r1, #0
     fd4:	f2c2 0000 	movt	r0, #8192	; 0x2000
     fd8:	f000 f998 	bl	130c <MSS_UART_polled_tx_string>
     fdc:	4628      	mov	r0, r5
     fde:	2102      	movs	r1, #2
     fe0:	f7ff f9da 	bl	398 <display_hex_values>
     fe4:	f240 70d4 	movw	r0, #2004	; 0x7d4
     fe8:	f24b 1138 	movw	r1, #45368	; 0xb138
     fec:	f2c2 0000 	movt	r0, #8192	; 0x2000
     ff0:	f2c0 0100 	movt	r1, #0
     ff4:	f000 f98a 	bl	130c <MSS_UART_polled_tx_string>
     ff8:	f240 0002 	movw	r0, #2
     ffc:	f248 0400 	movw	r4, #32768	; 0x8000
    1000:	2202      	movs	r2, #2
    1002:	f2c4 0403 	movt	r4, #16387	; 0x4003
    1006:	4629      	mov	r1, r5
    1008:	f2c0 0070 	movt	r0, #112	; 0x70
    100c:	f003 fd30 	bl	4a70 <FLASH_program>
    1010:	f8d4 7098 	ldr.w	r7, [r4, #152]	; 0x98
    1014:	f240 70d4 	movw	r0, #2004	; 0x7d4
    1018:	f64a 21c8 	movw	r1, #43720	; 0xaac8
    101c:	f2c0 0100 	movt	r1, #0
    1020:	f2c2 0000 	movt	r0, #8192	; 0x2000
    1024:	970f      	str	r7, [sp, #60]	; 0x3c
    1026:	f000 f971 	bl	130c <MSS_UART_polled_tx_string>
    102a:	4640      	mov	r0, r8
    102c:	2108      	movs	r1, #8
    102e:	f7ff f9b3 	bl	398 <display_hex_values>
    1032:	f240 70d4 	movw	r0, #2004	; 0x7d4
    1036:	f24b 1138 	movw	r1, #45368	; 0xb138
    103a:	f2c2 0000 	movt	r0, #8192	; 0x2000
    103e:	f2c0 0100 	movt	r1, #0
    1042:	f000 f963 	bl	130c <MSS_UART_polled_tx_string>
    1046:	f240 70d4 	movw	r0, #2004	; 0x7d4
    104a:	f64a 5174 	movw	r1, #44404	; 0xad74
    104e:	f2c2 0000 	movt	r0, #8192	; 0x2000
    1052:	f2c0 0100 	movt	r1, #0
    1056:	f000 f959 	bl	130c <MSS_UART_polled_tx_string>
    105a:	9a0e      	ldr	r2, [sp, #56]	; 0x38
    105c:	f240 70d4 	movw	r0, #2004	; 0x7d4
    1060:	f8c4 2098 	str.w	r2, [r4, #152]	; 0x98
    1064:	f8d4 6098 	ldr.w	r6, [r4, #152]	; 0x98
    1068:	2203      	movs	r2, #3
    106a:	f2c2 0000 	movt	r0, #8192	; 0x2000
    106e:	f44f 31e1 	mov.w	r1, #115200	; 0x1c200
    1072:	960f      	str	r6, [sp, #60]	; 0x3c
    1074:	f001 fb12 	bl	269c <MSS_UART_init>
    1078:	f240 70d4 	movw	r0, #2004	; 0x7d4
    107c:	f64a 51a8 	movw	r1, #44456	; 0xada8
    1080:	f2c0 0100 	movt	r1, #0
    1084:	f2c2 0000 	movt	r0, #8192	; 0x2000
    1088:	f000 f940 	bl	130c <MSS_UART_polled_tx_string>
    108c:	4640      	mov	r0, r8
    108e:	2108      	movs	r1, #8
    1090:	f7ff f982 	bl	398 <display_hex_values>
    1094:	f240 70d4 	movw	r0, #2004	; 0x7d4
    1098:	f24b 1138 	movw	r1, #45368	; 0xb138
    109c:	f2c0 0100 	movt	r1, #0
    10a0:	f2c2 0000 	movt	r0, #8192	; 0x2000
    10a4:	f000 f932 	bl	130c <MSS_UART_polled_tx_string>
    10a8:	2004      	movs	r0, #4
    10aa:	f003 fd7f 	bl	4bac <FLASH_init>
    10ae:	f003 fbfd 	bl	48ac <FLASH_global_unprotect>
    10b2:	e6dd      	b.n	e70 <main+0x538>
    10b4:	f240 70d4 	movw	r0, #2004	; 0x7d4
    10b8:	f64a 3168 	movw	r1, #43880	; 0xab68
    10bc:	f2c2 0000 	movt	r0, #8192	; 0x2000
    10c0:	f2c0 0100 	movt	r1, #0
    10c4:	f000 f922 	bl	130c <MSS_UART_polled_tx_string>
    10c8:	e4da      	b.n	a80 <main+0x148>
    10ca:	f240 70d4 	movw	r0, #2004	; 0x7d4
    10ce:	f64a 4150 	movw	r1, #44112	; 0xac50
    10d2:	f2c2 0000 	movt	r0, #8192	; 0x2000
    10d6:	f2c0 0100 	movt	r1, #0
    10da:	f000 f917 	bl	130c <MSS_UART_polled_tx_string>
    10de:	2600      	movs	r6, #0
    10e0:	e553      	b.n	b8a <main+0x252>
    10e2:	f240 70d4 	movw	r0, #2004	; 0x7d4
    10e6:	f64a 2168 	movw	r1, #43624	; 0xaa68
    10ea:	f2c2 0000 	movt	r0, #8192	; 0x2000
    10ee:	f2c0 0100 	movt	r1, #0
    10f2:	f000 f90b 	bl	130c <MSS_UART_polled_tx_string>
    10f6:	e4e8      	b.n	aca <main+0x192>
    10f8:	ac01      	add	r4, sp, #4
    10fa:	4621      	mov	r1, r4
    10fc:	2202      	movs	r2, #2
    10fe:	f7ff f90f 	bl	320 <int_to_hex_int>
    1102:	f64a 612c 	movw	r1, #44588	; 0xae2c
    1106:	4605      	mov	r5, r0
    1108:	f240 70d4 	movw	r0, #2004	; 0x7d4
    110c:	f2c2 0000 	movt	r0, #8192	; 0x2000
    1110:	f2c0 0100 	movt	r1, #0
    1114:	f000 f8fa 	bl	130c <MSS_UART_polled_tx_string>
    1118:	f240 70d4 	movw	r0, #2004	; 0x7d4
    111c:	f2c2 0000 	movt	r0, #8192	; 0x2000
    1120:	4621      	mov	r1, r4
    1122:	462a      	mov	r2, r5
    1124:	f000 f89c 	bl	1260 <MSS_UART_polled_tx>
    1128:	f240 70d4 	movw	r0, #2004	; 0x7d4
    112c:	f64a 1104 	movw	r1, #43268	; 0xa904
    1130:	f2c2 0000 	movt	r0, #8192	; 0x2000
    1134:	f2c0 0100 	movt	r1, #0
    1138:	f000 f8e8 	bl	130c <MSS_UART_polled_tx_string>
    113c:	f64e 510c 	movw	r1, #60684	; 0xed0c
    1140:	f240 0004 	movw	r0, #4
    1144:	f2ce 0100 	movt	r1, #57344	; 0xe000
    1148:	f2c0 50fa 	movt	r0, #1530	; 0x5fa
    114c:	6008      	str	r0, [r1, #0]
    114e:	e68f      	b.n	e70 <main+0x538>
    1150:	ac01      	add	r4, sp, #4
    1152:	4621      	mov	r1, r4
    1154:	2202      	movs	r2, #2
    1156:	f7ff f8e3 	bl	320 <int_to_hex_int>
    115a:	f64a 6104 	movw	r1, #44548	; 0xae04
    115e:	4605      	mov	r5, r0
    1160:	f240 70d4 	movw	r0, #2004	; 0x7d4
    1164:	f2c2 0000 	movt	r0, #8192	; 0x2000
    1168:	f2c0 0100 	movt	r1, #0
    116c:	e7d2      	b.n	1114 <PROCESS_STACK_SIZE+0x114>
    116e:	ac01      	add	r4, sp, #4
    1170:	4621      	mov	r1, r4
    1172:	2202      	movs	r2, #2
    1174:	f7ff f8d4 	bl	320 <int_to_hex_int>
    1178:	f64a 51dc 	movw	r1, #44508	; 0xaddc
    117c:	4605      	mov	r5, r0
    117e:	f240 70d4 	movw	r0, #2004	; 0x7d4
    1182:	f2c2 0000 	movt	r0, #8192	; 0x2000
    1186:	f2c0 0100 	movt	r1, #0
    118a:	e7c3      	b.n	1114 <PROCESS_STACK_SIZE+0x114>
    118c:	f240 70d4 	movw	r0, #2004	; 0x7d4
    1190:	f64a 31d4 	movw	r1, #43988	; 0xabd4
    1194:	f2c2 0000 	movt	r0, #8192	; 0x2000
    1198:	f2c0 0100 	movt	r1, #0
    119c:	f000 f8b6 	bl	130c <MSS_UART_polled_tx_string>
    11a0:	2c7f      	cmp	r4, #127	; 0x7f
    11a2:	f47f af29 	bne.w	ff8 <main+0x6c0>
    11a6:	f240 70d4 	movw	r0, #2004	; 0x7d4
    11aa:	f64a 31fc 	movw	r1, #44028	; 0xabfc
    11ae:	f2c2 0000 	movt	r0, #8192	; 0x2000
    11b2:	f2c0 0100 	movt	r1, #0
    11b6:	f000 f8a9 	bl	130c <MSS_UART_polled_tx_string>
    11ba:	e71d      	b.n	ff8 <main+0x6c0>

000011bc <page_read_handler>:
    11bc:	b570      	push	{r4, r5, r6, lr}
    11be:	f240 543c 	movw	r4, #1340	; 0x53c
    11c2:	f2c2 0400 	movt	r4, #8192	; 0x2000
    11c6:	f8d4 3204 	ldr.w	r3, [r4, #516]	; 0x204
    11ca:	f504 7582 	add.w	r5, r4, #260	; 0x104
    11ce:	4606      	mov	r6, r0
    11d0:	4629      	mov	r1, r5
    11d2:	1e58      	subs	r0, r3, #1
    11d4:	f44f 7280 	mov.w	r2, #256	; 0x100
    11d8:	f003 fb96 	bl	4908 <FLASH_read>
    11dc:	f8d4 3204 	ldr.w	r3, [r4, #516]	; 0x204
    11e0:	f5b3 1f00 	cmp.w	r3, #2097152	; 0x200000
    11e4:	d021      	beq.n	122a <page_read_handler+0x6e>
    11e6:	f248 5e1f 	movw	lr, #34079	; 0x851f
    11ea:	f2c5 1eeb 	movt	lr, #20971	; 0x51eb
    11ee:	fb8e 1c03 	smull	r1, ip, lr, r3
    11f2:	17d9      	asrs	r1, r3, #31
    11f4:	ebc1 306c 	rsb	r0, r1, ip, asr #13
    11f8:	f44f 41c8 	mov.w	r1, #25600	; 0x6400
    11fc:	fb01 3210 	mls	r2, r1, r0, r3
    1200:	b95a      	cbnz	r2, 121a <page_read_handler+0x5e>
    1202:	f240 70d4 	movw	r0, #2004	; 0x7d4
    1206:	f64a 3164 	movw	r1, #43876	; 0xab64
    120a:	f2c2 0000 	movt	r0, #8192	; 0x2000
    120e:	f2c0 0100 	movt	r1, #0
    1212:	f000 f87b 	bl	130c <MSS_UART_polled_tx_string>
    1216:	f8d4 3204 	ldr.w	r3, [r4, #516]	; 0x204
    121a:	f503 7380 	add.w	r3, r3, #256	; 0x100
    121e:	f8c4 3204 	str.w	r3, [r4, #516]	; 0x204
    1222:	6035      	str	r5, [r6, #0]
    1224:	f44f 7080 	mov.w	r0, #256	; 0x100
    1228:	bd70      	pop	{r4, r5, r6, pc}
    122a:	f240 70d4 	movw	r0, #2004	; 0x7d4
    122e:	f64a 7134 	movw	r1, #44852	; 0xaf34
    1232:	f2c0 0100 	movt	r1, #0
    1236:	f2c2 0000 	movt	r0, #8192	; 0x2000
    123a:	f000 f867 	bl	130c <MSS_UART_polled_tx_string>
    123e:	4628      	mov	r0, r5
    1240:	2180      	movs	r1, #128	; 0x80
    1242:	f7ff f8a9 	bl	398 <display_hex_values>
    1246:	f240 70d4 	movw	r0, #2004	; 0x7d4
    124a:	f24b 1138 	movw	r1, #45368	; 0xb138
    124e:	f2c2 0000 	movt	r0, #8192	; 0x2000
    1252:	f2c0 0100 	movt	r1, #0
    1256:	f000 f859 	bl	130c <MSS_UART_polled_tx_string>
    125a:	f8d4 3204 	ldr.w	r3, [r4, #516]	; 0x204
    125e:	e7c2      	b.n	11e6 <page_read_handler+0x2a>

00001260 <MSS_UART_polled_tx>:
    1260:	f640 0314 	movw	r3, #2068	; 0x814
    1264:	f2c2 0300 	movt	r3, #8192	; 0x2000
    1268:	4298      	cmp	r0, r3
    126a:	e92d 05f0 	stmdb	sp!, {r4, r5, r6, r7, r8, sl}
    126e:	d008      	beq.n	1282 <MSS_UART_polled_tx+0x22>
    1270:	f240 7cd4 	movw	ip, #2004	; 0x7d4
    1274:	f2c2 0c00 	movt	ip, #8192	; 0x2000
    1278:	4560      	cmp	r0, ip
    127a:	d002      	beq.n	1282 <MSS_UART_polled_tx+0x22>
    127c:	e8bd 05f0 	ldmia.w	sp!, {r4, r5, r6, r7, r8, sl}
    1280:	4770      	bx	lr
    1282:	1e0b      	subs	r3, r1, #0
    1284:	bf18      	it	ne
    1286:	2301      	movne	r3, #1
    1288:	2a00      	cmp	r2, #0
    128a:	bf0c      	ite	eq
    128c:	2300      	moveq	r3, #0
    128e:	f003 0301 	andne.w	r3, r3, #1
    1292:	2b00      	cmp	r3, #0
    1294:	d0f2      	beq.n	127c <MSS_UART_polled_tx+0x1c>
    1296:	f890 800d 	ldrb.w	r8, [r0, #13]
    129a:	f8d0 a000 	ldr.w	sl, [r0]
    129e:	2500      	movs	r5, #0
    12a0:	f89a c014 	ldrb.w	ip, [sl, #20]
    12a4:	ea48 080c 	orr.w	r8, r8, ip
    12a8:	f01c 0f20 	tst.w	ip, #32
    12ac:	f880 800d 	strb.w	r8, [r0, #13]
    12b0:	d023      	beq.n	12fa <MSS_UART_polled_tx+0x9a>
    12b2:	2a0f      	cmp	r2, #15
    12b4:	d924      	bls.n	1300 <MSS_UART_polled_tx+0xa0>
    12b6:	2710      	movs	r7, #16
    12b8:	5d4e      	ldrb	r6, [r1, r5]
    12ba:	6804      	ldr	r4, [r0, #0]
    12bc:	2301      	movs	r3, #1
    12be:	f107 3cff 	add.w	ip, r7, #4294967295
    12c2:	7026      	strb	r6, [r4, #0]
    12c4:	ea0c 0603 	and.w	r6, ip, r3
    12c8:	eb05 0c03 	add.w	ip, r5, r3
    12cc:	194d      	adds	r5, r1, r5
    12ce:	42bb      	cmp	r3, r7
    12d0:	d211      	bcs.n	12f6 <MSS_UART_polled_tx+0x96>
    12d2:	b136      	cbz	r6, 12e2 <MSS_UART_polled_tx+0x82>
    12d4:	5cee      	ldrb	r6, [r5, r3]
    12d6:	2302      	movs	r3, #2
    12d8:	42bb      	cmp	r3, r7
    12da:	7026      	strb	r6, [r4, #0]
    12dc:	f10c 0c01 	add.w	ip, ip, #1
    12e0:	d209      	bcs.n	12f6 <MSS_UART_polled_tx+0x96>
    12e2:	5cee      	ldrb	r6, [r5, r3]
    12e4:	3301      	adds	r3, #1
    12e6:	7026      	strb	r6, [r4, #0]
    12e8:	5cee      	ldrb	r6, [r5, r3]
    12ea:	3301      	adds	r3, #1
    12ec:	42bb      	cmp	r3, r7
    12ee:	7026      	strb	r6, [r4, #0]
    12f0:	f10c 0c02 	add.w	ip, ip, #2
    12f4:	d3f5      	bcc.n	12e2 <MSS_UART_polled_tx+0x82>
    12f6:	4665      	mov	r5, ip
    12f8:	1ad2      	subs	r2, r2, r3
    12fa:	2a00      	cmp	r2, #0
    12fc:	d1d0      	bne.n	12a0 <MSS_UART_polled_tx+0x40>
    12fe:	e7bd      	b.n	127c <MSS_UART_polled_tx+0x1c>
    1300:	b10a      	cbz	r2, 1306 <MSS_UART_polled_tx+0xa6>
    1302:	4617      	mov	r7, r2
    1304:	e7d8      	b.n	12b8 <MSS_UART_polled_tx+0x58>
    1306:	4613      	mov	r3, r2
    1308:	1ad2      	subs	r2, r2, r3
    130a:	e7f6      	b.n	12fa <MSS_UART_polled_tx+0x9a>

0000130c <MSS_UART_polled_tx_string>:
    130c:	e92d 05f0 	stmdb	sp!, {r4, r5, r6, r7, r8, sl}
    1310:	f640 0314 	movw	r3, #2068	; 0x814
    1314:	f2c2 0300 	movt	r3, #8192	; 0x2000
    1318:	4298      	cmp	r0, r3
    131a:	b082      	sub	sp, #8
    131c:	d012      	beq.n	1344 <MSS_UART_polled_tx_string+0x38>
    131e:	f240 72d4 	movw	r2, #2004	; 0x7d4
    1322:	f2c2 0200 	movt	r2, #8192	; 0x2000
    1326:	4290      	cmp	r0, r2
    1328:	d00c      	beq.n	1344 <MSS_UART_polled_tx_string+0x38>
    132a:	f241 3088 	movw	r0, #5000	; 0x1388
    132e:	9001      	str	r0, [sp, #4]
    1330:	9b01      	ldr	r3, [sp, #4]
    1332:	1e5a      	subs	r2, r3, #1
    1334:	9201      	str	r2, [sp, #4]
    1336:	9901      	ldr	r1, [sp, #4]
    1338:	2900      	cmp	r1, #0
    133a:	d1f9      	bne.n	1330 <MSS_UART_polled_tx_string+0x24>
    133c:	b002      	add	sp, #8
    133e:	e8bd 05f0 	ldmia.w	sp!, {r4, r5, r6, r7, r8, sl}
    1342:	4770      	bx	lr
    1344:	2900      	cmp	r1, #0
    1346:	d0f0      	beq.n	132a <MSS_UART_polled_tx_string+0x1e>
    1348:	780d      	ldrb	r5, [r1, #0]
    134a:	2d00      	cmp	r5, #0
    134c:	d0ed      	beq.n	132a <MSS_UART_polled_tx_string+0x1e>
    134e:	7b42      	ldrb	r2, [r0, #13]
    1350:	6804      	ldr	r4, [r0, #0]
    1352:	f04f 0c00 	mov.w	ip, #0
    1356:	7d23      	ldrb	r3, [r4, #20]
    1358:	431a      	orrs	r2, r3
    135a:	f013 0f20 	tst.w	r3, #32
    135e:	d0fa      	beq.n	1356 <MSS_UART_polled_tx_string+0x4a>
    1360:	7342      	strb	r2, [r0, #13]
    1362:	b925      	cbnz	r5, 136e <MSS_UART_polled_tx_string+0x62>
    1364:	4663      	mov	r3, ip
    1366:	2d00      	cmp	r5, #0
    1368:	d0df      	beq.n	132a <MSS_UART_polled_tx_string+0x1e>
    136a:	469c      	mov	ip, r3
    136c:	e7f3      	b.n	1356 <MSS_UART_polled_tx_string+0x4a>
    136e:	f8d0 a000 	ldr.w	sl, [r0]
    1372:	2600      	movs	r6, #0
    1374:	eb01 080c 	add.w	r8, r1, ip
    1378:	3601      	adds	r6, #1
    137a:	f88a 5000 	strb.w	r5, [sl]
    137e:	f818 5006 	ldrb.w	r5, [r8, r6]
    1382:	eb06 030c 	add.w	r3, r6, ip
    1386:	1e2f      	subs	r7, r5, #0
    1388:	bf18      	it	ne
    138a:	2701      	movne	r7, #1
    138c:	2e0f      	cmp	r6, #15
    138e:	bf8c      	ite	hi
    1390:	2700      	movhi	r7, #0
    1392:	f007 0701 	andls.w	r7, r7, #1
    1396:	2f00      	cmp	r7, #0
    1398:	d0e5      	beq.n	1366 <MSS_UART_polled_tx_string+0x5a>
    139a:	e7ed      	b.n	1378 <MSS_UART_polled_tx_string+0x6c>

0000139c <MSS_UART_irq_tx>:
    139c:	1e0b      	subs	r3, r1, #0
    139e:	bf18      	it	ne
    13a0:	2301      	movne	r3, #1
    13a2:	2a00      	cmp	r2, #0
    13a4:	bf0c      	ite	eq
    13a6:	2300      	moveq	r3, #0
    13a8:	f003 0301 	andne.w	r3, r3, #1
    13ac:	e92d 05f0 	stmdb	sp!, {r4, r5, r6, r7, r8, sl}
    13b0:	b15b      	cbz	r3, 13ca <MSS_UART_irq_tx+0x2e>
    13b2:	f640 0c14 	movw	ip, #2068	; 0x814
    13b6:	f2c2 0c00 	movt	ip, #8192	; 0x2000
    13ba:	4560      	cmp	r0, ip
    13bc:	d008      	beq.n	13d0 <MSS_UART_irq_tx+0x34>
    13be:	f240 73d4 	movw	r3, #2004	; 0x7d4
    13c2:	f2c2 0300 	movt	r3, #8192	; 0x2000
    13c6:	4298      	cmp	r0, r3
    13c8:	d002      	beq.n	13d0 <MSS_UART_irq_tx+0x34>
    13ca:	e8bd 05f0 	ldmia.w	sp!, {r4, r5, r6, r7, r8, sl}
    13ce:	4770      	bx	lr
    13d0:	f890 a004 	ldrb.w	sl, [r0, #4]
    13d4:	f04f 0801 	mov.w	r8, #1
    13d8:	f00a 071f 	and.w	r7, sl, #31
    13dc:	fa08 f707 	lsl.w	r7, r8, r7
    13e0:	6805      	ldr	r5, [r0, #0]
    13e2:	fa4f f68a 	sxtb.w	r6, sl
    13e6:	f105 0c04 	add.w	ip, r5, #4
    13ea:	f02c 447f 	bic.w	r4, ip, #4278190080	; 0xff000000
    13ee:	f00c 4370 	and.w	r3, ip, #4026531840	; 0xf0000000
    13f2:	f103 7a00 	add.w	sl, r3, #33554432	; 0x2000000
    13f6:	0976      	lsrs	r6, r6, #5
    13f8:	f424 0570 	bic.w	r5, r4, #15728640	; 0xf00000
    13fc:	f24e 1300 	movw	r3, #57600	; 0xe100
    1400:	f242 1425 	movw	r4, #8485	; 0x2125
    1404:	6142      	str	r2, [r0, #20]
    1406:	f2ce 0300 	movt	r3, #57344	; 0xe000
    140a:	f10a 0c04 	add.w	ip, sl, #4
    140e:	f2c0 0400 	movt	r4, #0
    1412:	016d      	lsls	r5, r5, #5
    1414:	f106 0a60 	add.w	sl, r6, #96	; 0x60
    1418:	2200      	movs	r2, #0
    141a:	6182      	str	r2, [r0, #24]
    141c:	6101      	str	r1, [r0, #16]
    141e:	f843 702a 	str.w	r7, [r3, sl, lsl #2]
    1422:	6244      	str	r4, [r0, #36]	; 0x24
    1424:	f84c 8005 	str.w	r8, [ip, r5]
    1428:	f843 7026 	str.w	r7, [r3, r6, lsl #2]
    142c:	e7cd      	b.n	13ca <MSS_UART_irq_tx+0x2e>
    142e:	bf00      	nop

00001430 <MSS_UART_tx_complete>:
    1430:	f640 0314 	movw	r3, #2068	; 0x814
    1434:	f2c2 0300 	movt	r3, #8192	; 0x2000
    1438:	4298      	cmp	r0, r3
    143a:	d007      	beq.n	144c <MSS_UART_tx_complete+0x1c>
    143c:	f240 71d4 	movw	r1, #2004	; 0x7d4
    1440:	f2c2 0100 	movt	r1, #8192	; 0x2000
    1444:	4288      	cmp	r0, r1
    1446:	d001      	beq.n	144c <MSS_UART_tx_complete+0x1c>
    1448:	2000      	movs	r0, #0
    144a:	4770      	bx	lr
    144c:	6803      	ldr	r3, [r0, #0]
    144e:	7b41      	ldrb	r1, [r0, #13]
    1450:	7d1b      	ldrb	r3, [r3, #20]
    1452:	6942      	ldr	r2, [r0, #20]
    1454:	ea43 0c01 	orr.w	ip, r3, r1
    1458:	f880 c00d 	strb.w	ip, [r0, #13]
    145c:	2a00      	cmp	r2, #0
    145e:	d1f3      	bne.n	1448 <MSS_UART_tx_complete+0x18>
    1460:	f3c3 1080 	ubfx	r0, r3, #6, #1
    1464:	4770      	bx	lr
    1466:	bf00      	nop

00001468 <MSS_UART_get_rx>:
    1468:	f640 0314 	movw	r3, #2068	; 0x814
    146c:	f2c2 0300 	movt	r3, #8192	; 0x2000
    1470:	4298      	cmp	r0, r3
    1472:	b470      	push	{r4, r5, r6}
    1474:	d009      	beq.n	148a <MSS_UART_get_rx+0x22>
    1476:	f240 7cd4 	movw	ip, #2004	; 0x7d4
    147a:	f2c2 0c00 	movt	ip, #8192	; 0x2000
    147e:	4560      	cmp	r0, ip
    1480:	d003      	beq.n	148a <MSS_UART_get_rx+0x22>
    1482:	2300      	movs	r3, #0
    1484:	4618      	mov	r0, r3
    1486:	bc70      	pop	{r4, r5, r6}
    1488:	4770      	bx	lr
    148a:	1e0b      	subs	r3, r1, #0
    148c:	bf18      	it	ne
    148e:	2301      	movne	r3, #1
    1490:	2a00      	cmp	r2, #0
    1492:	bf0c      	ite	eq
    1494:	2300      	moveq	r3, #0
    1496:	f003 0301 	andne.w	r3, r3, #1
    149a:	2b00      	cmp	r3, #0
    149c:	d0f1      	beq.n	1482 <MSS_UART_get_rx+0x1a>
    149e:	6804      	ldr	r4, [r0, #0]
    14a0:	f890 c00d 	ldrb.w	ip, [r0, #13]
    14a4:	7d23      	ldrb	r3, [r4, #20]
    14a6:	ea43 0c0c 	orr.w	ip, r3, ip
    14aa:	f013 0f01 	tst.w	r3, #1
    14ae:	f880 c00d 	strb.w	ip, [r0, #13]
    14b2:	d0e6      	beq.n	1482 <MSS_UART_get_rx+0x1a>
    14b4:	2300      	movs	r3, #0
    14b6:	7825      	ldrb	r5, [r4, #0]
    14b8:	54cd      	strb	r5, [r1, r3]
    14ba:	6804      	ldr	r4, [r0, #0]
    14bc:	7b46      	ldrb	r6, [r0, #13]
    14be:	f894 c014 	ldrb.w	ip, [r4, #20]
    14c2:	3301      	adds	r3, #1
    14c4:	ea4c 0606 	orr.w	r6, ip, r6
    14c8:	429a      	cmp	r2, r3
    14ca:	bf94      	ite	ls
    14cc:	2500      	movls	r5, #0
    14ce:	f00c 0501 	andhi.w	r5, ip, #1
    14d2:	7346      	strb	r6, [r0, #13]
    14d4:	2d00      	cmp	r5, #0
    14d6:	d1ee      	bne.n	14b6 <MSS_UART_get_rx+0x4e>
    14d8:	e7d4      	b.n	1484 <MSS_UART_get_rx+0x1c>
    14da:	bf00      	nop

000014dc <MSS_UART_enable_irq>:
    14dc:	f640 0314 	movw	r3, #2068	; 0x814
    14e0:	f2c2 0300 	movt	r3, #8192	; 0x2000
    14e4:	4298      	cmp	r0, r3
    14e6:	b430      	push	{r4, r5}
    14e8:	d007      	beq.n	14fa <MSS_UART_enable_irq+0x1e>
    14ea:	f240 72d4 	movw	r2, #2004	; 0x7d4
    14ee:	f2c2 0200 	movt	r2, #8192	; 0x2000
    14f2:	4290      	cmp	r0, r2
    14f4:	d001      	beq.n	14fa <MSS_UART_enable_irq+0x1e>
    14f6:	bc30      	pop	{r4, r5}
    14f8:	4770      	bx	lr
    14fa:	f64f 7cff 	movw	ip, #65535	; 0xffff
    14fe:	4561      	cmp	r1, ip
    1500:	d0f9      	beq.n	14f6 <MSS_UART_enable_irq+0x1a>
    1502:	f890 c004 	ldrb.w	ip, [r0, #4]
    1506:	2401      	movs	r4, #1
    1508:	f00c 021f 	and.w	r2, ip, #31
    150c:	4094      	lsls	r4, r2
    150e:	fa4f f38c 	sxtb.w	r3, ip
    1512:	ea4f 1c53 	mov.w	ip, r3, lsr #5
    1516:	f24e 1300 	movw	r3, #57600	; 0xe100
    151a:	6802      	ldr	r2, [r0, #0]
    151c:	f2ce 0300 	movt	r3, #57344	; 0xe000
    1520:	f10c 0560 	add.w	r5, ip, #96	; 0x60
    1524:	f843 4025 	str.w	r4, [r3, r5, lsl #2]
    1528:	7915      	ldrb	r5, [r2, #4]
    152a:	f001 000f 	and.w	r0, r1, #15
    152e:	ea45 0000 	orr.w	r0, r5, r0
    1532:	7110      	strb	r0, [r2, #4]
    1534:	f892 0024 	ldrb.w	r0, [r2, #36]	; 0x24
    1538:	ea40 1111 	orr.w	r1, r0, r1, lsr #4
    153c:	b2c9      	uxtb	r1, r1
    153e:	f882 1024 	strb.w	r1, [r2, #36]	; 0x24
    1542:	f843 402c 	str.w	r4, [r3, ip, lsl #2]
    1546:	e7d6      	b.n	14f6 <MSS_UART_enable_irq+0x1a>

00001548 <MSS_UART_disable_irq>:
    1548:	f640 0314 	movw	r3, #2068	; 0x814
    154c:	f2c2 0300 	movt	r3, #8192	; 0x2000
    1550:	4298      	cmp	r0, r3
    1552:	b410      	push	{r4}
    1554:	d007      	beq.n	1566 <MSS_UART_disable_irq+0x1e>
    1556:	f240 72d4 	movw	r2, #2004	; 0x7d4
    155a:	f2c2 0200 	movt	r2, #8192	; 0x2000
    155e:	4290      	cmp	r0, r2
    1560:	d001      	beq.n	1566 <MSS_UART_disable_irq+0x1e>
    1562:	bc10      	pop	{r4}
    1564:	4770      	bx	lr
    1566:	6803      	ldr	r3, [r0, #0]
    1568:	f001 040f 	and.w	r4, r1, #15
    156c:	791a      	ldrb	r2, [r3, #4]
    156e:	f481 4c7f 	eor.w	ip, r1, #65280	; 0xff00
    1572:	ea22 0204 	bic.w	r2, r2, r4
    1576:	711a      	strb	r2, [r3, #4]
    1578:	f893 2024 	ldrb.w	r2, [r3, #36]	; 0x24
    157c:	ea42 221c 	orr.w	r2, r2, ip, lsr #8
    1580:	f883 2024 	strb.w	r2, [r3, #36]	; 0x24
    1584:	7902      	ldrb	r2, [r0, #4]
    1586:	f04f 0c01 	mov.w	ip, #1
    158a:	f002 001f 	and.w	r0, r2, #31
    158e:	fa0c f000 	lsl.w	r0, ip, r0
    1592:	b252      	sxtb	r2, r2
    1594:	0952      	lsrs	r2, r2, #5
    1596:	f24e 1300 	movw	r3, #57600	; 0xe100
    159a:	f2ce 0300 	movt	r3, #57344	; 0xe000
    159e:	f102 0c60 	add.w	ip, r2, #96	; 0x60
    15a2:	290f      	cmp	r1, #15
    15a4:	f843 002c 	str.w	r0, [r3, ip, lsl #2]
    15a8:	d1db      	bne.n	1562 <MSS_UART_disable_irq+0x1a>
    15aa:	3220      	adds	r2, #32
    15ac:	f843 0022 	str.w	r0, [r3, r2, lsl #2]
    15b0:	e7d7      	b.n	1562 <MSS_UART_disable_irq+0x1a>
    15b2:	bf00      	nop

000015b4 <MSS_UART_set_rx_handler>:
    15b4:	f640 0314 	movw	r3, #2068	; 0x814
    15b8:	f2c2 0300 	movt	r3, #8192	; 0x2000
    15bc:	4298      	cmp	r0, r3
    15be:	b430      	push	{r4, r5}
    15c0:	d007      	beq.n	15d2 <MSS_UART_set_rx_handler+0x1e>
    15c2:	f240 7cd4 	movw	ip, #2004	; 0x7d4
    15c6:	f2c2 0c00 	movt	ip, #8192	; 0x2000
    15ca:	4560      	cmp	r0, ip
    15cc:	d001      	beq.n	15d2 <MSS_UART_set_rx_handler+0x1e>
    15ce:	bc30      	pop	{r4, r5}
    15d0:	4770      	bx	lr
    15d2:	1e0b      	subs	r3, r1, #0
    15d4:	bf18      	it	ne
    15d6:	2301      	movne	r3, #1
    15d8:	2ac0      	cmp	r2, #192	; 0xc0
    15da:	bf8c      	ite	hi
    15dc:	2300      	movhi	r3, #0
    15de:	f003 0301 	andls.w	r3, r3, #1
    15e2:	2b00      	cmp	r3, #0
    15e4:	d0f3      	beq.n	15ce <MSS_UART_set_rx_handler+0x1a>
    15e6:	6805      	ldr	r5, [r0, #0]
    15e8:	6201      	str	r1, [r0, #32]
    15ea:	f895 c008 	ldrb.w	ip, [r5, #8]
    15ee:	2401      	movs	r4, #1
    15f0:	f00c 033f 	and.w	r3, ip, #63	; 0x3f
    15f4:	431a      	orrs	r2, r3
    15f6:	722a      	strb	r2, [r5, #8]
    15f8:	7902      	ldrb	r2, [r0, #4]
    15fa:	f105 0c04 	add.w	ip, r5, #4
    15fe:	f002 001f 	and.w	r0, r2, #31
    1602:	fa14 f000 	lsls.w	r0, r4, r0
    1606:	f02c 437f 	bic.w	r3, ip, #4278190080	; 0xff000000
    160a:	b251      	sxtb	r1, r2
    160c:	f423 0570 	bic.w	r5, r3, #15728640	; 0xf00000
    1610:	0949      	lsrs	r1, r1, #5
    1612:	f24e 1300 	movw	r3, #57600	; 0xe100
    1616:	f00c 4c70 	and.w	ip, ip, #4026531840	; 0xf0000000
    161a:	f2ce 0300 	movt	r3, #57344	; 0xe000
    161e:	016a      	lsls	r2, r5, #5
    1620:	f10c 7c00 	add.w	ip, ip, #33554432	; 0x2000000
    1624:	f101 0560 	add.w	r5, r1, #96	; 0x60
    1628:	f843 0025 	str.w	r0, [r3, r5, lsl #2]
    162c:	f84c 4002 	str.w	r4, [ip, r2]
    1630:	f843 0021 	str.w	r0, [r3, r1, lsl #2]
    1634:	e7cb      	b.n	15ce <MSS_UART_set_rx_handler+0x1a>
    1636:	bf00      	nop

00001638 <MSS_UART_set_loopback>:
    1638:	f640 0314 	movw	r3, #2068	; 0x814
    163c:	f2c2 0300 	movt	r3, #8192	; 0x2000
    1640:	4298      	cmp	r0, r3
    1642:	d00c      	beq.n	165e <MSS_UART_set_loopback+0x26>
    1644:	f240 7cd4 	movw	ip, #2004	; 0x7d4
    1648:	f2c2 0c00 	movt	ip, #8192	; 0x2000
    164c:	4560      	cmp	r0, ip
    164e:	bf14      	ite	ne
    1650:	2200      	movne	r2, #0
    1652:	2201      	moveq	r2, #1
    1654:	2905      	cmp	r1, #5
    1656:	bf98      	it	ls
    1658:	f042 0201 	orrls.w	r2, r2, #1
    165c:	b162      	cbz	r2, 1678 <MSS_UART_set_loopback+0x40>
    165e:	2905      	cmp	r1, #5
    1660:	d80a      	bhi.n	1678 <MSS_UART_set_loopback+0x40>
    1662:	e8df f001 	tbb	[pc, r1]
    1666:	190a      	.short	0x190a
    1668:	03282e28 	.word	0x03282e28
    166c:	6803      	ldr	r3, [r0, #0]
    166e:	f893 c010 	ldrb.w	ip, [r3, #16]
    1672:	f04c 0040 	orr.w	r0, ip, #64	; 0x40
    1676:	7418      	strb	r0, [r3, #16]
    1678:	4770      	bx	lr
    167a:	6803      	ldr	r3, [r0, #0]
    167c:	3310      	adds	r3, #16
    167e:	f023 4c7f 	bic.w	ip, r3, #4278190080	; 0xff000000
    1682:	f003 4170 	and.w	r1, r3, #4026531840	; 0xf0000000
    1686:	f101 7300 	add.w	r3, r1, #33554432	; 0x2000000
    168a:	f42c 0270 	bic.w	r2, ip, #15728640	; 0xf00000
    168e:	3310      	adds	r3, #16
    1690:	0150      	lsls	r0, r2, #5
    1692:	2100      	movs	r1, #0
    1694:	5019      	str	r1, [r3, r0]
    1696:	4770      	bx	lr
    1698:	6802      	ldr	r2, [r0, #0]
    169a:	3210      	adds	r2, #16
    169c:	f022 4c7f 	bic.w	ip, r2, #4278190080	; 0xff000000
    16a0:	f002 4370 	and.w	r3, r2, #4026531840	; 0xf0000000
    16a4:	f42c 0070 	bic.w	r0, ip, #15728640	; 0xf00000
    16a8:	f103 7100 	add.w	r1, r3, #33554432	; 0x2000000
    16ac:	0142      	lsls	r2, r0, #5
    16ae:	3110      	adds	r1, #16
    16b0:	2001      	movs	r0, #1
    16b2:	5088      	str	r0, [r1, r2]
    16b4:	4770      	bx	lr
    16b6:	6803      	ldr	r3, [r0, #0]
    16b8:	7c18      	ldrb	r0, [r3, #16]
    16ba:	f000 01f9 	and.w	r1, r0, #249	; 0xf9
    16be:	7419      	strb	r1, [r3, #16]
    16c0:	4770      	bx	lr
    16c2:	6801      	ldr	r1, [r0, #0]
    16c4:	7c0a      	ldrb	r2, [r1, #16]
    16c6:	f042 0c20 	orr.w	ip, r2, #32
    16ca:	f881 c010 	strb.w	ip, [r1, #16]
    16ce:	4770      	bx	lr

000016d0 <MSS_UART_set_rxstatus_handler>:
    16d0:	f640 0314 	movw	r3, #2068	; 0x814
    16d4:	f2c2 0300 	movt	r3, #8192	; 0x2000
    16d8:	4298      	cmp	r0, r3
    16da:	b4f0      	push	{r4, r5, r6, r7}
    16dc:	d007      	beq.n	16ee <MSS_UART_set_rxstatus_handler+0x1e>
    16de:	f240 72d4 	movw	r2, #2004	; 0x7d4
    16e2:	f2c2 0200 	movt	r2, #8192	; 0x2000
    16e6:	4290      	cmp	r0, r2
    16e8:	d001      	beq.n	16ee <MSS_UART_set_rxstatus_handler+0x1e>
    16ea:	bcf0      	pop	{r4, r5, r6, r7}
    16ec:	4770      	bx	lr
    16ee:	2900      	cmp	r1, #0
    16f0:	d0fb      	beq.n	16ea <MSS_UART_set_rxstatus_handler+0x1a>
    16f2:	f890 c004 	ldrb.w	ip, [r0, #4]
    16f6:	2601      	movs	r6, #1
    16f8:	f00c 051f 	and.w	r5, ip, #31
    16fc:	fa16 f505 	lsls.w	r5, r6, r5
    1700:	6803      	ldr	r3, [r0, #0]
    1702:	fa4f f48c 	sxtb.w	r4, ip
    1706:	1d1f      	adds	r7, r3, #4
    1708:	f027 437f 	bic.w	r3, r7, #4278190080	; 0xff000000
    170c:	f007 4270 	and.w	r2, r7, #4026531840	; 0xf0000000
    1710:	0964      	lsrs	r4, r4, #5
    1712:	f423 0770 	bic.w	r7, r3, #15728640	; 0xf00000
    1716:	f102 7200 	add.w	r2, r2, #33554432	; 0x2000000
    171a:	f24e 1300 	movw	r3, #57600	; 0xe100
    171e:	f2ce 0300 	movt	r3, #57344	; 0xe000
    1722:	ea4f 1c47 	mov.w	ip, r7, lsl #5
    1726:	3208      	adds	r2, #8
    1728:	f104 0760 	add.w	r7, r4, #96	; 0x60
    172c:	f843 5027 	str.w	r5, [r3, r7, lsl #2]
    1730:	61c1      	str	r1, [r0, #28]
    1732:	f842 600c 	str.w	r6, [r2, ip]
    1736:	f843 5024 	str.w	r5, [r3, r4, lsl #2]
    173a:	e7d6      	b.n	16ea <MSS_UART_set_rxstatus_handler+0x1a>

0000173c <MSS_UART_set_tx_handler>:
    173c:	f640 0314 	movw	r3, #2068	; 0x814
    1740:	f2c2 0300 	movt	r3, #8192	; 0x2000
    1744:	4298      	cmp	r0, r3
    1746:	e92d 01f0 	stmdb	sp!, {r4, r5, r6, r7, r8}
    174a:	d008      	beq.n	175e <MSS_UART_set_tx_handler+0x22>
    174c:	f240 72d4 	movw	r2, #2004	; 0x7d4
    1750:	f2c2 0200 	movt	r2, #8192	; 0x2000
    1754:	4290      	cmp	r0, r2
    1756:	d002      	beq.n	175e <MSS_UART_set_tx_handler+0x22>
    1758:	e8bd 01f0 	ldmia.w	sp!, {r4, r5, r6, r7, r8}
    175c:	4770      	bx	lr
    175e:	2900      	cmp	r1, #0
    1760:	d0fa      	beq.n	1758 <MSS_UART_set_tx_handler+0x1c>
    1762:	f890 c004 	ldrb.w	ip, [r0, #4]
    1766:	2701      	movs	r7, #1
    1768:	f00c 061f 	and.w	r6, ip, #31
    176c:	fa17 f606 	lsls.w	r6, r7, r6
    1770:	6802      	ldr	r2, [r0, #0]
    1772:	fa4f f58c 	sxtb.w	r5, ip
    1776:	1d14      	adds	r4, r2, #4
    1778:	f004 4370 	and.w	r3, r4, #4026531840	; 0xf0000000
    177c:	f024 487f 	bic.w	r8, r4, #4278190080	; 0xff000000
    1780:	f428 0470 	bic.w	r4, r8, #15728640	; 0xf00000
    1784:	096d      	lsrs	r5, r5, #5
    1786:	f103 7200 	add.w	r2, r3, #33554432	; 0x2000000
    178a:	f24e 1300 	movw	r3, #57600	; 0xe100
    178e:	f2ce 0300 	movt	r3, #57344	; 0xe000
    1792:	ea4f 1c44 	mov.w	ip, r4, lsl #5
    1796:	3204      	adds	r2, #4
    1798:	2400      	movs	r4, #0
    179a:	f105 0860 	add.w	r8, r5, #96	; 0x60
    179e:	6144      	str	r4, [r0, #20]
    17a0:	6241      	str	r1, [r0, #36]	; 0x24
    17a2:	f843 6028 	str.w	r6, [r3, r8, lsl #2]
    17a6:	6104      	str	r4, [r0, #16]
    17a8:	f842 700c 	str.w	r7, [r2, ip]
    17ac:	f843 6025 	str.w	r6, [r3, r5, lsl #2]
    17b0:	e7d2      	b.n	1758 <MSS_UART_set_tx_handler+0x1c>
    17b2:	bf00      	nop

000017b4 <MSS_UART_set_modemstatus_handler>:
    17b4:	f640 0314 	movw	r3, #2068	; 0x814
    17b8:	f2c2 0300 	movt	r3, #8192	; 0x2000
    17bc:	4298      	cmp	r0, r3
    17be:	b4f0      	push	{r4, r5, r6, r7}
    17c0:	d007      	beq.n	17d2 <MSS_UART_set_modemstatus_handler+0x1e>
    17c2:	f240 72d4 	movw	r2, #2004	; 0x7d4
    17c6:	f2c2 0200 	movt	r2, #8192	; 0x2000
    17ca:	4290      	cmp	r0, r2
    17cc:	d001      	beq.n	17d2 <MSS_UART_set_modemstatus_handler+0x1e>
    17ce:	bcf0      	pop	{r4, r5, r6, r7}
    17d0:	4770      	bx	lr
    17d2:	2900      	cmp	r1, #0
    17d4:	d0fb      	beq.n	17ce <MSS_UART_set_modemstatus_handler+0x1a>
    17d6:	f890 c004 	ldrb.w	ip, [r0, #4]
    17da:	2601      	movs	r6, #1
    17dc:	f00c 051f 	and.w	r5, ip, #31
    17e0:	fa16 f505 	lsls.w	r5, r6, r5
    17e4:	6803      	ldr	r3, [r0, #0]
    17e6:	fa4f f48c 	sxtb.w	r4, ip
    17ea:	1d1f      	adds	r7, r3, #4
    17ec:	f027 437f 	bic.w	r3, r7, #4278190080	; 0xff000000
    17f0:	f007 4270 	and.w	r2, r7, #4026531840	; 0xf0000000
    17f4:	0964      	lsrs	r4, r4, #5
    17f6:	f423 0770 	bic.w	r7, r3, #15728640	; 0xf00000
    17fa:	f102 7200 	add.w	r2, r2, #33554432	; 0x2000000
    17fe:	f24e 1300 	movw	r3, #57600	; 0xe100
    1802:	f2ce 0300 	movt	r3, #57344	; 0xe000
    1806:	ea4f 1c47 	mov.w	ip, r7, lsl #5
    180a:	320c      	adds	r2, #12
    180c:	f104 0760 	add.w	r7, r4, #96	; 0x60
    1810:	f843 5027 	str.w	r5, [r3, r7, lsl #2]
    1814:	6281      	str	r1, [r0, #40]	; 0x28
    1816:	f842 600c 	str.w	r6, [r2, ip]
    181a:	f843 5024 	str.w	r5, [r3, r4, lsl #2]
    181e:	e7d6      	b.n	17ce <MSS_UART_set_modemstatus_handler+0x1a>

00001820 <MSS_UART_fill_tx_fifo>:
    1820:	f640 0314 	movw	r3, #2068	; 0x814
    1824:	f2c2 0300 	movt	r3, #8192	; 0x2000
    1828:	4298      	cmp	r0, r3
    182a:	b410      	push	{r4}
    182c:	d008      	beq.n	1840 <MSS_UART_fill_tx_fifo+0x20>
    182e:	f240 7cd4 	movw	ip, #2004	; 0x7d4
    1832:	f2c2 0c00 	movt	ip, #8192	; 0x2000
    1836:	4560      	cmp	r0, ip
    1838:	d002      	beq.n	1840 <MSS_UART_fill_tx_fifo+0x20>
    183a:	2000      	movs	r0, #0
    183c:	bc10      	pop	{r4}
    183e:	4770      	bx	lr
    1840:	1e0b      	subs	r3, r1, #0
    1842:	bf18      	it	ne
    1844:	2301      	movne	r3, #1
    1846:	2a00      	cmp	r2, #0
    1848:	bf0c      	ite	eq
    184a:	2300      	moveq	r3, #0
    184c:	f003 0301 	andne.w	r3, r3, #1
    1850:	2b00      	cmp	r3, #0
    1852:	d0f2      	beq.n	183a <MSS_UART_fill_tx_fifo+0x1a>
    1854:	6803      	ldr	r3, [r0, #0]
    1856:	7b44      	ldrb	r4, [r0, #13]
    1858:	f893 c014 	ldrb.w	ip, [r3, #20]
    185c:	ea4c 0404 	orr.w	r4, ip, r4
    1860:	f01c 0f20 	tst.w	ip, #32
    1864:	7344      	strb	r4, [r0, #13]
    1866:	d0e8      	beq.n	183a <MSS_UART_fill_tx_fifo+0x1a>
    1868:	2a0f      	cmp	r2, #15
    186a:	bf88      	it	hi
    186c:	2210      	movhi	r2, #16
    186e:	1e50      	subs	r0, r2, #1
    1870:	f891 c000 	ldrb.w	ip, [r1]
    1874:	f000 0401 	and.w	r4, r0, #1
    1878:	2001      	movs	r0, #1
    187a:	4282      	cmp	r2, r0
    187c:	f883 c000 	strb.w	ip, [r3]
    1880:	d9dc      	bls.n	183c <MSS_UART_fill_tx_fifo+0x1c>
    1882:	b134      	cbz	r4, 1892 <MSS_UART_fill_tx_fifo+0x72>
    1884:	f891 c001 	ldrb.w	ip, [r1, #1]
    1888:	2002      	movs	r0, #2
    188a:	4282      	cmp	r2, r0
    188c:	f883 c000 	strb.w	ip, [r3]
    1890:	d9d4      	bls.n	183c <MSS_UART_fill_tx_fifo+0x1c>
    1892:	f811 c000 	ldrb.w	ip, [r1, r0]
    1896:	3001      	adds	r0, #1
    1898:	f883 c000 	strb.w	ip, [r3]
    189c:	f811 c000 	ldrb.w	ip, [r1, r0]
    18a0:	3001      	adds	r0, #1
    18a2:	4282      	cmp	r2, r0
    18a4:	f883 c000 	strb.w	ip, [r3]
    18a8:	d8f3      	bhi.n	1892 <MSS_UART_fill_tx_fifo+0x72>
    18aa:	e7c7      	b.n	183c <MSS_UART_fill_tx_fifo+0x1c>

000018ac <MSS_UART_get_rx_status>:
    18ac:	f640 0314 	movw	r3, #2068	; 0x814
    18b0:	f2c2 0300 	movt	r3, #8192	; 0x2000
    18b4:	4298      	cmp	r0, r3
    18b6:	d007      	beq.n	18c8 <MSS_UART_get_rx_status+0x1c>
    18b8:	f240 71d4 	movw	r1, #2004	; 0x7d4
    18bc:	f2c2 0100 	movt	r1, #8192	; 0x2000
    18c0:	4288      	cmp	r0, r1
    18c2:	d001      	beq.n	18c8 <MSS_UART_get_rx_status+0x1c>
    18c4:	20ff      	movs	r0, #255	; 0xff
    18c6:	4770      	bx	lr
    18c8:	6802      	ldr	r2, [r0, #0]
    18ca:	7b43      	ldrb	r3, [r0, #13]
    18cc:	7d11      	ldrb	r1, [r2, #20]
    18ce:	2200      	movs	r2, #0
    18d0:	ea41 0c03 	orr.w	ip, r1, r3
    18d4:	7342      	strb	r2, [r0, #13]
    18d6:	f00c 009e 	and.w	r0, ip, #158	; 0x9e
    18da:	4770      	bx	lr

000018dc <MSS_UART_get_modem_status>:
    18dc:	f640 0314 	movw	r3, #2068	; 0x814
    18e0:	f2c2 0300 	movt	r3, #8192	; 0x2000
    18e4:	4298      	cmp	r0, r3
    18e6:	d007      	beq.n	18f8 <MSS_UART_get_modem_status+0x1c>
    18e8:	f240 71d4 	movw	r1, #2004	; 0x7d4
    18ec:	f2c2 0100 	movt	r1, #8192	; 0x2000
    18f0:	4288      	cmp	r0, r1
    18f2:	d001      	beq.n	18f8 <MSS_UART_get_modem_status+0x1c>
    18f4:	20ff      	movs	r0, #255	; 0xff
    18f6:	4770      	bx	lr
    18f8:	6802      	ldr	r2, [r0, #0]
    18fa:	7e10      	ldrb	r0, [r2, #24]
    18fc:	4770      	bx	lr
    18fe:	bf00      	nop

00001900 <MSS_UART_get_tx_status>:
    1900:	f640 0314 	movw	r3, #2068	; 0x814
    1904:	f2c2 0300 	movt	r3, #8192	; 0x2000
    1908:	4298      	cmp	r0, r3
    190a:	d007      	beq.n	191c <MSS_UART_get_tx_status+0x1c>
    190c:	f240 71d4 	movw	r1, #2004	; 0x7d4
    1910:	f2c2 0100 	movt	r1, #8192	; 0x2000
    1914:	4288      	cmp	r0, r1
    1916:	d001      	beq.n	191c <MSS_UART_get_tx_status+0x1c>
    1918:	2000      	movs	r0, #0
    191a:	4770      	bx	lr
    191c:	6803      	ldr	r3, [r0, #0]
    191e:	7b41      	ldrb	r1, [r0, #13]
    1920:	f893 c014 	ldrb.w	ip, [r3, #20]
    1924:	ea4c 0201 	orr.w	r2, ip, r1
    1928:	7342      	strb	r2, [r0, #13]
    192a:	f00c 0060 	and.w	r0, ip, #96	; 0x60
    192e:	4770      	bx	lr

00001930 <MSS_UART_set_break>:
    1930:	f640 0314 	movw	r3, #2068	; 0x814
    1934:	f2c2 0300 	movt	r3, #8192	; 0x2000
    1938:	4298      	cmp	r0, r3
    193a:	d006      	beq.n	194a <MSS_UART_set_break+0x1a>
    193c:	f240 71d4 	movw	r1, #2004	; 0x7d4
    1940:	f2c2 0100 	movt	r1, #8192	; 0x2000
    1944:	4288      	cmp	r0, r1
    1946:	d000      	beq.n	194a <MSS_UART_set_break+0x1a>
    1948:	4770      	bx	lr
    194a:	6802      	ldr	r2, [r0, #0]
    194c:	320c      	adds	r2, #12
    194e:	f002 4070 	and.w	r0, r2, #4026531840	; 0xf0000000
    1952:	f022 4c7f 	bic.w	ip, r2, #4278190080	; 0xff000000
    1956:	f100 7300 	add.w	r3, r0, #33554432	; 0x2000000
    195a:	f42c 0170 	bic.w	r1, ip, #15728640	; 0xf00000
    195e:	3318      	adds	r3, #24
    1960:	014a      	lsls	r2, r1, #5
    1962:	2001      	movs	r0, #1
    1964:	5098      	str	r0, [r3, r2]
    1966:	4770      	bx	lr

00001968 <MSS_UART_clear_break>:
    1968:	f640 0314 	movw	r3, #2068	; 0x814
    196c:	f2c2 0300 	movt	r3, #8192	; 0x2000
    1970:	4298      	cmp	r0, r3
    1972:	d006      	beq.n	1982 <MSS_UART_clear_break+0x1a>
    1974:	f240 71d4 	movw	r1, #2004	; 0x7d4
    1978:	f2c2 0100 	movt	r1, #8192	; 0x2000
    197c:	4288      	cmp	r0, r1
    197e:	d000      	beq.n	1982 <MSS_UART_clear_break+0x1a>
    1980:	4770      	bx	lr
    1982:	6802      	ldr	r2, [r0, #0]
    1984:	320c      	adds	r2, #12
    1986:	f002 4070 	and.w	r0, r2, #4026531840	; 0xf0000000
    198a:	f022 4c7f 	bic.w	ip, r2, #4278190080	; 0xff000000
    198e:	f100 7300 	add.w	r3, r0, #33554432	; 0x2000000
    1992:	f42c 0170 	bic.w	r1, ip, #15728640	; 0xf00000
    1996:	3318      	adds	r3, #24
    1998:	014a      	lsls	r2, r1, #5
    199a:	2000      	movs	r0, #0
    199c:	5098      	str	r0, [r3, r2]
    199e:	4770      	bx	lr

000019a0 <MSS_UART_set_pidpei_handler>:
    19a0:	f640 0314 	movw	r3, #2068	; 0x814
    19a4:	f2c2 0300 	movt	r3, #8192	; 0x2000
    19a8:	4298      	cmp	r0, r3
    19aa:	b4f0      	push	{r4, r5, r6, r7}
    19ac:	d007      	beq.n	19be <MSS_UART_set_pidpei_handler+0x1e>
    19ae:	f240 72d4 	movw	r2, #2004	; 0x7d4
    19b2:	f2c2 0200 	movt	r2, #8192	; 0x2000
    19b6:	4290      	cmp	r0, r2
    19b8:	d001      	beq.n	19be <MSS_UART_set_pidpei_handler+0x1e>
    19ba:	bcf0      	pop	{r4, r5, r6, r7}
    19bc:	4770      	bx	lr
    19be:	2900      	cmp	r1, #0
    19c0:	d0fb      	beq.n	19ba <MSS_UART_set_pidpei_handler+0x1a>
    19c2:	f890 c004 	ldrb.w	ip, [r0, #4]
    19c6:	2601      	movs	r6, #1
    19c8:	f00c 051f 	and.w	r5, ip, #31
    19cc:	fa16 f505 	lsls.w	r5, r6, r5
    19d0:	6807      	ldr	r7, [r0, #0]
    19d2:	fa4f f48c 	sxtb.w	r4, ip
    19d6:	3724      	adds	r7, #36	; 0x24
    19d8:	f027 437f 	bic.w	r3, r7, #4278190080	; 0xff000000
    19dc:	f007 4270 	and.w	r2, r7, #4026531840	; 0xf0000000
    19e0:	0964      	lsrs	r4, r4, #5
    19e2:	f423 0770 	bic.w	r7, r3, #15728640	; 0xf00000
    19e6:	f102 7200 	add.w	r2, r2, #33554432	; 0x2000000
    19ea:	f24e 1300 	movw	r3, #57600	; 0xe100
    19ee:	f2ce 0300 	movt	r3, #57344	; 0xe000
    19f2:	ea4f 1c47 	mov.w	ip, r7, lsl #5
    19f6:	3208      	adds	r2, #8
    19f8:	f104 0760 	add.w	r7, r4, #96	; 0x60
    19fc:	f843 5027 	str.w	r5, [r3, r7, lsl #2]
    1a00:	6341      	str	r1, [r0, #52]	; 0x34
    1a02:	f842 600c 	str.w	r6, [r2, ip]
    1a06:	f843 5024 	str.w	r5, [r3, r4, lsl #2]
    1a0a:	e7d6      	b.n	19ba <MSS_UART_set_pidpei_handler+0x1a>

00001a0c <MSS_UART_set_linbreak_handler>:
    1a0c:	f640 0314 	movw	r3, #2068	; 0x814
    1a10:	f2c2 0300 	movt	r3, #8192	; 0x2000
    1a14:	4298      	cmp	r0, r3
    1a16:	b4f0      	push	{r4, r5, r6, r7}
    1a18:	d007      	beq.n	1a2a <MSS_UART_set_linbreak_handler+0x1e>
    1a1a:	f240 72d4 	movw	r2, #2004	; 0x7d4
    1a1e:	f2c2 0200 	movt	r2, #8192	; 0x2000
    1a22:	4290      	cmp	r0, r2
    1a24:	d001      	beq.n	1a2a <MSS_UART_set_linbreak_handler+0x1e>
    1a26:	bcf0      	pop	{r4, r5, r6, r7}
    1a28:	4770      	bx	lr
    1a2a:	2900      	cmp	r1, #0
    1a2c:	d0fb      	beq.n	1a26 <MSS_UART_set_linbreak_handler+0x1a>
    1a2e:	f890 c004 	ldrb.w	ip, [r0, #4]
    1a32:	2601      	movs	r6, #1
    1a34:	f00c 051f 	and.w	r5, ip, #31
    1a38:	fa16 f505 	lsls.w	r5, r6, r5
    1a3c:	6807      	ldr	r7, [r0, #0]
    1a3e:	fa4f f48c 	sxtb.w	r4, ip
    1a42:	3724      	adds	r7, #36	; 0x24
    1a44:	f027 437f 	bic.w	r3, r7, #4278190080	; 0xff000000
    1a48:	f007 4270 	and.w	r2, r7, #4026531840	; 0xf0000000
    1a4c:	0964      	lsrs	r4, r4, #5
    1a4e:	f423 0770 	bic.w	r7, r3, #15728640	; 0xf00000
    1a52:	f102 7200 	add.w	r2, r2, #33554432	; 0x2000000
    1a56:	f24e 1300 	movw	r3, #57600	; 0xe100
    1a5a:	f2ce 0300 	movt	r3, #57344	; 0xe000
    1a5e:	ea4f 1c47 	mov.w	ip, r7, lsl #5
    1a62:	320c      	adds	r2, #12
    1a64:	f104 0760 	add.w	r7, r4, #96	; 0x60
    1a68:	f843 5027 	str.w	r5, [r3, r7, lsl #2]
    1a6c:	6381      	str	r1, [r0, #56]	; 0x38
    1a6e:	f842 600c 	str.w	r6, [r2, ip]
    1a72:	f843 5024 	str.w	r5, [r3, r4, lsl #2]
    1a76:	e7d6      	b.n	1a26 <MSS_UART_set_linbreak_handler+0x1a>

00001a78 <MSS_UART_set_linsync_handler>:
    1a78:	f640 0314 	movw	r3, #2068	; 0x814
    1a7c:	f2c2 0300 	movt	r3, #8192	; 0x2000
    1a80:	4298      	cmp	r0, r3
    1a82:	b4f0      	push	{r4, r5, r6, r7}
    1a84:	d007      	beq.n	1a96 <MSS_UART_set_linsync_handler+0x1e>
    1a86:	f240 72d4 	movw	r2, #2004	; 0x7d4
    1a8a:	f2c2 0200 	movt	r2, #8192	; 0x2000
    1a8e:	4290      	cmp	r0, r2
    1a90:	d001      	beq.n	1a96 <MSS_UART_set_linsync_handler+0x1e>
    1a92:	bcf0      	pop	{r4, r5, r6, r7}
    1a94:	4770      	bx	lr
    1a96:	2900      	cmp	r1, #0
    1a98:	d0fb      	beq.n	1a92 <MSS_UART_set_linsync_handler+0x1a>
    1a9a:	f890 c004 	ldrb.w	ip, [r0, #4]
    1a9e:	2601      	movs	r6, #1
    1aa0:	f00c 051f 	and.w	r5, ip, #31
    1aa4:	fa16 f505 	lsls.w	r5, r6, r5
    1aa8:	6807      	ldr	r7, [r0, #0]
    1aaa:	fa4f f48c 	sxtb.w	r4, ip
    1aae:	3724      	adds	r7, #36	; 0x24
    1ab0:	f027 437f 	bic.w	r3, r7, #4278190080	; 0xff000000
    1ab4:	f007 4270 	and.w	r2, r7, #4026531840	; 0xf0000000
    1ab8:	0964      	lsrs	r4, r4, #5
    1aba:	f423 0770 	bic.w	r7, r3, #15728640	; 0xf00000
    1abe:	f102 7200 	add.w	r2, r2, #33554432	; 0x2000000
    1ac2:	f24e 1300 	movw	r3, #57600	; 0xe100
    1ac6:	f2ce 0300 	movt	r3, #57344	; 0xe000
    1aca:	ea4f 1c47 	mov.w	ip, r7, lsl #5
    1ace:	3210      	adds	r2, #16
    1ad0:	f104 0760 	add.w	r7, r4, #96	; 0x60
    1ad4:	f843 5027 	str.w	r5, [r3, r7, lsl #2]
    1ad8:	63c1      	str	r1, [r0, #60]	; 0x3c
    1ada:	f842 600c 	str.w	r6, [r2, ip]
    1ade:	f843 5024 	str.w	r5, [r3, r4, lsl #2]
    1ae2:	e7d6      	b.n	1a92 <MSS_UART_set_linsync_handler+0x1a>

00001ae4 <MSS_UART_set_nack_handler>:
    1ae4:	f640 0314 	movw	r3, #2068	; 0x814
    1ae8:	f2c2 0300 	movt	r3, #8192	; 0x2000
    1aec:	4298      	cmp	r0, r3
    1aee:	b4f0      	push	{r4, r5, r6, r7}
    1af0:	d007      	beq.n	1b02 <MSS_UART_set_nack_handler+0x1e>
    1af2:	f240 72d4 	movw	r2, #2004	; 0x7d4
    1af6:	f2c2 0200 	movt	r2, #8192	; 0x2000
    1afa:	4290      	cmp	r0, r2
    1afc:	d001      	beq.n	1b02 <MSS_UART_set_nack_handler+0x1e>
    1afe:	bcf0      	pop	{r4, r5, r6, r7}
    1b00:	4770      	bx	lr
    1b02:	2900      	cmp	r1, #0
    1b04:	d0fb      	beq.n	1afe <MSS_UART_set_nack_handler+0x1a>
    1b06:	7902      	ldrb	r2, [r0, #4]
    1b08:	2601      	movs	r6, #1
    1b0a:	f002 051f 	and.w	r5, r2, #31
    1b0e:	fa16 f505 	lsls.w	r5, r6, r5
    1b12:	6807      	ldr	r7, [r0, #0]
    1b14:	b254      	sxtb	r4, r2
    1b16:	3724      	adds	r7, #36	; 0x24
    1b18:	f007 4c70 	and.w	ip, r7, #4026531840	; 0xf0000000
    1b1c:	f027 437f 	bic.w	r3, r7, #4278190080	; 0xff000000
    1b20:	f423 0770 	bic.w	r7, r3, #15728640	; 0xf00000
    1b24:	0964      	lsrs	r4, r4, #5
    1b26:	f10c 7200 	add.w	r2, ip, #33554432	; 0x2000000
    1b2a:	f24e 1300 	movw	r3, #57600	; 0xe100
    1b2e:	f2ce 0300 	movt	r3, #57344	; 0xe000
    1b32:	ea4f 1c47 	mov.w	ip, r7, lsl #5
    1b36:	3204      	adds	r2, #4
    1b38:	f104 0760 	add.w	r7, r4, #96	; 0x60
    1b3c:	f843 5027 	str.w	r5, [r3, r7, lsl #2]
    1b40:	6301      	str	r1, [r0, #48]	; 0x30
    1b42:	f842 600c 	str.w	r6, [r2, ip]
    1b46:	f843 5024 	str.w	r5, [r3, r4, lsl #2]
    1b4a:	e7d8      	b.n	1afe <MSS_UART_set_nack_handler+0x1a>

00001b4c <MSS_UART_set_rx_timeout_handler>:
    1b4c:	f640 0314 	movw	r3, #2068	; 0x814
    1b50:	f2c2 0300 	movt	r3, #8192	; 0x2000
    1b54:	4298      	cmp	r0, r3
    1b56:	b4f0      	push	{r4, r5, r6, r7}
    1b58:	d007      	beq.n	1b6a <MSS_UART_set_rx_timeout_handler+0x1e>
    1b5a:	f240 72d4 	movw	r2, #2004	; 0x7d4
    1b5e:	f2c2 0200 	movt	r2, #8192	; 0x2000
    1b62:	4290      	cmp	r0, r2
    1b64:	d001      	beq.n	1b6a <MSS_UART_set_rx_timeout_handler+0x1e>
    1b66:	bcf0      	pop	{r4, r5, r6, r7}
    1b68:	4770      	bx	lr
    1b6a:	2900      	cmp	r1, #0
    1b6c:	d0fb      	beq.n	1b66 <MSS_UART_set_rx_timeout_handler+0x1a>
    1b6e:	7902      	ldrb	r2, [r0, #4]
    1b70:	2501      	movs	r5, #1
    1b72:	f002 041f 	and.w	r4, r2, #31
    1b76:	fa15 f404 	lsls.w	r4, r5, r4
    1b7a:	6806      	ldr	r6, [r0, #0]
    1b7c:	fa4f fc82 	sxtb.w	ip, r2
    1b80:	3624      	adds	r6, #36	; 0x24
    1b82:	f026 437f 	bic.w	r3, r6, #4278190080	; 0xff000000
    1b86:	f423 0770 	bic.w	r7, r3, #15728640	; 0xf00000
    1b8a:	ea4f 1c5c 	mov.w	ip, ip, lsr #5
    1b8e:	f24e 1300 	movw	r3, #57600	; 0xe100
    1b92:	f006 4670 	and.w	r6, r6, #4026531840	; 0xf0000000
    1b96:	f2ce 0300 	movt	r3, #57344	; 0xe000
    1b9a:	017a      	lsls	r2, r7, #5
    1b9c:	f106 7600 	add.w	r6, r6, #33554432	; 0x2000000
    1ba0:	f10c 0760 	add.w	r7, ip, #96	; 0x60
    1ba4:	f843 4027 	str.w	r4, [r3, r7, lsl #2]
    1ba8:	62c1      	str	r1, [r0, #44]	; 0x2c
    1baa:	50b5      	str	r5, [r6, r2]
    1bac:	f843 402c 	str.w	r4, [r3, ip, lsl #2]
    1bb0:	e7d9      	b.n	1b66 <MSS_UART_set_rx_timeout_handler+0x1a>
    1bb2:	bf00      	nop

00001bb4 <MSS_UART_enable_half_duplex>:
    1bb4:	f640 0314 	movw	r3, #2068	; 0x814
    1bb8:	f2c2 0300 	movt	r3, #8192	; 0x2000
    1bbc:	4298      	cmp	r0, r3
    1bbe:	d006      	beq.n	1bce <MSS_UART_enable_half_duplex+0x1a>
    1bc0:	f240 71d4 	movw	r1, #2004	; 0x7d4
    1bc4:	f2c2 0100 	movt	r1, #8192	; 0x2000
    1bc8:	4288      	cmp	r0, r1
    1bca:	d000      	beq.n	1bce <MSS_UART_enable_half_duplex+0x1a>
    1bcc:	4770      	bx	lr
    1bce:	6802      	ldr	r2, [r0, #0]
    1bd0:	3238      	adds	r2, #56	; 0x38
    1bd2:	f002 4070 	and.w	r0, r2, #4026531840	; 0xf0000000
    1bd6:	f022 4c7f 	bic.w	ip, r2, #4278190080	; 0xff000000
    1bda:	f100 7300 	add.w	r3, r0, #33554432	; 0x2000000
    1bde:	f42c 0170 	bic.w	r1, ip, #15728640	; 0xf00000
    1be2:	330c      	adds	r3, #12
    1be4:	014a      	lsls	r2, r1, #5
    1be6:	2001      	movs	r0, #1
    1be8:	5098      	str	r0, [r3, r2]
    1bea:	4770      	bx	lr

00001bec <MSS_UART_disable_half_duplex>:
    1bec:	f640 0314 	movw	r3, #2068	; 0x814
    1bf0:	f2c2 0300 	movt	r3, #8192	; 0x2000
    1bf4:	4298      	cmp	r0, r3
    1bf6:	d006      	beq.n	1c06 <MSS_UART_disable_half_duplex+0x1a>
    1bf8:	f240 71d4 	movw	r1, #2004	; 0x7d4
    1bfc:	f2c2 0100 	movt	r1, #8192	; 0x2000
    1c00:	4288      	cmp	r0, r1
    1c02:	d000      	beq.n	1c06 <MSS_UART_disable_half_duplex+0x1a>
    1c04:	4770      	bx	lr
    1c06:	6802      	ldr	r2, [r0, #0]
    1c08:	3238      	adds	r2, #56	; 0x38
    1c0a:	f002 4070 	and.w	r0, r2, #4026531840	; 0xf0000000
    1c0e:	f022 4c7f 	bic.w	ip, r2, #4278190080	; 0xff000000
    1c12:	f100 7300 	add.w	r3, r0, #33554432	; 0x2000000
    1c16:	f42c 0170 	bic.w	r1, ip, #15728640	; 0xf00000
    1c1a:	330c      	adds	r3, #12
    1c1c:	014a      	lsls	r2, r1, #5
    1c1e:	2000      	movs	r0, #0
    1c20:	5098      	str	r0, [r3, r2]
    1c22:	4770      	bx	lr

00001c24 <MSS_UART_set_rx_endian>:
    1c24:	f640 0314 	movw	r3, #2068	; 0x814
    1c28:	f2c2 0300 	movt	r3, #8192	; 0x2000
    1c2c:	4298      	cmp	r0, r3
    1c2e:	d006      	beq.n	1c3e <MSS_UART_set_rx_endian+0x1a>
    1c30:	f240 72d4 	movw	r2, #2004	; 0x7d4
    1c34:	f2c2 0200 	movt	r2, #8192	; 0x2000
    1c38:	4290      	cmp	r0, r2
    1c3a:	d000      	beq.n	1c3e <MSS_UART_set_rx_endian+0x1a>
    1c3c:	4770      	bx	lr
    1c3e:	2901      	cmp	r1, #1
    1c40:	d8fc      	bhi.n	1c3c <MSS_UART_set_rx_endian+0x18>
    1c42:	b171      	cbz	r1, 1c62 <MSS_UART_set_rx_endian+0x3e>
    1c44:	6801      	ldr	r1, [r0, #0]
    1c46:	3134      	adds	r1, #52	; 0x34
    1c48:	f021 4c7f 	bic.w	ip, r1, #4278190080	; 0xff000000
    1c4c:	f42c 0070 	bic.w	r0, ip, #15728640	; 0xf00000
    1c50:	f001 4270 	and.w	r2, r1, #4026531840	; 0xf0000000
    1c54:	f102 7c00 	add.w	ip, r2, #33554432	; 0x2000000
    1c58:	0143      	lsls	r3, r0, #5
    1c5a:	2101      	movs	r1, #1
    1c5c:	f84c 1003 	str.w	r1, [ip, r3]
    1c60:	e7ec      	b.n	1c3c <MSS_UART_set_rx_endian+0x18>
    1c62:	6802      	ldr	r2, [r0, #0]
    1c64:	3234      	adds	r2, #52	; 0x34
    1c66:	f022 407f 	bic.w	r0, r2, #4278190080	; 0xff000000
    1c6a:	f420 0370 	bic.w	r3, r0, #15728640	; 0xf00000
    1c6e:	f002 4c70 	and.w	ip, r2, #4026531840	; 0xf0000000
    1c72:	f10c 7000 	add.w	r0, ip, #33554432	; 0x2000000
    1c76:	015b      	lsls	r3, r3, #5
    1c78:	50c1      	str	r1, [r0, r3]
    1c7a:	4770      	bx	lr

00001c7c <MSS_UART_set_tx_endian>:
    1c7c:	f640 0314 	movw	r3, #2068	; 0x814
    1c80:	f2c2 0300 	movt	r3, #8192	; 0x2000
    1c84:	4298      	cmp	r0, r3
    1c86:	d006      	beq.n	1c96 <MSS_UART_set_tx_endian+0x1a>
    1c88:	f240 72d4 	movw	r2, #2004	; 0x7d4
    1c8c:	f2c2 0200 	movt	r2, #8192	; 0x2000
    1c90:	4290      	cmp	r0, r2
    1c92:	d000      	beq.n	1c96 <MSS_UART_set_tx_endian+0x1a>
    1c94:	4770      	bx	lr
    1c96:	2901      	cmp	r1, #1
    1c98:	d8fc      	bhi.n	1c94 <MSS_UART_set_tx_endian+0x18>
    1c9a:	b171      	cbz	r1, 1cba <MSS_UART_set_tx_endian+0x3e>
    1c9c:	6803      	ldr	r3, [r0, #0]
    1c9e:	3334      	adds	r3, #52	; 0x34
    1ca0:	f003 4070 	and.w	r0, r3, #4026531840	; 0xf0000000
    1ca4:	f023 4c7f 	bic.w	ip, r3, #4278190080	; 0xff000000
    1ca8:	f100 7100 	add.w	r1, r0, #33554432	; 0x2000000
    1cac:	f42c 0270 	bic.w	r2, ip, #15728640	; 0xf00000
    1cb0:	1d0b      	adds	r3, r1, #4
    1cb2:	0150      	lsls	r0, r2, #5
    1cb4:	2101      	movs	r1, #1
    1cb6:	5019      	str	r1, [r3, r0]
    1cb8:	e7ec      	b.n	1c94 <MSS_UART_set_tx_endian+0x18>
    1cba:	6802      	ldr	r2, [r0, #0]
    1cbc:	3234      	adds	r2, #52	; 0x34
    1cbe:	f002 4370 	and.w	r3, r2, #4026531840	; 0xf0000000
    1cc2:	f022 4c7f 	bic.w	ip, r2, #4278190080	; 0xff000000
    1cc6:	f103 7000 	add.w	r0, r3, #33554432	; 0x2000000
    1cca:	f42c 0270 	bic.w	r2, ip, #15728640	; 0xf00000
    1cce:	1d03      	adds	r3, r0, #4
    1cd0:	0150      	lsls	r0, r2, #5
    1cd2:	5019      	str	r1, [r3, r0]
    1cd4:	4770      	bx	lr
    1cd6:	bf00      	nop

00001cd8 <MSS_UART_set_filter_length>:
    1cd8:	f640 0314 	movw	r3, #2068	; 0x814
    1cdc:	f2c2 0300 	movt	r3, #8192	; 0x2000
    1ce0:	4298      	cmp	r0, r3
    1ce2:	d006      	beq.n	1cf2 <MSS_UART_set_filter_length+0x1a>
    1ce4:	f240 73d4 	movw	r3, #2004	; 0x7d4
    1ce8:	f2c2 0300 	movt	r3, #8192	; 0x2000
    1cec:	4298      	cmp	r0, r3
    1cee:	d000      	beq.n	1cf2 <MSS_UART_set_filter_length+0x1a>
    1cf0:	4770      	bx	lr
    1cf2:	2907      	cmp	r1, #7
    1cf4:	bf9c      	itt	ls
    1cf6:	6803      	ldrls	r3, [r0, #0]
    1cf8:	f883 1044 	strbls.w	r1, [r3, #68]	; 0x44
    1cfc:	4770      	bx	lr
    1cfe:	bf00      	nop

00001d00 <MSS_UART_enable_afm>:
    1d00:	f640 0314 	movw	r3, #2068	; 0x814
    1d04:	f2c2 0300 	movt	r3, #8192	; 0x2000
    1d08:	4298      	cmp	r0, r3
    1d0a:	d006      	beq.n	1d1a <MSS_UART_enable_afm+0x1a>
    1d0c:	f240 71d4 	movw	r1, #2004	; 0x7d4
    1d10:	f2c2 0100 	movt	r1, #8192	; 0x2000
    1d14:	4288      	cmp	r0, r1
    1d16:	d000      	beq.n	1d1a <MSS_UART_enable_afm+0x1a>
    1d18:	4770      	bx	lr
    1d1a:	6803      	ldr	r3, [r0, #0]
    1d1c:	3338      	adds	r3, #56	; 0x38
    1d1e:	f003 4270 	and.w	r2, r3, #4026531840	; 0xf0000000
    1d22:	f023 4c7f 	bic.w	ip, r3, #4278190080	; 0xff000000
    1d26:	f102 7000 	add.w	r0, r2, #33554432	; 0x2000000
    1d2a:	f42c 0170 	bic.w	r1, ip, #15728640	; 0xf00000
    1d2e:	1d03      	adds	r3, r0, #4
    1d30:	014a      	lsls	r2, r1, #5
    1d32:	2001      	movs	r0, #1
    1d34:	5098      	str	r0, [r3, r2]
    1d36:	4770      	bx	lr

00001d38 <MSS_UART_disable_afm>:
    1d38:	f640 0314 	movw	r3, #2068	; 0x814
    1d3c:	f2c2 0300 	movt	r3, #8192	; 0x2000
    1d40:	4298      	cmp	r0, r3
    1d42:	d006      	beq.n	1d52 <MSS_UART_disable_afm+0x1a>
    1d44:	f240 71d4 	movw	r1, #2004	; 0x7d4
    1d48:	f2c2 0100 	movt	r1, #8192	; 0x2000
    1d4c:	4288      	cmp	r0, r1
    1d4e:	d000      	beq.n	1d52 <MSS_UART_disable_afm+0x1a>
    1d50:	4770      	bx	lr
    1d52:	6803      	ldr	r3, [r0, #0]
    1d54:	3338      	adds	r3, #56	; 0x38
    1d56:	f003 4270 	and.w	r2, r3, #4026531840	; 0xf0000000
    1d5a:	f023 4c7f 	bic.w	ip, r3, #4278190080	; 0xff000000
    1d5e:	f102 7000 	add.w	r0, r2, #33554432	; 0x2000000
    1d62:	f42c 0170 	bic.w	r1, ip, #15728640	; 0xf00000
    1d66:	1d03      	adds	r3, r0, #4
    1d68:	014a      	lsls	r2, r1, #5
    1d6a:	2000      	movs	r0, #0
    1d6c:	5098      	str	r0, [r3, r2]
    1d6e:	4770      	bx	lr

00001d70 <MSS_UART_enable_afclear>:
    1d70:	f640 0314 	movw	r3, #2068	; 0x814
    1d74:	f2c2 0300 	movt	r3, #8192	; 0x2000
    1d78:	4298      	cmp	r0, r3
    1d7a:	d006      	beq.n	1d8a <MSS_UART_enable_afclear+0x1a>
    1d7c:	f240 71d4 	movw	r1, #2004	; 0x7d4
    1d80:	f2c2 0100 	movt	r1, #8192	; 0x2000
    1d84:	4288      	cmp	r0, r1
    1d86:	d000      	beq.n	1d8a <MSS_UART_enable_afclear+0x1a>
    1d88:	4770      	bx	lr
    1d8a:	6802      	ldr	r2, [r0, #0]
    1d8c:	3238      	adds	r2, #56	; 0x38
    1d8e:	f002 4070 	and.w	r0, r2, #4026531840	; 0xf0000000
    1d92:	f022 4c7f 	bic.w	ip, r2, #4278190080	; 0xff000000
    1d96:	f100 7300 	add.w	r3, r0, #33554432	; 0x2000000
    1d9a:	f42c 0170 	bic.w	r1, ip, #15728640	; 0xf00000
    1d9e:	3308      	adds	r3, #8
    1da0:	014a      	lsls	r2, r1, #5
    1da2:	2001      	movs	r0, #1
    1da4:	5098      	str	r0, [r3, r2]
    1da6:	4770      	bx	lr

00001da8 <MSS_UART_disable_afclear>:
    1da8:	f640 0314 	movw	r3, #2068	; 0x814
    1dac:	f2c2 0300 	movt	r3, #8192	; 0x2000
    1db0:	4298      	cmp	r0, r3
    1db2:	d006      	beq.n	1dc2 <MSS_UART_disable_afclear+0x1a>
    1db4:	f240 71d4 	movw	r1, #2004	; 0x7d4
    1db8:	f2c2 0100 	movt	r1, #8192	; 0x2000
    1dbc:	4288      	cmp	r0, r1
    1dbe:	d000      	beq.n	1dc2 <MSS_UART_disable_afclear+0x1a>
    1dc0:	4770      	bx	lr
    1dc2:	6802      	ldr	r2, [r0, #0]
    1dc4:	3238      	adds	r2, #56	; 0x38
    1dc6:	f002 4070 	and.w	r0, r2, #4026531840	; 0xf0000000
    1dca:	f022 4c7f 	bic.w	ip, r2, #4278190080	; 0xff000000
    1dce:	f100 7300 	add.w	r3, r0, #33554432	; 0x2000000
    1dd2:	f42c 0170 	bic.w	r1, ip, #15728640	; 0xf00000
    1dd6:	3308      	adds	r3, #8
    1dd8:	014a      	lsls	r2, r1, #5
    1dda:	2000      	movs	r0, #0
    1ddc:	5098      	str	r0, [r3, r2]
    1dde:	4770      	bx	lr

00001de0 <MSS_UART_enable_rx_timeout>:
    1de0:	f640 0314 	movw	r3, #2068	; 0x814
    1de4:	f2c2 0300 	movt	r3, #8192	; 0x2000
    1de8:	4298      	cmp	r0, r3
    1dea:	d006      	beq.n	1dfa <MSS_UART_enable_rx_timeout+0x1a>
    1dec:	f240 72d4 	movw	r2, #2004	; 0x7d4
    1df0:	f2c2 0200 	movt	r2, #8192	; 0x2000
    1df4:	4290      	cmp	r0, r2
    1df6:	d000      	beq.n	1dfa <MSS_UART_enable_rx_timeout+0x1a>
    1df8:	4770      	bx	lr
    1dfa:	6800      	ldr	r0, [r0, #0]
    1dfc:	f100 0230 	add.w	r2, r0, #48	; 0x30
    1e00:	f002 4370 	and.w	r3, r2, #4026531840	; 0xf0000000
    1e04:	f022 4c7f 	bic.w	ip, r2, #4278190080	; 0xff000000
    1e08:	f103 7300 	add.w	r3, r3, #33554432	; 0x2000000
    1e0c:	f42c 0270 	bic.w	r2, ip, #15728640	; 0xf00000
    1e10:	f880 104c 	strb.w	r1, [r0, #76]	; 0x4c
    1e14:	3318      	adds	r3, #24
    1e16:	0152      	lsls	r2, r2, #5
    1e18:	2101      	movs	r1, #1
    1e1a:	5099      	str	r1, [r3, r2]
    1e1c:	4770      	bx	lr
    1e1e:	bf00      	nop

00001e20 <MSS_UART_disable_rx_timeout>:
    1e20:	f640 0314 	movw	r3, #2068	; 0x814
    1e24:	f2c2 0300 	movt	r3, #8192	; 0x2000
    1e28:	4298      	cmp	r0, r3
    1e2a:	d006      	beq.n	1e3a <MSS_UART_disable_rx_timeout+0x1a>
    1e2c:	f240 71d4 	movw	r1, #2004	; 0x7d4
    1e30:	f2c2 0100 	movt	r1, #8192	; 0x2000
    1e34:	4288      	cmp	r0, r1
    1e36:	d000      	beq.n	1e3a <MSS_UART_disable_rx_timeout+0x1a>
    1e38:	4770      	bx	lr
    1e3a:	6802      	ldr	r2, [r0, #0]
    1e3c:	3230      	adds	r2, #48	; 0x30
    1e3e:	f002 4070 	and.w	r0, r2, #4026531840	; 0xf0000000
    1e42:	f022 4c7f 	bic.w	ip, r2, #4278190080	; 0xff000000
    1e46:	f100 7300 	add.w	r3, r0, #33554432	; 0x2000000
    1e4a:	f42c 0170 	bic.w	r1, ip, #15728640	; 0xf00000
    1e4e:	3318      	adds	r3, #24
    1e50:	014a      	lsls	r2, r1, #5
    1e52:	2000      	movs	r0, #0
    1e54:	5098      	str	r0, [r3, r2]
    1e56:	4770      	bx	lr

00001e58 <MSS_UART_enable_tx_time_guard>:
    1e58:	f640 0314 	movw	r3, #2068	; 0x814
    1e5c:	f2c2 0300 	movt	r3, #8192	; 0x2000
    1e60:	4298      	cmp	r0, r3
    1e62:	d006      	beq.n	1e72 <MSS_UART_enable_tx_time_guard+0x1a>
    1e64:	f240 72d4 	movw	r2, #2004	; 0x7d4
    1e68:	f2c2 0200 	movt	r2, #8192	; 0x2000
    1e6c:	4290      	cmp	r0, r2
    1e6e:	d000      	beq.n	1e72 <MSS_UART_enable_tx_time_guard+0x1a>
    1e70:	4770      	bx	lr
    1e72:	6800      	ldr	r0, [r0, #0]
    1e74:	f100 0230 	add.w	r2, r0, #48	; 0x30
    1e78:	f002 4370 	and.w	r3, r2, #4026531840	; 0xf0000000
    1e7c:	f022 4c7f 	bic.w	ip, r2, #4278190080	; 0xff000000
    1e80:	f103 7300 	add.w	r3, r3, #33554432	; 0x2000000
    1e84:	f42c 0270 	bic.w	r2, ip, #15728640	; 0xf00000
    1e88:	f880 1048 	strb.w	r1, [r0, #72]	; 0x48
    1e8c:	3314      	adds	r3, #20
    1e8e:	0152      	lsls	r2, r2, #5
    1e90:	2101      	movs	r1, #1
    1e92:	5099      	str	r1, [r3, r2]
    1e94:	4770      	bx	lr
    1e96:	bf00      	nop

00001e98 <MSS_UART_disable_tx_time_guard>:
    1e98:	f640 0314 	movw	r3, #2068	; 0x814
    1e9c:	f2c2 0300 	movt	r3, #8192	; 0x2000
    1ea0:	4298      	cmp	r0, r3
    1ea2:	d006      	beq.n	1eb2 <MSS_UART_disable_tx_time_guard+0x1a>
    1ea4:	f240 71d4 	movw	r1, #2004	; 0x7d4
    1ea8:	f2c2 0100 	movt	r1, #8192	; 0x2000
    1eac:	4288      	cmp	r0, r1
    1eae:	d000      	beq.n	1eb2 <MSS_UART_disable_tx_time_guard+0x1a>
    1eb0:	4770      	bx	lr
    1eb2:	6802      	ldr	r2, [r0, #0]
    1eb4:	3230      	adds	r2, #48	; 0x30
    1eb6:	f002 4070 	and.w	r0, r2, #4026531840	; 0xf0000000
    1eba:	f022 4c7f 	bic.w	ip, r2, #4278190080	; 0xff000000
    1ebe:	f100 7300 	add.w	r3, r0, #33554432	; 0x2000000
    1ec2:	f42c 0170 	bic.w	r1, ip, #15728640	; 0xf00000
    1ec6:	3314      	adds	r3, #20
    1ec8:	014a      	lsls	r2, r1, #5
    1eca:	2000      	movs	r0, #0
    1ecc:	5098      	str	r0, [r3, r2]
    1ece:	4770      	bx	lr

00001ed0 <MSS_UART_set_address>:
    1ed0:	f640 0314 	movw	r3, #2068	; 0x814
    1ed4:	f2c2 0300 	movt	r3, #8192	; 0x2000
    1ed8:	4298      	cmp	r0, r3
    1eda:	d006      	beq.n	1eea <MSS_UART_set_address+0x1a>
    1edc:	f240 72d4 	movw	r2, #2004	; 0x7d4
    1ee0:	f2c2 0200 	movt	r2, #8192	; 0x2000
    1ee4:	4290      	cmp	r0, r2
    1ee6:	d000      	beq.n	1eea <MSS_UART_set_address+0x1a>
    1ee8:	4770      	bx	lr
    1eea:	6803      	ldr	r3, [r0, #0]
    1eec:	f883 1050 	strb.w	r1, [r3, #80]	; 0x50
    1ef0:	4770      	bx	lr
    1ef2:	bf00      	nop

00001ef4 <MSS_UART_set_ready_mode>:
    1ef4:	f640 0314 	movw	r3, #2068	; 0x814
    1ef8:	f2c2 0300 	movt	r3, #8192	; 0x2000
    1efc:	4298      	cmp	r0, r3
    1efe:	d006      	beq.n	1f0e <MSS_UART_set_ready_mode+0x1a>
    1f00:	f240 72d4 	movw	r2, #2004	; 0x7d4
    1f04:	f2c2 0200 	movt	r2, #8192	; 0x2000
    1f08:	4290      	cmp	r0, r2
    1f0a:	d000      	beq.n	1f0e <MSS_UART_set_ready_mode+0x1a>
    1f0c:	4770      	bx	lr
    1f0e:	2901      	cmp	r1, #1
    1f10:	d8fc      	bhi.n	1f0c <MSS_UART_set_ready_mode+0x18>
    1f12:	b171      	cbz	r1, 1f32 <MSS_UART_set_ready_mode+0x3e>
    1f14:	6802      	ldr	r2, [r0, #0]
    1f16:	3208      	adds	r2, #8
    1f18:	f022 4c7f 	bic.w	ip, r2, #4278190080	; 0xff000000
    1f1c:	f002 4370 	and.w	r3, r2, #4026531840	; 0xf0000000
    1f20:	f42c 0170 	bic.w	r1, ip, #15728640	; 0xf00000
    1f24:	f103 7000 	add.w	r0, r3, #33554432	; 0x2000000
    1f28:	014a      	lsls	r2, r1, #5
    1f2a:	300c      	adds	r0, #12
    1f2c:	2101      	movs	r1, #1
    1f2e:	5081      	str	r1, [r0, r2]
    1f30:	e7ec      	b.n	1f0c <MSS_UART_set_ready_mode+0x18>
    1f32:	6803      	ldr	r3, [r0, #0]
    1f34:	3308      	adds	r3, #8
    1f36:	f023 4c7f 	bic.w	ip, r3, #4278190080	; 0xff000000
    1f3a:	f003 4070 	and.w	r0, r3, #4026531840	; 0xf0000000
    1f3e:	f100 7300 	add.w	r3, r0, #33554432	; 0x2000000
    1f42:	f42c 0270 	bic.w	r2, ip, #15728640	; 0xf00000
    1f46:	330c      	adds	r3, #12
    1f48:	0150      	lsls	r0, r2, #5
    1f4a:	5019      	str	r1, [r3, r0]
    1f4c:	4770      	bx	lr
    1f4e:	bf00      	nop

00001f50 <MSS_UART_set_usart_mode>:
    1f50:	f640 0314 	movw	r3, #2068	; 0x814
    1f54:	f2c2 0300 	movt	r3, #8192	; 0x2000
    1f58:	4298      	cmp	r0, r3
    1f5a:	d006      	beq.n	1f6a <MSS_UART_set_usart_mode+0x1a>
    1f5c:	f240 72d4 	movw	r2, #2004	; 0x7d4
    1f60:	f2c2 0200 	movt	r2, #8192	; 0x2000
    1f64:	4290      	cmp	r0, r2
    1f66:	d000      	beq.n	1f6a <MSS_UART_set_usart_mode+0x1a>
    1f68:	4770      	bx	lr
    1f6a:	2904      	cmp	r1, #4
    1f6c:	d8fc      	bhi.n	1f68 <MSS_UART_set_usart_mode+0x18>
    1f6e:	6803      	ldr	r3, [r0, #0]
    1f70:	f893 2030 	ldrb.w	r2, [r3, #48]	; 0x30
    1f74:	f002 0cf8 	and.w	ip, r2, #248	; 0xf8
    1f78:	f883 c030 	strb.w	ip, [r3, #48]	; 0x30
    1f7c:	f893 0030 	ldrb.w	r0, [r3, #48]	; 0x30
    1f80:	4301      	orrs	r1, r0
    1f82:	f883 1030 	strb.w	r1, [r3, #48]	; 0x30
    1f86:	4770      	bx	lr

00001f88 <MSS_UART_isr>:
    1f88:	f640 0314 	movw	r3, #2068	; 0x814
    1f8c:	f2c2 0300 	movt	r3, #8192	; 0x2000
    1f90:	4298      	cmp	r0, r3
    1f92:	b510      	push	{r4, lr}
    1f94:	4604      	mov	r4, r0
    1f96:	d006      	beq.n	1fa6 <MSS_UART_isr+0x1e>
    1f98:	f240 70d4 	movw	r0, #2004	; 0x7d4
    1f9c:	f2c2 0000 	movt	r0, #8192	; 0x2000
    1fa0:	4284      	cmp	r4, r0
    1fa2:	d000      	beq.n	1fa6 <MSS_UART_isr+0x1e>
    1fa4:	bd10      	pop	{r4, pc}
    1fa6:	6822      	ldr	r2, [r4, #0]
    1fa8:	7a11      	ldrb	r1, [r2, #8]
    1faa:	f001 0c0f 	and.w	ip, r1, #15
    1fae:	f1bc 0f0c 	cmp.w	ip, #12
    1fb2:	d8f7      	bhi.n	1fa4 <MSS_UART_isr+0x1c>
    1fb4:	a101      	add	r1, pc, #4	; (adr r1, 1fbc <MSS_UART_isr+0x34>)
    1fb6:	f851 f02c 	ldr.w	pc, [r1, ip, lsl #2]
    1fba:	bf00      	nop
    1fbc:	0000200d 	.word	0x0000200d
    1fc0:	00001fa5 	.word	0x00001fa5
    1fc4:	00002005 	.word	0x00002005
    1fc8:	00002015 	.word	0x00002015
    1fcc:	00001ffd 	.word	0x00001ffd
    1fd0:	00001fa5 	.word	0x00001fa5
    1fd4:	00001ff1 	.word	0x00001ff1
    1fd8:	00001fa5 	.word	0x00001fa5
    1fdc:	00001fa5 	.word	0x00001fa5
    1fe0:	00001fa5 	.word	0x00001fa5
    1fe4:	00001fa5 	.word	0x00001fa5
    1fe8:	00001fa5 	.word	0x00001fa5
    1fec:	00001ffd 	.word	0x00001ffd
    1ff0:	69e3      	ldr	r3, [r4, #28]
    1ff2:	2b00      	cmp	r3, #0
    1ff4:	d0d6      	beq.n	1fa4 <MSS_UART_isr+0x1c>
    1ff6:	4620      	mov	r0, r4
    1ff8:	4798      	blx	r3
    1ffa:	bd10      	pop	{r4, pc}
    1ffc:	6a23      	ldr	r3, [r4, #32]
    1ffe:	2b00      	cmp	r3, #0
    2000:	d1f9      	bne.n	1ff6 <MSS_UART_isr+0x6e>
    2002:	e7cf      	b.n	1fa4 <MSS_UART_isr+0x1c>
    2004:	6a63      	ldr	r3, [r4, #36]	; 0x24
    2006:	2b00      	cmp	r3, #0
    2008:	d1f5      	bne.n	1ff6 <MSS_UART_isr+0x6e>
    200a:	e7cb      	b.n	1fa4 <MSS_UART_isr+0x1c>
    200c:	6aa3      	ldr	r3, [r4, #40]	; 0x28
    200e:	2b00      	cmp	r3, #0
    2010:	d1f1      	bne.n	1ff6 <MSS_UART_isr+0x6e>
    2012:	e7c7      	b.n	1fa4 <MSS_UART_isr+0x1c>
    2014:	3228      	adds	r2, #40	; 0x28
    2016:	f022 407f 	bic.w	r0, r2, #4278190080	; 0xff000000
    201a:	f420 0370 	bic.w	r3, r0, #15728640	; 0xf00000
    201e:	f002 4170 	and.w	r1, r2, #4026531840	; 0xf0000000
    2022:	0158      	lsls	r0, r3, #5
    2024:	f101 7c00 	add.w	ip, r1, #33554432	; 0x2000000
    2028:	f85c 3000 	ldr.w	r3, [ip, r0]
    202c:	f013 0fff 	tst.w	r3, #255	; 0xff
    2030:	d005      	beq.n	203e <MAIN_STACK_SIZE+0x3e>
    2032:	6ae3      	ldr	r3, [r4, #44]	; 0x2c
    2034:	b11b      	cbz	r3, 203e <MAIN_STACK_SIZE+0x3e>
    2036:	4620      	mov	r0, r4
    2038:	4798      	blx	r3
    203a:	6822      	ldr	r2, [r4, #0]
    203c:	3228      	adds	r2, #40	; 0x28
    203e:	f002 4070 	and.w	r0, r2, #4026531840	; 0xf0000000
    2042:	f022 4c7f 	bic.w	ip, r2, #4278190080	; 0xff000000
    2046:	f100 7300 	add.w	r3, r0, #33554432	; 0x2000000
    204a:	f42c 0170 	bic.w	r1, ip, #15728640	; 0xf00000
    204e:	1d18      	adds	r0, r3, #4
    2050:	0149      	lsls	r1, r1, #5
    2052:	5843      	ldr	r3, [r0, r1]
    2054:	f013 0fff 	tst.w	r3, #255	; 0xff
    2058:	d005      	beq.n	2066 <MAIN_STACK_SIZE+0x66>
    205a:	6b23      	ldr	r3, [r4, #48]	; 0x30
    205c:	b11b      	cbz	r3, 2066 <MAIN_STACK_SIZE+0x66>
    205e:	4620      	mov	r0, r4
    2060:	4798      	blx	r3
    2062:	6822      	ldr	r2, [r4, #0]
    2064:	3228      	adds	r2, #40	; 0x28
    2066:	f002 4370 	and.w	r3, r2, #4026531840	; 0xf0000000
    206a:	f022 4c7f 	bic.w	ip, r2, #4278190080	; 0xff000000
    206e:	f103 7000 	add.w	r0, r3, #33554432	; 0x2000000
    2072:	f42c 0170 	bic.w	r1, ip, #15728640	; 0xf00000
    2076:	3008      	adds	r0, #8
    2078:	0149      	lsls	r1, r1, #5
    207a:	5843      	ldr	r3, [r0, r1]
    207c:	f013 0fff 	tst.w	r3, #255	; 0xff
    2080:	d005      	beq.n	208e <MAIN_STACK_SIZE+0x8e>
    2082:	6b63      	ldr	r3, [r4, #52]	; 0x34
    2084:	b11b      	cbz	r3, 208e <MAIN_STACK_SIZE+0x8e>
    2086:	4620      	mov	r0, r4
    2088:	4798      	blx	r3
    208a:	6822      	ldr	r2, [r4, #0]
    208c:	3228      	adds	r2, #40	; 0x28
    208e:	f002 4370 	and.w	r3, r2, #4026531840	; 0xf0000000
    2092:	f022 4c7f 	bic.w	ip, r2, #4278190080	; 0xff000000
    2096:	f42c 0070 	bic.w	r0, ip, #15728640	; 0xf00000
    209a:	f103 7300 	add.w	r3, r3, #33554432	; 0x2000000
    209e:	330c      	adds	r3, #12
    20a0:	0141      	lsls	r1, r0, #5
    20a2:	5858      	ldr	r0, [r3, r1]
    20a4:	f010 0fff 	tst.w	r0, #255	; 0xff
    20a8:	d005      	beq.n	20b6 <MAIN_STACK_SIZE+0xb6>
    20aa:	6ba3      	ldr	r3, [r4, #56]	; 0x38
    20ac:	b11b      	cbz	r3, 20b6 <MAIN_STACK_SIZE+0xb6>
    20ae:	4620      	mov	r0, r4
    20b0:	4798      	blx	r3
    20b2:	6822      	ldr	r2, [r4, #0]
    20b4:	3228      	adds	r2, #40	; 0x28
    20b6:	f022 4c7f 	bic.w	ip, r2, #4278190080	; 0xff000000
    20ba:	f002 4170 	and.w	r1, r2, #4026531840	; 0xf0000000
    20be:	f101 7200 	add.w	r2, r1, #33554432	; 0x2000000
    20c2:	f42c 0370 	bic.w	r3, ip, #15728640	; 0xf00000
    20c6:	3210      	adds	r2, #16
    20c8:	0158      	lsls	r0, r3, #5
    20ca:	5811      	ldr	r1, [r2, r0]
    20cc:	f011 0fff 	tst.w	r1, #255	; 0xff
    20d0:	f43f af68 	beq.w	1fa4 <MSS_UART_isr+0x1c>
    20d4:	6be3      	ldr	r3, [r4, #60]	; 0x3c
    20d6:	2b00      	cmp	r3, #0
    20d8:	f43f af64 	beq.w	1fa4 <MSS_UART_isr+0x1c>
    20dc:	4620      	mov	r0, r4
    20de:	4798      	blx	r3
    20e0:	e760      	b.n	1fa4 <MSS_UART_isr+0x1c>
    20e2:	bf00      	nop

000020e4 <UART1_IRQHandler>:
    20e4:	4668      	mov	r0, sp
    20e6:	f020 0107 	bic.w	r1, r0, #7
    20ea:	468d      	mov	sp, r1
    20ec:	b501      	push	{r0, lr}
    20ee:	f240 70d4 	movw	r0, #2004	; 0x7d4
    20f2:	f2c2 0000 	movt	r0, #8192	; 0x2000
    20f6:	f7ff ff47 	bl	1f88 <MSS_UART_isr>
    20fa:	e8bd 4001 	ldmia.w	sp!, {r0, lr}
    20fe:	4685      	mov	sp, r0
    2100:	4770      	bx	lr
    2102:	bf00      	nop

00002104 <UART0_IRQHandler>:
    2104:	4668      	mov	r0, sp
    2106:	f020 0107 	bic.w	r1, r0, #7
    210a:	468d      	mov	sp, r1
    210c:	b501      	push	{r0, lr}
    210e:	f640 0014 	movw	r0, #2068	; 0x814
    2112:	f2c2 0000 	movt	r0, #8192	; 0x2000
    2116:	f7ff ff37 	bl	1f88 <MSS_UART_isr>
    211a:	e8bd 4001 	ldmia.w	sp!, {r0, lr}
    211e:	4685      	mov	sp, r0
    2120:	4770      	bx	lr
    2122:	bf00      	nop

00002124 <default_tx_handler>:
    2124:	f640 0314 	movw	r3, #2068	; 0x814
    2128:	f2c2 0300 	movt	r3, #8192	; 0x2000
    212c:	4298      	cmp	r0, r3
    212e:	b470      	push	{r4, r5, r6}
    2130:	d007      	beq.n	2142 <default_tx_handler+0x1e>
    2132:	f240 71d4 	movw	r1, #2004	; 0x7d4
    2136:	f2c2 0100 	movt	r1, #8192	; 0x2000
    213a:	4288      	cmp	r0, r1
    213c:	d001      	beq.n	2142 <default_tx_handler+0x1e>
    213e:	bc70      	pop	{r4, r5, r6}
    2140:	4770      	bx	lr
    2142:	6904      	ldr	r4, [r0, #16]
    2144:	2c00      	cmp	r4, #0
    2146:	d0fa      	beq.n	213e <default_tx_handler+0x1a>
    2148:	6943      	ldr	r3, [r0, #20]
    214a:	2b00      	cmp	r3, #0
    214c:	d0f7      	beq.n	213e <default_tx_handler+0x1a>
    214e:	6801      	ldr	r1, [r0, #0]
    2150:	f890 c00d 	ldrb.w	ip, [r0, #13]
    2154:	7d0a      	ldrb	r2, [r1, #20]
    2156:	ea42 0c0c 	orr.w	ip, r2, ip
    215a:	f012 0f20 	tst.w	r2, #32
    215e:	f880 c00d 	strb.w	ip, [r0, #13]
    2162:	6982      	ldr	r2, [r0, #24]
    2164:	d029      	beq.n	21ba <default_tx_handler+0x96>
    2166:	1a9d      	subs	r5, r3, r2
    2168:	2d0f      	cmp	r5, #15
    216a:	d938      	bls.n	21de <default_tx_handler+0xba>
    216c:	2510      	movs	r5, #16
    216e:	18a4      	adds	r4, r4, r2
    2170:	7826      	ldrb	r6, [r4, #0]
    2172:	1e6b      	subs	r3, r5, #1
    2174:	700e      	strb	r6, [r1, #0]
    2176:	f003 0601 	and.w	r6, r3, #1
    217a:	2301      	movs	r3, #1
    217c:	3201      	adds	r2, #1
    217e:	429d      	cmp	r5, r3
    2180:	6182      	str	r2, [r0, #24]
    2182:	d919      	bls.n	21b8 <default_tx_handler+0x94>
    2184:	b146      	cbz	r6, 2198 <default_tx_handler+0x74>
    2186:	f894 c001 	ldrb.w	ip, [r4, #1]
    218a:	2302      	movs	r3, #2
    218c:	3201      	adds	r2, #1
    218e:	429d      	cmp	r5, r3
    2190:	f881 c000 	strb.w	ip, [r1]
    2194:	6182      	str	r2, [r0, #24]
    2196:	d90f      	bls.n	21b8 <default_tx_handler+0x94>
    2198:	f814 c003 	ldrb.w	ip, [r4, r3]
    219c:	3201      	adds	r2, #1
    219e:	f881 c000 	strb.w	ip, [r1]
    21a2:	3301      	adds	r3, #1
    21a4:	6182      	str	r2, [r0, #24]
    21a6:	f814 c003 	ldrb.w	ip, [r4, r3]
    21aa:	3301      	adds	r3, #1
    21ac:	3201      	adds	r2, #1
    21ae:	429d      	cmp	r5, r3
    21b0:	f881 c000 	strb.w	ip, [r1]
    21b4:	6182      	str	r2, [r0, #24]
    21b6:	d8ef      	bhi.n	2198 <default_tx_handler+0x74>
    21b8:	6943      	ldr	r3, [r0, #20]
    21ba:	429a      	cmp	r2, r3
    21bc:	d1bf      	bne.n	213e <default_tx_handler+0x1a>
    21be:	6802      	ldr	r2, [r0, #0]
    21c0:	2100      	movs	r1, #0
    21c2:	1d13      	adds	r3, r2, #4
    21c4:	f023 4c7f 	bic.w	ip, r3, #4278190080	; 0xff000000
    21c8:	f003 4270 	and.w	r2, r3, #4026531840	; 0xf0000000
    21cc:	f102 7300 	add.w	r3, r2, #33554432	; 0x2000000
    21d0:	f42c 0270 	bic.w	r2, ip, #15728640	; 0xf00000
    21d4:	3304      	adds	r3, #4
    21d6:	0152      	lsls	r2, r2, #5
    21d8:	5099      	str	r1, [r3, r2]
    21da:	6141      	str	r1, [r0, #20]
    21dc:	e7af      	b.n	213e <default_tx_handler+0x1a>
    21de:	2d00      	cmp	r5, #0
    21e0:	d1c5      	bne.n	216e <default_tx_handler+0x4a>
    21e2:	e7ea      	b.n	21ba <default_tx_handler+0x96>

000021e4 <global_init>:
    21e4:	e92d 4ff0 	stmdb	sp!, {r4, r5, r6, r7, r8, r9, sl, fp, lr}
    21e8:	f640 0314 	movw	r3, #2068	; 0x814
    21ec:	b08f      	sub	sp, #60	; 0x3c
    21ee:	f2c2 0300 	movt	r3, #8192	; 0x2000
    21f2:	920b      	str	r2, [sp, #44]	; 0x2c
    21f4:	f248 0200 	movw	r2, #32768	; 0x8000
    21f8:	4298      	cmp	r0, r3
    21fa:	f2c4 0203 	movt	r2, #16387	; 0x4003
    21fe:	4604      	mov	r4, r0
    2200:	910d      	str	r1, [sp, #52]	; 0x34
    2202:	6c90      	ldr	r0, [r2, #72]	; 0x48
    2204:	f24e 1100 	movw	r1, #57600	; 0xe100
    2208:	f000 8129 	beq.w	245e <global_init+0x27a>
    220c:	f440 7780 	orr.w	r7, r0, #256	; 0x100
    2210:	f2ce 0100 	movt	r1, #57344	; 0xe000
    2214:	f44f 6600 	mov.w	r6, #2048	; 0x800
    2218:	6497      	str	r7, [r2, #72]	; 0x48
    221a:	f8c1 6180 	str.w	r6, [r1, #384]	; 0x180
    221e:	6c95      	ldr	r5, [r2, #72]	; 0x48
    2220:	f240 0100 	movw	r1, #0
    2224:	f425 7080 	bic.w	r0, r5, #256	; 0x100
    2228:	f2c4 0101 	movt	r1, #16385	; 0x4001
    222c:	6490      	str	r0, [r2, #72]	; 0x48
    222e:	220b      	movs	r2, #11
    2230:	7122      	strb	r2, [r4, #4]
    2232:	6021      	str	r1, [r4, #0]
    2234:	2200      	movs	r2, #0
    2236:	460d      	mov	r5, r1
    2238:	710a      	strb	r2, [r1, #4]
    223a:	f101 0610 	add.w	r6, r1, #16
    223e:	f805 2f08 	strb.w	r2, [r5, #8]!
    2242:	f101 0a38 	add.w	sl, r1, #56	; 0x38
    2246:	f02a 4b7f 	bic.w	fp, sl, #4278190080	; 0xff000000
    224a:	f101 0934 	add.w	r9, r1, #52	; 0x34
    224e:	f025 477f 	bic.w	r7, r5, #4278190080	; 0xff000000
    2252:	f026 487f 	bic.w	r8, r6, #4278190080	; 0xff000000
    2256:	f005 4570 	and.w	r5, r5, #4026531840	; 0xf0000000
    225a:	f006 4670 	and.w	r6, r6, #4026531840	; 0xf0000000
    225e:	f00a 4a70 	and.w	sl, sl, #4026531840	; 0xf0000000
    2262:	f8cd a010 	str.w	sl, [sp, #16]
    2266:	9506      	str	r5, [sp, #24]
    2268:	f029 407f 	bic.w	r0, r9, #4278190080	; 0xff000000
    226c:	f106 7500 	add.w	r5, r6, #33554432	; 0x2000000
    2270:	9003      	str	r0, [sp, #12]
    2272:	9501      	str	r5, [sp, #4]
    2274:	f009 4970 	and.w	r9, r9, #4026531840	; 0xf0000000
    2278:	9d04      	ldr	r5, [sp, #16]
    227a:	f8cd 901c 	str.w	r9, [sp, #28]
    227e:	f8dd 900c 	ldr.w	r9, [sp, #12]
    2282:	f105 7500 	add.w	r5, r5, #33554432	; 0x2000000
    2286:	f429 0a70 	bic.w	sl, r9, #15728640	; 0xf00000
    228a:	950a      	str	r5, [sp, #40]	; 0x28
    228c:	f42b 0970 	bic.w	r9, fp, #15728640	; 0xf00000
    2290:	9d07      	ldr	r5, [sp, #28]
    2292:	f8dd b018 	ldr.w	fp, [sp, #24]
    2296:	f8cd 9014 	str.w	r9, [sp, #20]
    229a:	f10b 7900 	add.w	r9, fp, #33554432	; 0x2000000
    229e:	f105 7b00 	add.w	fp, r5, #33554432	; 0x2000000
    22a2:	9d04      	ldr	r5, [sp, #16]
    22a4:	f101 0c30 	add.w	ip, r1, #48	; 0x30
    22a8:	f02c 407f 	bic.w	r0, ip, #4278190080	; 0xff000000
    22ac:	f105 7500 	add.w	r5, r5, #33554432	; 0x2000000
    22b0:	f00c 4c70 	and.w	ip, ip, #4026531840	; 0xf0000000
    22b4:	f8cd a00c 	str.w	sl, [sp, #12]
    22b8:	9504      	str	r5, [sp, #16]
    22ba:	f10c 7500 	add.w	r5, ip, #33554432	; 0x2000000
    22be:	f10c 7a00 	add.w	sl, ip, #33554432	; 0x2000000
    22c2:	46ac      	mov	ip, r5
    22c4:	9d03      	ldr	r5, [sp, #12]
    22c6:	f8cd a024 	str.w	sl, [sp, #36]	; 0x24
    22ca:	016d      	lsls	r5, r5, #5
    22cc:	9503      	str	r5, [sp, #12]
    22ce:	9d05      	ldr	r5, [sp, #20]
    22d0:	f428 0870 	bic.w	r8, r8, #15728640	; 0xf00000
    22d4:	016d      	lsls	r5, r5, #5
    22d6:	9505      	str	r5, [sp, #20]
    22d8:	9d06      	ldr	r5, [sp, #24]
    22da:	46ca      	mov	sl, r9
    22dc:	f105 7500 	add.w	r5, r5, #33554432	; 0x2000000
    22e0:	9506      	str	r5, [sp, #24]
    22e2:	9d01      	ldr	r5, [sp, #4]
    22e4:	ea4f 1848 	mov.w	r8, r8, lsl #5
    22e8:	3514      	adds	r5, #20
    22ea:	9501      	str	r5, [sp, #4]
    22ec:	9d07      	ldr	r5, [sp, #28]
    22ee:	f427 0770 	bic.w	r7, r7, #15728640	; 0xf00000
    22f2:	f105 7500 	add.w	r5, r5, #33554432	; 0x2000000
    22f6:	9507      	str	r5, [sp, #28]
    22f8:	9d04      	ldr	r5, [sp, #16]
    22fa:	017f      	lsls	r7, r7, #5
    22fc:	3504      	adds	r5, #4
    22fe:	9504      	str	r5, [sp, #16]
    2300:	4665      	mov	r5, ip
    2302:	3514      	adds	r5, #20
    2304:	9508      	str	r5, [sp, #32]
    2306:	9d09      	ldr	r5, [sp, #36]	; 0x24
    2308:	f8cd 8030 	str.w	r8, [sp, #48]	; 0x30
    230c:	351c      	adds	r5, #28
    230e:	9509      	str	r5, [sp, #36]	; 0x24
    2310:	9d0a      	ldr	r5, [sp, #40]	; 0x28
    2312:	f04f 0801 	mov.w	r8, #1
    2316:	350c      	adds	r5, #12
    2318:	f10a 0a08 	add.w	sl, sl, #8
    231c:	f109 0904 	add.w	r9, r9, #4
    2320:	950a      	str	r5, [sp, #40]	; 0x28
    2322:	f106 7600 	add.w	r6, r6, #33554432	; 0x2000000
    2326:	f849 8007 	str.w	r8, [r9, r7]
    232a:	9d0c      	ldr	r5, [sp, #48]	; 0x30
    232c:	f84a 8007 	str.w	r8, [sl, r7]
    2330:	f8dd a018 	ldr.w	sl, [sp, #24]
    2334:	3610      	adds	r6, #16
    2336:	f84a 8007 	str.w	r8, [sl, r7]
    233a:	5172      	str	r2, [r6, r5]
    233c:	f8dd a00c 	ldr.w	sl, [sp, #12]
    2340:	9e01      	ldr	r6, [sp, #4]
    2342:	f10b 0b04 	add.w	fp, fp, #4
    2346:	5172      	str	r2, [r6, r5]
    2348:	f84b 200a 	str.w	r2, [fp, sl]
    234c:	f8dd b01c 	ldr.w	fp, [sp, #28]
    2350:	9d05      	ldr	r5, [sp, #20]
    2352:	f84b 200a 	str.w	r2, [fp, sl]
    2356:	9e04      	ldr	r6, [sp, #16]
    2358:	f8dd a020 	ldr.w	sl, [sp, #32]
    235c:	f420 0070 	bic.w	r0, r0, #15728640	; 0xf00000
    2360:	0140      	lsls	r0, r0, #5
    2362:	f10c 0c18 	add.w	ip, ip, #24
    2366:	5172      	str	r2, [r6, r5]
    2368:	f8dd b024 	ldr.w	fp, [sp, #36]	; 0x24
    236c:	f84a 2000 	str.w	r2, [sl, r0]
    2370:	f84c 2000 	str.w	r2, [ip, r0]
    2374:	f8dd c028 	ldr.w	ip, [sp, #40]	; 0x28
    2378:	429c      	cmp	r4, r3
    237a:	f84b 2000 	str.w	r2, [fp, r0]
    237e:	f84c 2005 	str.w	r2, [ip, r5]
    2382:	f881 2044 	strb.w	r2, [r1, #68]	; 0x44
    2386:	f881 2048 	strb.w	r2, [r1, #72]	; 0x48
    238a:	f881 204c 	strb.w	r2, [r1, #76]	; 0x4c
    238e:	d079      	beq.n	2484 <global_init+0x2a0>
    2390:	f240 73d4 	movw	r3, #2004	; 0x7d4
    2394:	f2c2 0300 	movt	r3, #8192	; 0x2000
    2398:	429c      	cmp	r4, r3
    239a:	d015      	beq.n	23c8 <global_init+0x1e4>
    239c:	9d0b      	ldr	r5, [sp, #44]	; 0x2c
    239e:	2000      	movs	r0, #0
    23a0:	730d      	strb	r5, [r1, #12]
    23a2:	7360      	strb	r0, [r4, #13]
    23a4:	9e0d      	ldr	r6, [sp, #52]	; 0x34
    23a6:	6160      	str	r0, [r4, #20]
    23a8:	60a6      	str	r6, [r4, #8]
    23aa:	7325      	strb	r5, [r4, #12]
    23ac:	6120      	str	r0, [r4, #16]
    23ae:	61a0      	str	r0, [r4, #24]
    23b0:	6220      	str	r0, [r4, #32]
    23b2:	6260      	str	r0, [r4, #36]	; 0x24
    23b4:	61e0      	str	r0, [r4, #28]
    23b6:	62a0      	str	r0, [r4, #40]	; 0x28
    23b8:	62e0      	str	r0, [r4, #44]	; 0x2c
    23ba:	6320      	str	r0, [r4, #48]	; 0x30
    23bc:	6360      	str	r0, [r4, #52]	; 0x34
    23be:	63a0      	str	r0, [r4, #56]	; 0x38
    23c0:	63e0      	str	r0, [r4, #60]	; 0x3c
    23c2:	b00f      	add	sp, #60	; 0x3c
    23c4:	e8bd 8ff0 	ldmia.w	sp!, {r4, r5, r6, r7, r8, r9, sl, fp, pc}
    23c8:	9f0d      	ldr	r7, [sp, #52]	; 0x34
    23ca:	60a7      	str	r7, [r4, #8]
    23cc:	f002 fc04 	bl	4bd8 <SystemCoreClockUpdate>
    23d0:	f240 0120 	movw	r1, #32
    23d4:	f2c2 0100 	movt	r1, #8192	; 0x2000
    23d8:	680a      	ldr	r2, [r1, #0]
    23da:	9e0d      	ldr	r6, [sp, #52]	; 0x34
    23dc:	00d7      	lsls	r7, r2, #3
    23de:	fbb7 f2f6 	udiv	r2, r7, r6
    23e2:	09d3      	lsrs	r3, r2, #7
    23e4:	0857      	lsrs	r7, r2, #1
    23e6:	f5b3 3f80 	cmp.w	r3, #65536	; 0x10000
    23ea:	bf28      	it	cs
    23ec:	6821      	ldrcs	r1, [r4, #0]
    23ee:	d2d5      	bcs.n	239c <global_init+0x1b8>
    23f0:	2b01      	cmp	r3, #1
    23f2:	6821      	ldr	r1, [r4, #0]
    23f4:	d950      	bls.n	2498 <global_init+0x2b4>
    23f6:	f101 000c 	add.w	r0, r1, #12
    23fa:	f020 4c7f 	bic.w	ip, r0, #4278190080	; 0xff000000
    23fe:	f000 4670 	and.w	r6, r0, #4026531840	; 0xf0000000
    2402:	f106 7000 	add.w	r0, r6, #33554432	; 0x2000000
    2406:	f42c 0a70 	bic.w	sl, ip, #15728640	; 0xf00000
    240a:	ea4f 1e4a 	mov.w	lr, sl, lsl #5
    240e:	460d      	mov	r5, r1
    2410:	fa5f f883 	uxtb.w	r8, r3
    2414:	eba7 1783 	sub.w	r7, r7, r3, lsl #6
    2418:	301c      	adds	r0, #28
    241a:	2601      	movs	r6, #1
    241c:	f3c2 3ac7 	ubfx	sl, r2, #15, #8
    2420:	f840 600e 	str.w	r6, [r0, lr]
    2424:	eba7 13c3 	sub.w	r3, r7, r3, lsl #7
    2428:	f881 a004 	strb.w	sl, [r1, #4]
    242c:	f805 8b30 	strb.w	r8, [r5], #48
    2430:	189a      	adds	r2, r3, r2
    2432:	f025 437f 	bic.w	r3, r5, #4278190080	; 0xff000000
    2436:	f005 4570 	and.w	r5, r5, #4026531840	; 0xf0000000
    243a:	f423 0870 	bic.w	r8, r3, #15728640	; 0xf00000
    243e:	eba2 0747 	sub.w	r7, r2, r7, lsl #1
    2442:	f105 7500 	add.w	r5, r5, #33554432	; 0x2000000
    2446:	351c      	adds	r5, #28
    2448:	ea4f 1848 	mov.w	r8, r8, lsl #5
    244c:	b2ff      	uxtb	r7, r7
    244e:	2300      	movs	r3, #0
    2450:	f840 300e 	str.w	r3, [r0, lr]
    2454:	f845 6008 	str.w	r6, [r5, r8]
    2458:	f881 703c 	strb.w	r7, [r1, #60]	; 0x3c
    245c:	e79e      	b.n	239c <global_init+0x1b8>
    245e:	f040 0780 	orr.w	r7, r0, #128	; 0x80
    2462:	f2ce 0100 	movt	r1, #57344	; 0xe000
    2466:	f44f 6680 	mov.w	r6, #1024	; 0x400
    246a:	6497      	str	r7, [r2, #72]	; 0x48
    246c:	f8c1 6180 	str.w	r6, [r1, #384]	; 0x180
    2470:	6c95      	ldr	r5, [r2, #72]	; 0x48
    2472:	f04f 4180 	mov.w	r1, #1073741824	; 0x40000000
    2476:	f025 0080 	bic.w	r0, r5, #128	; 0x80
    247a:	6490      	str	r0, [r2, #72]	; 0x48
    247c:	220a      	movs	r2, #10
    247e:	7122      	strb	r2, [r4, #4]
    2480:	6021      	str	r1, [r4, #0]
    2482:	e6d7      	b.n	2234 <global_init+0x50>
    2484:	9a0d      	ldr	r2, [sp, #52]	; 0x34
    2486:	60a2      	str	r2, [r4, #8]
    2488:	f002 fba6 	bl	4bd8 <SystemCoreClockUpdate>
    248c:	f240 011c 	movw	r1, #28
    2490:	f2c2 0100 	movt	r1, #8192	; 0x2000
    2494:	680a      	ldr	r2, [r1, #0]
    2496:	e7a0      	b.n	23da <global_init+0x1f6>
    2498:	f101 0c0c 	add.w	ip, r1, #12
    249c:	f02c 4e7f 	bic.w	lr, ip, #4278190080	; 0xff000000
    24a0:	f00c 4270 	and.w	r2, ip, #4026531840	; 0xf0000000
    24a4:	f42e 0570 	bic.w	r5, lr, #15728640	; 0xf00000
    24a8:	f102 7200 	add.w	r2, r2, #33554432	; 0x2000000
    24ac:	ea4f 1e45 	mov.w	lr, r5, lsl #5
    24b0:	4608      	mov	r0, r1
    24b2:	2500      	movs	r5, #0
    24b4:	b2db      	uxtb	r3, r3
    24b6:	321c      	adds	r2, #28
    24b8:	2601      	movs	r6, #1
    24ba:	f842 600e 	str.w	r6, [r2, lr]
    24be:	710d      	strb	r5, [r1, #4]
    24c0:	f800 3b30 	strb.w	r3, [r0], #48
    24c4:	f020 4c7f 	bic.w	ip, r0, #4278190080	; 0xff000000
    24c8:	f000 4070 	and.w	r0, r0, #4026531840	; 0xf0000000
    24cc:	f100 7600 	add.w	r6, r0, #33554432	; 0x2000000
    24d0:	f42c 0370 	bic.w	r3, ip, #15728640	; 0xf00000
    24d4:	361c      	adds	r6, #28
    24d6:	015b      	lsls	r3, r3, #5
    24d8:	f842 500e 	str.w	r5, [r2, lr]
    24dc:	50f5      	str	r5, [r6, r3]
    24de:	e75d      	b.n	239c <global_init+0x1b8>

000024e0 <MSS_UART_smartcard_init>:
    24e0:	b570      	push	{r4, r5, r6, lr}
    24e2:	4605      	mov	r5, r0
    24e4:	4614      	mov	r4, r2
    24e6:	f7ff fe7d 	bl	21e4 <global_init>
    24ea:	682d      	ldr	r5, [r5, #0]
    24ec:	f004 0407 	and.w	r4, r4, #7
    24f0:	f105 0030 	add.w	r0, r5, #48	; 0x30
    24f4:	f105 0334 	add.w	r3, r5, #52	; 0x34
    24f8:	f020 467f 	bic.w	r6, r0, #4278190080	; 0xff000000
    24fc:	f023 4c7f 	bic.w	ip, r3, #4278190080	; 0xff000000
    2500:	f000 4270 	and.w	r2, r0, #4026531840	; 0xf0000000
    2504:	f003 4170 	and.w	r1, r3, #4026531840	; 0xf0000000
    2508:	f426 0070 	bic.w	r0, r6, #15728640	; 0xf00000
    250c:	f101 7300 	add.w	r3, r1, #33554432	; 0x2000000
    2510:	f42c 0670 	bic.w	r6, ip, #15728640	; 0xf00000
    2514:	f102 7200 	add.w	r2, r2, #33554432	; 0x2000000
    2518:	0171      	lsls	r1, r6, #5
    251a:	320c      	adds	r2, #12
    251c:	2600      	movs	r6, #0
    251e:	0140      	lsls	r0, r0, #5
    2520:	3308      	adds	r3, #8
    2522:	2c07      	cmp	r4, #7
    2524:	5016      	str	r6, [r2, r0]
    2526:	505e      	str	r6, [r3, r1]
    2528:	d10f      	bne.n	254a <MSS_UART_smartcard_init+0x6a>
    252a:	3538      	adds	r5, #56	; 0x38
    252c:	f025 4c7f 	bic.w	ip, r5, #4278190080	; 0xff000000
    2530:	f005 4e70 	and.w	lr, r5, #4026531840	; 0xf0000000
    2534:	f42c 0070 	bic.w	r0, ip, #15728640	; 0xf00000
    2538:	f10e 7300 	add.w	r3, lr, #33554432	; 0x2000000
    253c:	0142      	lsls	r2, r0, #5
    253e:	2101      	movs	r1, #1
    2540:	330c      	adds	r3, #12
    2542:	f10e 7500 	add.w	r5, lr, #33554432	; 0x2000000
    2546:	50a9      	str	r1, [r5, r2]
    2548:	5099      	str	r1, [r3, r2]
    254a:	bd70      	pop	{r4, r5, r6, pc}

0000254c <MSS_UART_irda_init>:
    254c:	e92d 47f0 	stmdb	sp!, {r4, r5, r6, r7, r8, r9, sl, lr}
    2550:	4604      	mov	r4, r0
    2552:	461e      	mov	r6, r3
    2554:	f89d 5020 	ldrb.w	r5, [sp, #32]
    2558:	f89d 7024 	ldrb.w	r7, [sp, #36]	; 0x24
    255c:	f7ff fe42 	bl	21e4 <global_init>
    2560:	6822      	ldr	r2, [r4, #0]
    2562:	f102 0830 	add.w	r8, r2, #48	; 0x30
    2566:	f102 0334 	add.w	r3, r2, #52	; 0x34
    256a:	f028 4a7f 	bic.w	sl, r8, #4278190080	; 0xff000000
    256e:	f008 4170 	and.w	r1, r8, #4026531840	; 0xf0000000
    2572:	f023 497f 	bic.w	r9, r3, #4278190080	; 0xff000000
    2576:	f003 4870 	and.w	r8, r3, #4026531840	; 0xf0000000
    257a:	f101 7000 	add.w	r0, r1, #33554432	; 0x2000000
    257e:	f42a 0470 	bic.w	r4, sl, #15728640	; 0xf00000
    2582:	f429 0c70 	bic.w	ip, r9, #15728640	; 0xf00000
    2586:	f108 7100 	add.w	r1, r8, #33554432	; 0x2000000
    258a:	ea4f 1a44 	mov.w	sl, r4, lsl #5
    258e:	300c      	adds	r0, #12
    2590:	3108      	adds	r1, #8
    2592:	ea4f 1c4c 	mov.w	ip, ip, lsl #5
    2596:	2401      	movs	r4, #1
    2598:	f04f 0900 	mov.w	r9, #0
    259c:	f840 900a 	str.w	r9, [r0, sl]
    25a0:	f841 400c 	str.w	r4, [r1, ip]
    25a4:	2e00      	cmp	r6, #0
    25a6:	d146      	bne.n	2636 <MSS_UART_irda_init+0xea>
    25a8:	f108 7e00 	add.w	lr, r8, #33554432	; 0x2000000
    25ac:	f10e 080c 	add.w	r8, lr, #12
    25b0:	f848 600c 	str.w	r6, [r8, ip]
    25b4:	bb2d      	cbnz	r5, 2602 <MSS_UART_irda_init+0xb6>
    25b6:	f003 4e70 	and.w	lr, r3, #4026531840	; 0xf0000000
    25ba:	f023 4c7f 	bic.w	ip, r3, #4278190080	; 0xff000000
    25be:	f10e 7100 	add.w	r1, lr, #33554432	; 0x2000000
    25c2:	f42c 0070 	bic.w	r0, ip, #15728640	; 0xf00000
    25c6:	3110      	adds	r1, #16
    25c8:	0140      	lsls	r0, r0, #5
    25ca:	500d      	str	r5, [r1, r0]
    25cc:	b33f      	cbz	r7, 261e <MSS_UART_irda_init+0xd2>
    25ce:	f023 4c7f 	bic.w	ip, r3, #4278190080	; 0xff000000
    25d2:	f003 4e70 	and.w	lr, r3, #4026531840	; 0xf0000000
    25d6:	f42c 0070 	bic.w	r0, ip, #15728640	; 0xf00000
    25da:	f10e 7300 	add.w	r3, lr, #33554432	; 0x2000000
    25de:	0141      	lsls	r1, r0, #5
    25e0:	3314      	adds	r3, #20
    25e2:	2001      	movs	r0, #1
    25e4:	5058      	str	r0, [r3, r1]
    25e6:	3238      	adds	r2, #56	; 0x38
    25e8:	f022 4e7f 	bic.w	lr, r2, #4278190080	; 0xff000000
    25ec:	f42e 0070 	bic.w	r0, lr, #15728640	; 0xf00000
    25f0:	f002 4c70 	and.w	ip, r2, #4026531840	; 0xf0000000
    25f4:	f10c 7200 	add.w	r2, ip, #33554432	; 0x2000000
    25f8:	0143      	lsls	r3, r0, #5
    25fa:	2100      	movs	r1, #0
    25fc:	50d1      	str	r1, [r2, r3]
    25fe:	e8bd 87f0 	ldmia.w	sp!, {r4, r5, r6, r7, r8, r9, sl, pc}
    2602:	f003 4e70 	and.w	lr, r3, #4026531840	; 0xf0000000
    2606:	f023 4c7f 	bic.w	ip, r3, #4278190080	; 0xff000000
    260a:	f42c 0470 	bic.w	r4, ip, #15728640	; 0xf00000
    260e:	f10e 7100 	add.w	r1, lr, #33554432	; 0x2000000
    2612:	0160      	lsls	r0, r4, #5
    2614:	3110      	adds	r1, #16
    2616:	2401      	movs	r4, #1
    2618:	500c      	str	r4, [r1, r0]
    261a:	2f00      	cmp	r7, #0
    261c:	d1d7      	bne.n	25ce <MSS_UART_irda_init+0x82>
    261e:	f023 4c7f 	bic.w	ip, r3, #4278190080	; 0xff000000
    2622:	f003 4e70 	and.w	lr, r3, #4026531840	; 0xf0000000
    2626:	f10e 7300 	add.w	r3, lr, #33554432	; 0x2000000
    262a:	f42c 0170 	bic.w	r1, ip, #15728640	; 0xf00000
    262e:	3314      	adds	r3, #20
    2630:	0148      	lsls	r0, r1, #5
    2632:	501f      	str	r7, [r3, r0]
    2634:	e7d7      	b.n	25e6 <MSS_UART_irda_init+0x9a>
    2636:	f108 7000 	add.w	r0, r8, #33554432	; 0x2000000
    263a:	f100 080c 	add.w	r8, r0, #12
    263e:	f848 400c 	str.w	r4, [r8, ip]
    2642:	e7b7      	b.n	25b4 <MSS_UART_irda_init+0x68>

00002644 <MSS_UART_lin_init>:
    2644:	b5f8      	push	{r3, r4, r5, r6, r7, lr}
    2646:	4607      	mov	r7, r0
    2648:	f7ff fdcc 	bl	21e4 <global_init>
    264c:	683d      	ldr	r5, [r7, #0]
    264e:	f64f 73ff 	movw	r3, #65535	; 0xffff
    2652:	f105 0430 	add.w	r4, r5, #48	; 0x30
    2656:	f105 0c34 	add.w	ip, r5, #52	; 0x34
    265a:	f2c0 030f 	movt	r3, #15
    265e:	f105 0038 	add.w	r0, r5, #56	; 0x38
    2662:	f004 4170 	and.w	r1, r4, #4026531840	; 0xf0000000
    2666:	f00c 4270 	and.w	r2, ip, #4026531840	; 0xf0000000
    266a:	ea00 0503 	and.w	r5, r0, r3
    266e:	f000 4770 	and.w	r7, r0, #4026531840	; 0xf0000000
    2672:	401c      	ands	r4, r3
    2674:	ea0c 0603 	and.w	r6, ip, r3
    2678:	f101 7100 	add.w	r1, r1, #33554432	; 0x2000000
    267c:	f102 7200 	add.w	r2, r2, #33554432	; 0x2000000
    2680:	0173      	lsls	r3, r6, #5
    2682:	2000      	movs	r0, #0
    2684:	f107 7600 	add.w	r6, r7, #33554432	; 0x2000000
    2688:	310c      	adds	r1, #12
    268a:	0164      	lsls	r4, r4, #5
    268c:	3208      	adds	r2, #8
    268e:	016d      	lsls	r5, r5, #5
    2690:	2701      	movs	r7, #1
    2692:	510f      	str	r7, [r1, r4]
    2694:	50d0      	str	r0, [r2, r3]
    2696:	5170      	str	r0, [r6, r5]
    2698:	bdf8      	pop	{r3, r4, r5, r6, r7, pc}
    269a:	bf00      	nop

0000269c <MSS_UART_init>:
    269c:	b5f8      	push	{r3, r4, r5, r6, r7, lr}
    269e:	4604      	mov	r4, r0
    26a0:	f7ff fda0 	bl	21e4 <global_init>
    26a4:	6822      	ldr	r2, [r4, #0]
    26a6:	f64f 73ff 	movw	r3, #65535	; 0xffff
    26aa:	f102 0034 	add.w	r0, r2, #52	; 0x34
    26ae:	f102 0530 	add.w	r5, r2, #48	; 0x30
    26b2:	f2c0 030f 	movt	r3, #15
    26b6:	f005 4770 	and.w	r7, r5, #4026531840	; 0xf0000000
    26ba:	3238      	adds	r2, #56	; 0x38
    26bc:	f000 4170 	and.w	r1, r0, #4026531840	; 0xf0000000
    26c0:	ea02 0603 	and.w	r6, r2, r3
    26c4:	f107 7c00 	add.w	ip, r7, #33554432	; 0x2000000
    26c8:	401d      	ands	r5, r3
    26ca:	ea00 0703 	and.w	r7, r0, r3
    26ce:	f002 4270 	and.w	r2, r2, #4026531840	; 0xf0000000
    26d2:	f101 7100 	add.w	r1, r1, #33554432	; 0x2000000
    26d6:	f242 1025 	movw	r0, #8485	; 0x2125
    26da:	017b      	lsls	r3, r7, #5
    26dc:	f10c 0c0c 	add.w	ip, ip, #12
    26e0:	f102 7700 	add.w	r7, r2, #33554432	; 0x2000000
    26e4:	016d      	lsls	r5, r5, #5
    26e6:	2200      	movs	r2, #0
    26e8:	3108      	adds	r1, #8
    26ea:	0176      	lsls	r6, r6, #5
    26ec:	f2c0 0000 	movt	r0, #0
    26f0:	f84c 2005 	str.w	r2, [ip, r5]
    26f4:	6260      	str	r0, [r4, #36]	; 0x24
    26f6:	50ca      	str	r2, [r1, r3]
    26f8:	51ba      	str	r2, [r7, r6]
    26fa:	bdf8      	pop	{r3, r4, r5, r6, r7, pc}

000026fc <MSS_COMBLK_init>:
    26fc:	b4f0      	push	{r4, r5, r6, r7}
    26fe:	f240 7348 	movw	r3, #1864	; 0x748
    2702:	f24e 1500 	movw	r5, #57600	; 0xe100
    2706:	f246 0400 	movw	r4, #24576	; 0x6000
    270a:	f2c2 0300 	movt	r3, #8192	; 0x2000
    270e:	2200      	movs	r2, #0
    2710:	f2c4 0401 	movt	r4, #16385	; 0x4001
    2714:	f2ce 0500 	movt	r5, #57344	; 0xe000
    2718:	f44f 2600 	mov.w	r6, #524288	; 0x80000
    271c:	f8c5 6080 	str.w	r6, [r5, #128]	; 0x80
    2720:	60a2      	str	r2, [r4, #8]
    2722:	f8c5 6180 	str.w	r6, [r5, #384]	; 0x180
    2726:	715a      	strb	r2, [r3, #5]
    2728:	f883 2024 	strb.w	r2, [r3, #36]	; 0x24
    272c:	819a      	strh	r2, [r3, #12]
    272e:	711a      	strb	r2, [r3, #4]
    2730:	615a      	str	r2, [r3, #20]
    2732:	83da      	strh	r2, [r3, #30]
    2734:	6827      	ldr	r7, [r4, #0]
    2736:	6018      	str	r0, [r3, #0]
    2738:	f027 0720 	bic.w	r7, r7, #32
    273c:	6027      	str	r7, [r4, #0]
    273e:	6820      	ldr	r0, [r4, #0]
    2740:	6199      	str	r1, [r3, #24]
    2742:	f040 0110 	orr.w	r1, r0, #16
    2746:	6021      	str	r1, [r4, #0]
    2748:	68a0      	ldr	r0, [r4, #8]
    274a:	621a      	str	r2, [r3, #32]
    274c:	f020 0101 	bic.w	r1, r0, #1
    2750:	60a1      	str	r1, [r4, #8]
    2752:	68a0      	ldr	r0, [r4, #8]
    2754:	609a      	str	r2, [r3, #8]
    2756:	f040 0102 	orr.w	r1, r0, #2
    275a:	60a1      	str	r1, [r4, #8]
    275c:	611a      	str	r2, [r3, #16]
    275e:	602e      	str	r6, [r5, #0]
    2760:	839a      	strh	r2, [r3, #28]
    2762:	bcf0      	pop	{r4, r5, r6, r7}
    2764:	4770      	bx	lr
    2766:	bf00      	nop

00002768 <complete_request>:
    2768:	b510      	push	{r4, lr}
    276a:	f240 7448 	movw	r4, #1864	; 0x748
    276e:	f2c2 0400 	movt	r4, #8192	; 0x2000
    2772:	6a23      	ldr	r3, [r4, #32]
    2774:	b12b      	cbz	r3, 2782 <complete_request+0x1a>
    2776:	4601      	mov	r1, r0
    2778:	69a0      	ldr	r0, [r4, #24]
    277a:	4798      	blx	r3
    277c:	2300      	movs	r3, #0
    277e:	7123      	strb	r3, [r4, #4]
    2780:	6223      	str	r3, [r4, #32]
    2782:	bd10      	pop	{r4, pc}

00002784 <abort_current_cmd>:
    2784:	b508      	push	{r3, lr}
    2786:	f240 7348 	movw	r3, #1864	; 0x748
    278a:	f2c2 0300 	movt	r3, #8192	; 0x2000
    278e:	791a      	ldrb	r2, [r3, #4]
    2790:	b902      	cbnz	r2, 2794 <abort_current_cmd+0x10>
    2792:	bd08      	pop	{r3, pc}
    2794:	f8b3 c01e 	ldrh.w	ip, [r3, #30]
    2798:	fa1f f08c 	uxth.w	r0, ip
    279c:	f7ff ffe4 	bl	2768 <complete_request>
    27a0:	f246 0300 	movw	r3, #24576	; 0x6000
    27a4:	f2c4 0301 	movt	r3, #16385	; 0x4001
    27a8:	6818      	ldr	r0, [r3, #0]
    27aa:	461a      	mov	r2, r3
    27ac:	f040 0101 	orr.w	r1, r0, #1
    27b0:	6019      	str	r1, [r3, #0]
    27b2:	6811      	ldr	r1, [r2, #0]
    27b4:	f011 0f01 	tst.w	r1, #1
    27b8:	d1fb      	bne.n	27b2 <abort_current_cmd+0x2e>
    27ba:	bd08      	pop	{r3, pc}

000027bc <MSS_COMBLK_send_cmd_with_ptr>:
    27bc:	e92d 45f8 	stmdb	sp!, {r3, r4, r5, r6, r7, r8, sl, lr}
    27c0:	f24e 1600 	movw	r6, #57600	; 0xe100
    27c4:	f246 0500 	movw	r5, #24576	; 0x6000
    27c8:	2400      	movs	r4, #0
    27ca:	f2c4 0501 	movt	r5, #16385	; 0x4001
    27ce:	f2ce 0600 	movt	r6, #57344	; 0xe000
    27d2:	f44f 2700 	mov.w	r7, #524288	; 0x80000
    27d6:	f8c6 7080 	str.w	r7, [r6, #128]	; 0x80
    27da:	60ac      	str	r4, [r5, #8]
    27dc:	f8c6 7180 	str.w	r7, [r6, #384]	; 0x180
    27e0:	4698      	mov	r8, r3
    27e2:	4606      	mov	r6, r0
    27e4:	4617      	mov	r7, r2
    27e6:	468a      	mov	sl, r1
    27e8:	f7ff ffcc 	bl	2784 <abort_current_cmd>
    27ec:	f240 7248 	movw	r2, #1864	; 0x748
    27f0:	f2c2 0200 	movt	r2, #8192	; 0x2000
    27f4:	2101      	movs	r1, #1
    27f6:	7156      	strb	r6, [r2, #5]
    27f8:	7111      	strb	r1, [r2, #4]
    27fa:	8194      	strh	r4, [r2, #12]
    27fc:	6154      	str	r4, [r2, #20]
    27fe:	83d4      	strh	r4, [r2, #30]
    2800:	7951      	ldrb	r1, [r2, #5]
    2802:	682b      	ldr	r3, [r5, #0]
    2804:	9808      	ldr	r0, [sp, #32]
    2806:	f023 0304 	bic.w	r3, r3, #4
    280a:	6197      	str	r7, [r2, #24]
    280c:	f8a2 801c 	strh.w	r8, [r2, #28]
    2810:	6294      	str	r4, [r2, #40]	; 0x28
    2812:	6210      	str	r0, [r2, #32]
    2814:	602b      	str	r3, [r5, #0]
    2816:	6094      	str	r4, [r2, #8]
    2818:	6114      	str	r4, [r2, #16]
    281a:	686c      	ldr	r4, [r5, #4]
    281c:	f246 0300 	movw	r3, #24576	; 0x6000
    2820:	f014 0f01 	tst.w	r4, #1
    2824:	f2c4 0301 	movt	r3, #16385	; 0x4001
    2828:	d0f7      	beq.n	281a <MSS_COMBLK_send_cmd_with_ptr+0x5e>
    282a:	6199      	str	r1, [r3, #24]
    282c:	6819      	ldr	r1, [r3, #0]
    282e:	461c      	mov	r4, r3
    2830:	f041 0004 	orr.w	r0, r1, #4
    2834:	6018      	str	r0, [r3, #0]
    2836:	6860      	ldr	r0, [r4, #4]
    2838:	f246 0300 	movw	r3, #24576	; 0x6000
    283c:	f010 0f01 	tst.w	r0, #1
    2840:	f2c4 0301 	movt	r3, #16385	; 0x4001
    2844:	d0f7      	beq.n	2836 <MSS_COMBLK_send_cmd_with_ptr+0x7a>
    2846:	f8c3 a014 	str.w	sl, [r3, #20]
    284a:	6819      	ldr	r1, [r3, #0]
    284c:	f021 0004 	bic.w	r0, r1, #4
    2850:	2103      	movs	r1, #3
    2852:	6018      	str	r0, [r3, #0]
    2854:	f882 1024 	strb.w	r1, [r2, #36]	; 0x24
    2858:	6898      	ldr	r0, [r3, #8]
    285a:	f24e 1200 	movw	r2, #57600	; 0xe100
    285e:	f040 0102 	orr.w	r1, r0, #2
    2862:	6099      	str	r1, [r3, #8]
    2864:	f2ce 0200 	movt	r2, #57344	; 0xe000
    2868:	f44f 2300 	mov.w	r3, #524288	; 0x80000
    286c:	6013      	str	r3, [r2, #0]
    286e:	e8bd 85f8 	ldmia.w	sp!, {r3, r4, r5, r6, r7, r8, sl, pc}
    2872:	bf00      	nop

00002874 <MSS_COMBLK_send_paged_cmd>:
    2874:	e92d 45f0 	stmdb	sp!, {r4, r5, r6, r7, r8, sl, lr}
    2878:	f24e 1600 	movw	r6, #57600	; 0xe100
    287c:	f246 0400 	movw	r4, #24576	; 0x6000
    2880:	2500      	movs	r5, #0
    2882:	f2c4 0401 	movt	r4, #16385	; 0x4001
    2886:	f2ce 0600 	movt	r6, #57344	; 0xe000
    288a:	f44f 2700 	mov.w	r7, #524288	; 0x80000
    288e:	f8c6 7080 	str.w	r7, [r6, #128]	; 0x80
    2892:	b083      	sub	sp, #12
    2894:	60a5      	str	r5, [r4, #8]
    2896:	f8c6 7180 	str.w	r7, [r6, #384]	; 0x180
    289a:	4690      	mov	r8, r2
    289c:	4606      	mov	r6, r0
    289e:	460f      	mov	r7, r1
    28a0:	469a      	mov	sl, r3
    28a2:	f7ff ff6f 	bl	2784 <abort_current_cmd>
    28a6:	f240 7148 	movw	r1, #1864	; 0x748
    28aa:	f2c2 0100 	movt	r1, #8192	; 0x2000
    28ae:	2301      	movs	r3, #1
    28b0:	710b      	strb	r3, [r1, #4]
    28b2:	f896 c000 	ldrb.w	ip, [r6]
    28b6:	f8c1 8018 	str.w	r8, [r1, #24]
    28ba:	f881 c005 	strb.w	ip, [r1, #5]
    28be:	818f      	strh	r7, [r1, #12]
    28c0:	614d      	str	r5, [r1, #20]
    28c2:	83cd      	strh	r5, [r1, #30]
    28c4:	7948      	ldrb	r0, [r1, #5]
    28c6:	6822      	ldr	r2, [r4, #0]
    28c8:	f8a1 a01c 	strh.w	sl, [r1, #28]
    28cc:	f022 0304 	bic.w	r3, r2, #4
    28d0:	9a0a      	ldr	r2, [sp, #40]	; 0x28
    28d2:	6023      	str	r3, [r4, #0]
    28d4:	628a      	str	r2, [r1, #40]	; 0x28
    28d6:	9a0b      	ldr	r2, [sp, #44]	; 0x2c
    28d8:	608e      	str	r6, [r1, #8]
    28da:	620a      	str	r2, [r1, #32]
    28dc:	610d      	str	r5, [r1, #16]
    28de:	6862      	ldr	r2, [r4, #4]
    28e0:	f246 0300 	movw	r3, #24576	; 0x6000
    28e4:	f012 0f01 	tst.w	r2, #1
    28e8:	f2c4 0301 	movt	r3, #16385	; 0x4001
    28ec:	d0f7      	beq.n	28de <MSS_COMBLK_send_paged_cmd+0x6a>
    28ee:	6198      	str	r0, [r3, #24]
    28f0:	6818      	ldr	r0, [r3, #0]
    28f2:	f020 0204 	bic.w	r2, r0, #4
    28f6:	601a      	str	r2, [r3, #0]
    28f8:	6858      	ldr	r0, [r3, #4]
    28fa:	f000 0201 	and.w	r2, r0, #1
    28fe:	9201      	str	r2, [sp, #4]
    2900:	9801      	ldr	r0, [sp, #4]
    2902:	2800      	cmp	r0, #0
    2904:	d056      	beq.n	29b4 <MSS_COMBLK_send_paged_cmd+0x140>
    2906:	f1b7 0c01 	subs.w	ip, r7, #1
    290a:	d053      	beq.n	29b4 <MSS_COMBLK_send_paged_cmd+0x140>
    290c:	7870      	ldrb	r0, [r6, #1]
    290e:	461a      	mov	r2, r3
    2910:	6118      	str	r0, [r3, #16]
    2912:	685b      	ldr	r3, [r3, #4]
    2914:	f10c 3eff 	add.w	lr, ip, #4294967295
    2918:	f003 0401 	and.w	r4, r3, #1
    291c:	9401      	str	r4, [sp, #4]
    291e:	9801      	ldr	r0, [sp, #4]
    2920:	f00e 0401 	and.w	r4, lr, #1
    2924:	2301      	movs	r3, #1
    2926:	b1e8      	cbz	r0, 2964 <MSS_COMBLK_send_paged_cmd+0xf0>
    2928:	f1bc 0f01 	cmp.w	ip, #1
    292c:	d91a      	bls.n	2964 <MSS_COMBLK_send_paged_cmd+0xf0>
    292e:	b124      	cbz	r4, 293a <MSS_COMBLK_send_paged_cmd+0xc6>
    2930:	78b0      	ldrb	r0, [r6, #2]
    2932:	2302      	movs	r3, #2
    2934:	e00e      	b.n	2954 <MSS_COMBLK_send_paged_cmd+0xe0>
    2936:	459c      	cmp	ip, r3
    2938:	d914      	bls.n	2964 <MSS_COMBLK_send_paged_cmd+0xf0>
    293a:	18f4      	adds	r4, r6, r3
    293c:	7860      	ldrb	r0, [r4, #1]
    293e:	3301      	adds	r3, #1
    2940:	6110      	str	r0, [r2, #16]
    2942:	6850      	ldr	r0, [r2, #4]
    2944:	18f4      	adds	r4, r6, r3
    2946:	f000 0001 	and.w	r0, r0, #1
    294a:	9001      	str	r0, [sp, #4]
    294c:	9801      	ldr	r0, [sp, #4]
    294e:	b148      	cbz	r0, 2964 <MSS_COMBLK_send_paged_cmd+0xf0>
    2950:	7860      	ldrb	r0, [r4, #1]
    2952:	3301      	adds	r3, #1
    2954:	6110      	str	r0, [r2, #16]
    2956:	6850      	ldr	r0, [r2, #4]
    2958:	f000 0001 	and.w	r0, r0, #1
    295c:	9001      	str	r0, [sp, #4]
    295e:	9801      	ldr	r0, [sp, #4]
    2960:	2800      	cmp	r0, #0
    2962:	d1e8      	bne.n	2936 <MSS_COMBLK_send_paged_cmd+0xc2>
    2964:	3301      	adds	r3, #1
    2966:	429f      	cmp	r7, r3
    2968:	d818      	bhi.n	299c <MSS_COMBLK_send_paged_cmd+0x128>
    296a:	2205      	movs	r2, #5
    296c:	f04f 0e00 	mov.w	lr, #0
    2970:	f881 2024 	strb.w	r2, [r1, #36]	; 0x24
    2974:	f8a1 e00c 	strh.w	lr, [r1, #12]
    2978:	f246 0300 	movw	r3, #24576	; 0x6000
    297c:	f2c4 0301 	movt	r3, #16385	; 0x4001
    2980:	6899      	ldr	r1, [r3, #8]
    2982:	f24e 1000 	movw	r0, #57600	; 0xe100
    2986:	f041 0203 	orr.w	r2, r1, #3
    298a:	f2ce 0000 	movt	r0, #57344	; 0xe000
    298e:	f44f 2100 	mov.w	r1, #524288	; 0x80000
    2992:	609a      	str	r2, [r3, #8]
    2994:	6001      	str	r1, [r0, #0]
    2996:	b003      	add	sp, #12
    2998:	e8bd 85f0 	ldmia.w	sp!, {r4, r5, r6, r7, r8, sl, pc}
    299c:	8988      	ldrh	r0, [r1, #12]
    299e:	18f6      	adds	r6, r6, r3
    29a0:	1ac3      	subs	r3, r0, r3
    29a2:	fa1f fc83 	uxth.w	ip, r3
    29a6:	2201      	movs	r2, #1
    29a8:	f881 2024 	strb.w	r2, [r1, #36]	; 0x24
    29ac:	f8a1 c00c 	strh.w	ip, [r1, #12]
    29b0:	608e      	str	r6, [r1, #8]
    29b2:	e7e1      	b.n	2978 <MSS_COMBLK_send_paged_cmd+0x104>
    29b4:	2301      	movs	r3, #1
    29b6:	e7d6      	b.n	2966 <MSS_COMBLK_send_paged_cmd+0xf2>

000029b8 <MSS_COMBLK_send_cmd>:
    29b8:	e92d 47f0 	stmdb	sp!, {r4, r5, r6, r7, r8, r9, sl, lr}
    29bc:	f24e 1600 	movw	r6, #57600	; 0xe100
    29c0:	f246 0400 	movw	r4, #24576	; 0x6000
    29c4:	f2c4 0401 	movt	r4, #16385	; 0x4001
    29c8:	f2ce 0600 	movt	r6, #57344	; 0xe000
    29cc:	2500      	movs	r5, #0
    29ce:	f44f 2700 	mov.w	r7, #524288	; 0x80000
    29d2:	f8c6 7080 	str.w	r7, [r6, #128]	; 0x80
    29d6:	b082      	sub	sp, #8
    29d8:	60a5      	str	r5, [r4, #8]
    29da:	f8c6 7180 	str.w	r7, [r6, #384]	; 0x180
    29de:	4690      	mov	r8, r2
    29e0:	4606      	mov	r6, r0
    29e2:	460f      	mov	r7, r1
    29e4:	4699      	mov	r9, r3
    29e6:	f8bd a02c 	ldrh.w	sl, [sp, #44]	; 0x2c
    29ea:	f7ff fecb 	bl	2784 <abort_current_cmd>
    29ee:	f240 7148 	movw	r1, #1864	; 0x748
    29f2:	f2c2 0100 	movt	r1, #8192	; 0x2000
    29f6:	2301      	movs	r3, #1
    29f8:	710b      	strb	r3, [r1, #4]
    29fa:	7830      	ldrb	r0, [r6, #0]
    29fc:	9a0a      	ldr	r2, [sp, #40]	; 0x28
    29fe:	7148      	strb	r0, [r1, #5]
    2a00:	818f      	strh	r7, [r1, #12]
    2a02:	f8c1 9014 	str.w	r9, [r1, #20]
    2a06:	83cd      	strh	r5, [r1, #30]
    2a08:	68a3      	ldr	r3, [r4, #8]
    2a0a:	618a      	str	r2, [r1, #24]
    2a0c:	f043 0002 	orr.w	r0, r3, #2
    2a10:	60a0      	str	r0, [r4, #8]
    2a12:	7948      	ldrb	r0, [r1, #5]
    2a14:	6823      	ldr	r3, [r4, #0]
    2a16:	9a0c      	ldr	r2, [sp, #48]	; 0x30
    2a18:	f023 0304 	bic.w	r3, r3, #4
    2a1c:	f8c1 8010 	str.w	r8, [r1, #16]
    2a20:	f8a1 a01c 	strh.w	sl, [r1, #28]
    2a24:	628d      	str	r5, [r1, #40]	; 0x28
    2a26:	620a      	str	r2, [r1, #32]
    2a28:	6023      	str	r3, [r4, #0]
    2a2a:	608e      	str	r6, [r1, #8]
    2a2c:	6862      	ldr	r2, [r4, #4]
    2a2e:	f246 0300 	movw	r3, #24576	; 0x6000
    2a32:	f012 0f01 	tst.w	r2, #1
    2a36:	f2c4 0301 	movt	r3, #16385	; 0x4001
    2a3a:	d0f7      	beq.n	2a2c <MSS_COMBLK_send_cmd+0x74>
    2a3c:	6198      	str	r0, [r3, #24]
    2a3e:	6818      	ldr	r0, [r3, #0]
    2a40:	f020 0204 	bic.w	r2, r0, #4
    2a44:	601a      	str	r2, [r3, #0]
    2a46:	6858      	ldr	r0, [r3, #4]
    2a48:	f000 0201 	and.w	r2, r0, #1
    2a4c:	9201      	str	r2, [sp, #4]
    2a4e:	9801      	ldr	r0, [sp, #4]
    2a50:	2800      	cmp	r0, #0
    2a52:	d058      	beq.n	2b06 <MSS_COMBLK_send_cmd+0x14e>
    2a54:	f1b7 0c01 	subs.w	ip, r7, #1
    2a58:	d055      	beq.n	2b06 <MSS_COMBLK_send_cmd+0x14e>
    2a5a:	7870      	ldrb	r0, [r6, #1]
    2a5c:	461a      	mov	r2, r3
    2a5e:	6118      	str	r0, [r3, #16]
    2a60:	685b      	ldr	r3, [r3, #4]
    2a62:	f10c 3eff 	add.w	lr, ip, #4294967295
    2a66:	f003 0401 	and.w	r4, r3, #1
    2a6a:	9401      	str	r4, [sp, #4]
    2a6c:	9801      	ldr	r0, [sp, #4]
    2a6e:	f00e 0401 	and.w	r4, lr, #1
    2a72:	2301      	movs	r3, #1
    2a74:	b1e8      	cbz	r0, 2ab2 <MSS_COMBLK_send_cmd+0xfa>
    2a76:	f1bc 0f01 	cmp.w	ip, #1
    2a7a:	d91a      	bls.n	2ab2 <MSS_COMBLK_send_cmd+0xfa>
    2a7c:	b124      	cbz	r4, 2a88 <MSS_COMBLK_send_cmd+0xd0>
    2a7e:	78b0      	ldrb	r0, [r6, #2]
    2a80:	2302      	movs	r3, #2
    2a82:	e00e      	b.n	2aa2 <MSS_COMBLK_send_cmd+0xea>
    2a84:	459c      	cmp	ip, r3
    2a86:	d914      	bls.n	2ab2 <MSS_COMBLK_send_cmd+0xfa>
    2a88:	18f4      	adds	r4, r6, r3
    2a8a:	7860      	ldrb	r0, [r4, #1]
    2a8c:	3301      	adds	r3, #1
    2a8e:	6110      	str	r0, [r2, #16]
    2a90:	6850      	ldr	r0, [r2, #4]
    2a92:	18f4      	adds	r4, r6, r3
    2a94:	f000 0001 	and.w	r0, r0, #1
    2a98:	9001      	str	r0, [sp, #4]
    2a9a:	9801      	ldr	r0, [sp, #4]
    2a9c:	b148      	cbz	r0, 2ab2 <MSS_COMBLK_send_cmd+0xfa>
    2a9e:	7860      	ldrb	r0, [r4, #1]
    2aa0:	3301      	adds	r3, #1
    2aa2:	6110      	str	r0, [r2, #16]
    2aa4:	6850      	ldr	r0, [r2, #4]
    2aa6:	f000 0001 	and.w	r0, r0, #1
    2aaa:	9001      	str	r0, [sp, #4]
    2aac:	9801      	ldr	r0, [sp, #4]
    2aae:	2800      	cmp	r0, #0
    2ab0:	d1e8      	bne.n	2a84 <MSS_COMBLK_send_cmd+0xcc>
    2ab2:	3301      	adds	r3, #1
    2ab4:	429f      	cmp	r7, r3
    2ab6:	d81a      	bhi.n	2aee <MSS_COMBLK_send_cmd+0x136>
    2ab8:	f04f 0e00 	mov.w	lr, #0
    2abc:	f8a1 e00c 	strh.w	lr, [r1, #12]
    2ac0:	694a      	ldr	r2, [r1, #20]
    2ac2:	f240 7348 	movw	r3, #1864	; 0x748
    2ac6:	f2c2 0300 	movt	r3, #8192	; 0x2000
    2aca:	b962      	cbnz	r2, 2ae6 <MSS_COMBLK_send_cmd+0x12e>
    2acc:	2003      	movs	r0, #3
    2ace:	f883 0024 	strb.w	r0, [r3, #36]	; 0x24
    2ad2:	f24e 1300 	movw	r3, #57600	; 0xe100
    2ad6:	f2ce 0300 	movt	r3, #57344	; 0xe000
    2ada:	f44f 2200 	mov.w	r2, #524288	; 0x80000
    2ade:	601a      	str	r2, [r3, #0]
    2ae0:	b002      	add	sp, #8
    2ae2:	e8bd 87f0 	ldmia.w	sp!, {r4, r5, r6, r7, r8, r9, sl, pc}
    2ae6:	2102      	movs	r1, #2
    2ae8:	f883 1024 	strb.w	r1, [r3, #36]	; 0x24
    2aec:	e7f1      	b.n	2ad2 <MSS_COMBLK_send_cmd+0x11a>
    2aee:	8988      	ldrh	r0, [r1, #12]
    2af0:	18f6      	adds	r6, r6, r3
    2af2:	1ac3      	subs	r3, r0, r3
    2af4:	fa1f fc83 	uxth.w	ip, r3
    2af8:	2201      	movs	r2, #1
    2afa:	f881 2024 	strb.w	r2, [r1, #36]	; 0x24
    2afe:	f8a1 c00c 	strh.w	ip, [r1, #12]
    2b02:	608e      	str	r6, [r1, #8]
    2b04:	e7e5      	b.n	2ad2 <MSS_COMBLK_send_cmd+0x11a>
    2b06:	2301      	movs	r3, #1
    2b08:	e7d4      	b.n	2ab4 <MSS_COMBLK_send_cmd+0xfc>
    2b0a:	bf00      	nop

00002b0c <process_sys_ctrl_command>:
    2b0c:	b508      	push	{r3, lr}
    2b0e:	f240 7348 	movw	r3, #1864	; 0x748
    2b12:	f2c2 0300 	movt	r3, #8192	; 0x2000
    2b16:	681b      	ldr	r3, [r3, #0]
    2b18:	b103      	cbz	r3, 2b1c <process_sys_ctrl_command+0x10>
    2b1a:	4798      	blx	r3
    2b1c:	bd08      	pop	{r3, pc}
    2b1e:	bf00      	nop

00002b20 <ComBlk_IRQHandler>:
    2b20:	f246 0300 	movw	r3, #24576	; 0x6000
    2b24:	f2c4 0301 	movt	r3, #16385	; 0x4001
    2b28:	b5f0      	push	{r4, r5, r6, r7, lr}
    2b2a:	685c      	ldr	r4, [r3, #4]
    2b2c:	689a      	ldr	r2, [r3, #8]
    2b2e:	b2e4      	uxtb	r4, r4
    2b30:	4014      	ands	r4, r2
    2b32:	f014 0f02 	tst.w	r4, #2
    2b36:	b083      	sub	sp, #12
    2b38:	d120      	bne.n	2b7c <ComBlk_IRQHandler+0x5c>
    2b3a:	f014 0f01 	tst.w	r4, #1
    2b3e:	d101      	bne.n	2b44 <ComBlk_IRQHandler+0x24>
    2b40:	b003      	add	sp, #12
    2b42:	bdf0      	pop	{r4, r5, r6, r7, pc}
    2b44:	f240 7448 	movw	r4, #1864	; 0x748
    2b48:	f2c2 0400 	movt	r4, #8192	; 0x2000
    2b4c:	f894 1024 	ldrb.w	r1, [r4, #36]	; 0x24
    2b50:	2902      	cmp	r1, #2
    2b52:	d077      	beq.n	2c44 <ComBlk_IRQHandler+0x124>
    2b54:	2905      	cmp	r1, #5
    2b56:	d027      	beq.n	2ba8 <ComBlk_IRQHandler+0x88>
    2b58:	2901      	cmp	r1, #1
    2b5a:	f000 80c8 	beq.w	2cee <ComBlk_IRQHandler+0x1ce>
    2b5e:	f246 0300 	movw	r3, #24576	; 0x6000
    2b62:	f2c4 0301 	movt	r3, #16385	; 0x4001
    2b66:	689a      	ldr	r2, [r3, #8]
    2b68:	2000      	movs	r0, #0
    2b6a:	f022 0101 	bic.w	r1, r2, #1
    2b6e:	6099      	str	r1, [r3, #8]
    2b70:	f7ff fdfa 	bl	2768 <complete_request>
    2b74:	2000      	movs	r0, #0
    2b76:	f884 0024 	strb.w	r0, [r4, #36]	; 0x24
    2b7a:	e7e1      	b.n	2b40 <ComBlk_IRQHandler+0x20>
    2b7c:	f240 7548 	movw	r5, #1864	; 0x748
    2b80:	6919      	ldr	r1, [r3, #16]
    2b82:	f2c2 0500 	movt	r5, #8192	; 0x2000
    2b86:	f895 0024 	ldrb.w	r0, [r5, #36]	; 0x24
    2b8a:	b28e      	uxth	r6, r1
    2b8c:	b2f3      	uxtb	r3, r6
    2b8e:	f406 4600 	and.w	r6, r6, #32768	; 0x8000
    2b92:	2805      	cmp	r0, #5
    2b94:	f200 8194 	bhi.w	2ec0 <ComBlk_IRQHandler+0x3a0>
    2b98:	e8df f010 	tbh	[pc, r0, lsl #1]
    2b9c:	0117011e 	.word	0x0117011e
    2ba0:	01760117 	.word	0x01760117
    2ba4:	016c013a 	.word	0x016c013a
    2ba8:	6962      	ldr	r2, [r4, #20]
    2baa:	2a00      	cmp	r2, #0
    2bac:	f000 80f5 	beq.w	2d9a <ComBlk_IRQHandler+0x27a>
    2bb0:	6961      	ldr	r1, [r4, #20]
    2bb2:	f240 7348 	movw	r3, #1864	; 0x748
    2bb6:	f2c2 0300 	movt	r3, #8192	; 0x2000
    2bba:	2900      	cmp	r1, #0
    2bbc:	f000 8198 	beq.w	2ef0 <ComBlk_IRQHandler+0x3d0>
    2bc0:	f246 0200 	movw	r2, #24576	; 0x6000
    2bc4:	f2c4 0201 	movt	r2, #16385	; 0x4001
    2bc8:	695d      	ldr	r5, [r3, #20]
    2bca:	6810      	ldr	r0, [r2, #0]
    2bcc:	6919      	ldr	r1, [r3, #16]
    2bce:	f020 0304 	bic.w	r3, r0, #4
    2bd2:	6013      	str	r3, [r2, #0]
    2bd4:	6853      	ldr	r3, [r2, #4]
    2bd6:	f003 0001 	and.w	r0, r3, #1
    2bda:	9001      	str	r0, [sp, #4]
    2bdc:	9b01      	ldr	r3, [sp, #4]
    2bde:	2b00      	cmp	r3, #0
    2be0:	f000 8199 	beq.w	2f16 <ComBlk_IRQHandler+0x3f6>
    2be4:	2d00      	cmp	r5, #0
    2be6:	f000 8196 	beq.w	2f16 <ComBlk_IRQHandler+0x3f6>
    2bea:	780b      	ldrb	r3, [r1, #0]
    2bec:	6113      	str	r3, [r2, #16]
    2bee:	6850      	ldr	r0, [r2, #4]
    2bf0:	1e6b      	subs	r3, r5, #1
    2bf2:	f000 0601 	and.w	r6, r0, #1
    2bf6:	9601      	str	r6, [sp, #4]
    2bf8:	9801      	ldr	r0, [sp, #4]
    2bfa:	f003 0601 	and.w	r6, r3, #1
    2bfe:	2301      	movs	r3, #1
    2c00:	b1d0      	cbz	r0, 2c38 <ComBlk_IRQHandler+0x118>
    2c02:	2d01      	cmp	r5, #1
    2c04:	d918      	bls.n	2c38 <ComBlk_IRQHandler+0x118>
    2c06:	b126      	cbz	r6, 2c12 <ComBlk_IRQHandler+0xf2>
    2c08:	7848      	ldrb	r0, [r1, #1]
    2c0a:	2302      	movs	r3, #2
    2c0c:	e00c      	b.n	2c28 <ComBlk_IRQHandler+0x108>
    2c0e:	429d      	cmp	r5, r3
    2c10:	d912      	bls.n	2c38 <ComBlk_IRQHandler+0x118>
    2c12:	5cc8      	ldrb	r0, [r1, r3]
    2c14:	3301      	adds	r3, #1
    2c16:	6110      	str	r0, [r2, #16]
    2c18:	6850      	ldr	r0, [r2, #4]
    2c1a:	f000 0001 	and.w	r0, r0, #1
    2c1e:	9001      	str	r0, [sp, #4]
    2c20:	9801      	ldr	r0, [sp, #4]
    2c22:	b148      	cbz	r0, 2c38 <ComBlk_IRQHandler+0x118>
    2c24:	5cc8      	ldrb	r0, [r1, r3]
    2c26:	3301      	adds	r3, #1
    2c28:	6110      	str	r0, [r2, #16]
    2c2a:	6850      	ldr	r0, [r2, #4]
    2c2c:	f000 0001 	and.w	r0, r0, #1
    2c30:	9001      	str	r0, [sp, #4]
    2c32:	9801      	ldr	r0, [sp, #4]
    2c34:	2800      	cmp	r0, #0
    2c36:	d1ea      	bne.n	2c0e <ComBlk_IRQHandler+0xee>
    2c38:	6962      	ldr	r2, [r4, #20]
    2c3a:	18c9      	adds	r1, r1, r3
    2c3c:	1ad3      	subs	r3, r2, r3
    2c3e:	6121      	str	r1, [r4, #16]
    2c40:	6163      	str	r3, [r4, #20]
    2c42:	e77d      	b.n	2b40 <ComBlk_IRQHandler+0x20>
    2c44:	6962      	ldr	r2, [r4, #20]
    2c46:	2a00      	cmp	r2, #0
    2c48:	f000 814e 	beq.w	2ee8 <ComBlk_IRQHandler+0x3c8>
    2c4c:	f246 0200 	movw	r2, #24576	; 0x6000
    2c50:	f2c4 0201 	movt	r2, #16385	; 0x4001
    2c54:	6965      	ldr	r5, [r4, #20]
    2c56:	6813      	ldr	r3, [r2, #0]
    2c58:	6920      	ldr	r0, [r4, #16]
    2c5a:	f023 0304 	bic.w	r3, r3, #4
    2c5e:	6013      	str	r3, [r2, #0]
    2c60:	6853      	ldr	r3, [r2, #4]
    2c62:	f003 0301 	and.w	r3, r3, #1
    2c66:	9301      	str	r3, [sp, #4]
    2c68:	9b01      	ldr	r3, [sp, #4]
    2c6a:	2b00      	cmp	r3, #0
    2c6c:	f000 8151 	beq.w	2f12 <ComBlk_IRQHandler+0x3f2>
    2c70:	2d00      	cmp	r5, #0
    2c72:	f000 814e 	beq.w	2f12 <ComBlk_IRQHandler+0x3f2>
    2c76:	7803      	ldrb	r3, [r0, #0]
    2c78:	6113      	str	r3, [r2, #16]
    2c7a:	6857      	ldr	r7, [r2, #4]
    2c7c:	1e6b      	subs	r3, r5, #1
    2c7e:	f007 0601 	and.w	r6, r7, #1
    2c82:	9601      	str	r6, [sp, #4]
    2c84:	9e01      	ldr	r6, [sp, #4]
    2c86:	f003 0701 	and.w	r7, r3, #1
    2c8a:	2301      	movs	r3, #1
    2c8c:	b1de      	cbz	r6, 2cc6 <ComBlk_IRQHandler+0x1a6>
    2c8e:	2d01      	cmp	r5, #1
    2c90:	d919      	bls.n	2cc6 <ComBlk_IRQHandler+0x1a6>
    2c92:	b12f      	cbz	r7, 2ca0 <ComBlk_IRQHandler+0x180>
    2c94:	7846      	ldrb	r6, [r0, #1]
    2c96:	460b      	mov	r3, r1
    2c98:	6116      	str	r6, [r2, #16]
    2c9a:	e00d      	b.n	2cb8 <ComBlk_IRQHandler+0x198>
    2c9c:	429d      	cmp	r5, r3
    2c9e:	d912      	bls.n	2cc6 <ComBlk_IRQHandler+0x1a6>
    2ca0:	5cc1      	ldrb	r1, [r0, r3]
    2ca2:	3301      	adds	r3, #1
    2ca4:	6111      	str	r1, [r2, #16]
    2ca6:	6851      	ldr	r1, [r2, #4]
    2ca8:	f001 0101 	and.w	r1, r1, #1
    2cac:	9101      	str	r1, [sp, #4]
    2cae:	9901      	ldr	r1, [sp, #4]
    2cb0:	b149      	cbz	r1, 2cc6 <ComBlk_IRQHandler+0x1a6>
    2cb2:	5cc1      	ldrb	r1, [r0, r3]
    2cb4:	3301      	adds	r3, #1
    2cb6:	6111      	str	r1, [r2, #16]
    2cb8:	6851      	ldr	r1, [r2, #4]
    2cba:	f001 0101 	and.w	r1, r1, #1
    2cbe:	9101      	str	r1, [sp, #4]
    2cc0:	9901      	ldr	r1, [sp, #4]
    2cc2:	2900      	cmp	r1, #0
    2cc4:	d1ea      	bne.n	2c9c <ComBlk_IRQHandler+0x17c>
    2cc6:	6961      	ldr	r1, [r4, #20]
    2cc8:	f240 7248 	movw	r2, #1864	; 0x748
    2ccc:	4299      	cmp	r1, r3
    2cce:	f2c2 0200 	movt	r2, #8192	; 0x2000
    2cd2:	f200 80fc 	bhi.w	2ece <ComBlk_IRQHandler+0x3ae>
    2cd6:	f246 0300 	movw	r3, #24576	; 0x6000
    2cda:	f2c4 0301 	movt	r3, #16385	; 0x4001
    2cde:	6899      	ldr	r1, [r3, #8]
    2ce0:	f021 0001 	bic.w	r0, r1, #1
    2ce4:	6098      	str	r0, [r3, #8]
    2ce6:	2003      	movs	r0, #3
    2ce8:	f882 0024 	strb.w	r0, [r2, #36]	; 0x24
    2cec:	e728      	b.n	2b40 <ComBlk_IRQHandler+0x20>
    2cee:	89a3      	ldrh	r3, [r4, #12]
    2cf0:	2b00      	cmp	r3, #0
    2cf2:	f000 80f9 	beq.w	2ee8 <ComBlk_IRQHandler+0x3c8>
    2cf6:	f246 0200 	movw	r2, #24576	; 0x6000
    2cfa:	f2c4 0201 	movt	r2, #16385	; 0x4001
    2cfe:	89a5      	ldrh	r5, [r4, #12]
    2d00:	6813      	ldr	r3, [r2, #0]
    2d02:	b2ad      	uxth	r5, r5
    2d04:	f023 0004 	bic.w	r0, r3, #4
    2d08:	6010      	str	r0, [r2, #0]
    2d0a:	6853      	ldr	r3, [r2, #4]
    2d0c:	68a0      	ldr	r0, [r4, #8]
    2d0e:	f003 0301 	and.w	r3, r3, #1
    2d12:	9301      	str	r3, [sp, #4]
    2d14:	9b01      	ldr	r3, [sp, #4]
    2d16:	2b00      	cmp	r3, #0
    2d18:	f000 80f9 	beq.w	2f0e <ComBlk_IRQHandler+0x3ee>
    2d1c:	2d00      	cmp	r5, #0
    2d1e:	f000 80f6 	beq.w	2f0e <ComBlk_IRQHandler+0x3ee>
    2d22:	7803      	ldrb	r3, [r0, #0]
    2d24:	6113      	str	r3, [r2, #16]
    2d26:	6857      	ldr	r7, [r2, #4]
    2d28:	1e6b      	subs	r3, r5, #1
    2d2a:	f007 0601 	and.w	r6, r7, #1
    2d2e:	9601      	str	r6, [sp, #4]
    2d30:	9e01      	ldr	r6, [sp, #4]
    2d32:	f003 0701 	and.w	r7, r3, #1
    2d36:	460b      	mov	r3, r1
    2d38:	b1d6      	cbz	r6, 2d70 <ComBlk_IRQHandler+0x250>
    2d3a:	2d01      	cmp	r5, #1
    2d3c:	d918      	bls.n	2d70 <ComBlk_IRQHandler+0x250>
    2d3e:	b127      	cbz	r7, 2d4a <ComBlk_IRQHandler+0x22a>
    2d40:	7841      	ldrb	r1, [r0, #1]
    2d42:	2302      	movs	r3, #2
    2d44:	e00c      	b.n	2d60 <ComBlk_IRQHandler+0x240>
    2d46:	429d      	cmp	r5, r3
    2d48:	d912      	bls.n	2d70 <ComBlk_IRQHandler+0x250>
    2d4a:	5cc1      	ldrb	r1, [r0, r3]
    2d4c:	3301      	adds	r3, #1
    2d4e:	6111      	str	r1, [r2, #16]
    2d50:	6851      	ldr	r1, [r2, #4]
    2d52:	f001 0101 	and.w	r1, r1, #1
    2d56:	9101      	str	r1, [sp, #4]
    2d58:	9901      	ldr	r1, [sp, #4]
    2d5a:	b149      	cbz	r1, 2d70 <ComBlk_IRQHandler+0x250>
    2d5c:	5cc1      	ldrb	r1, [r0, r3]
    2d5e:	3301      	adds	r3, #1
    2d60:	6111      	str	r1, [r2, #16]
    2d62:	6851      	ldr	r1, [r2, #4]
    2d64:	f001 0101 	and.w	r1, r1, #1
    2d68:	9101      	str	r1, [sp, #4]
    2d6a:	9901      	ldr	r1, [sp, #4]
    2d6c:	2900      	cmp	r1, #0
    2d6e:	d1ea      	bne.n	2d46 <ComBlk_IRQHandler+0x226>
    2d70:	89a1      	ldrh	r1, [r4, #12]
    2d72:	f240 7248 	movw	r2, #1864	; 0x748
    2d76:	fa1f fc81 	uxth.w	ip, r1
    2d7a:	459c      	cmp	ip, r3
    2d7c:	f2c2 0200 	movt	r2, #8192	; 0x2000
    2d80:	f200 80ab 	bhi.w	2eda <ComBlk_IRQHandler+0x3ba>
    2d84:	f04f 0c00 	mov.w	ip, #0
    2d88:	f8a2 c00c 	strh.w	ip, [r2, #12]
    2d8c:	6950      	ldr	r0, [r2, #20]
    2d8e:	2800      	cmp	r0, #0
    2d90:	d0a9      	beq.n	2ce6 <ComBlk_IRQHandler+0x1c6>
    2d92:	2302      	movs	r3, #2
    2d94:	f882 3024 	strb.w	r3, [r2, #36]	; 0x24
    2d98:	e6d2      	b.n	2b40 <ComBlk_IRQHandler+0x20>
    2d9a:	6aa3      	ldr	r3, [r4, #40]	; 0x28
    2d9c:	2b00      	cmp	r3, #0
    2d9e:	f000 80b3 	beq.w	2f08 <ComBlk_IRQHandler+0x3e8>
    2da2:	f104 0010 	add.w	r0, r4, #16
    2da6:	4798      	blx	r3
    2da8:	6160      	str	r0, [r4, #20]
    2daa:	6963      	ldr	r3, [r4, #20]
    2dac:	2b00      	cmp	r3, #0
    2dae:	f47f aeff 	bne.w	2bb0 <ComBlk_IRQHandler+0x90>
    2db2:	f246 0300 	movw	r3, #24576	; 0x6000
    2db6:	f2c4 0301 	movt	r3, #16385	; 0x4001
    2dba:	689a      	ldr	r2, [r3, #8]
    2dbc:	2103      	movs	r1, #3
    2dbe:	f022 0001 	bic.w	r0, r2, #1
    2dc2:	6098      	str	r0, [r3, #8]
    2dc4:	f884 1024 	strb.w	r1, [r4, #36]	; 0x24
    2dc8:	e6f2      	b.n	2bb0 <ComBlk_IRQHandler+0x90>
    2dca:	2e00      	cmp	r6, #0
    2dcc:	f43f aeb5 	beq.w	2b3a <ComBlk_IRQHandler+0x1a>
    2dd0:	4618      	mov	r0, r3
    2dd2:	f7ff fe9b 	bl	2b0c <process_sys_ctrl_command>
    2dd6:	e6b0      	b.n	2b3a <ComBlk_IRQHandler+0x1a>
    2dd8:	2e00      	cmp	r6, #0
    2dda:	f43f aeae 	beq.w	2b3a <ComBlk_IRQHandler+0x1a>
    2dde:	2bf1      	cmp	r3, #241	; 0xf1
    2de0:	d1f6      	bne.n	2dd0 <ComBlk_IRQHandler+0x2b0>
    2de2:	f04f 0200 	mov.w	r2, #0
    2de6:	83ea      	strh	r2, [r5, #30]
    2de8:	8be9      	ldrh	r1, [r5, #30]
    2dea:	69ab      	ldr	r3, [r5, #24]
    2dec:	b288      	uxth	r0, r1
    2dee:	f06f 0c0e 	mvn.w	ip, #14
    2df2:	f803 c000 	strb.w	ip, [r3, r0]
    2df6:	8be9      	ldrh	r1, [r5, #30]
    2df8:	1c48      	adds	r0, r1, #1
    2dfa:	b281      	uxth	r1, r0
    2dfc:	83e9      	strh	r1, [r5, #30]
    2dfe:	8be8      	ldrh	r0, [r5, #30]
    2e00:	fa1f fc80 	uxth.w	ip, r0
    2e04:	f803 200c 	strb.w	r2, [r3, ip]
    2e08:	2304      	movs	r3, #4
    2e0a:	f885 3024 	strb.w	r3, [r5, #36]	; 0x24
    2e0e:	e694      	b.n	2b3a <ComBlk_IRQHandler+0x1a>
    2e10:	2e00      	cmp	r6, #0
    2e12:	d1dd      	bne.n	2dd0 <ComBlk_IRQHandler+0x2b0>
    2e14:	f8b5 c01e 	ldrh.w	ip, [r5, #30]
    2e18:	69a9      	ldr	r1, [r5, #24]
    2e1a:	fa1f f08c 	uxth.w	r0, ip
    2e1e:	180f      	adds	r7, r1, r0
    2e20:	f817 2c01 	ldrb.w	r2, [r7, #-1]
    2e24:	f240 7748 	movw	r7, #1864	; 0x748
    2e28:	2af1      	cmp	r2, #241	; 0xf1
    2e2a:	f2c2 0700 	movt	r7, #8192	; 0x2000
    2e2e:	d074      	beq.n	2f1a <ComBlk_IRQHandler+0x3fa>
    2e30:	8bf8      	ldrh	r0, [r7, #30]
    2e32:	8bba      	ldrh	r2, [r7, #28]
    2e34:	fa1f fc80 	uxth.w	ip, r0
    2e38:	4594      	cmp	ip, r2
    2e3a:	d208      	bcs.n	2e4e <ComBlk_IRQHandler+0x32e>
    2e3c:	8bf8      	ldrh	r0, [r7, #30]
    2e3e:	fa1f fc80 	uxth.w	ip, r0
    2e42:	f801 300c 	strb.w	r3, [r1, ip]
    2e46:	8bf8      	ldrh	r0, [r7, #30]
    2e48:	1c43      	adds	r3, r0, #1
    2e4a:	b299      	uxth	r1, r3
    2e4c:	83f9      	strh	r1, [r7, #30]
    2e4e:	8beb      	ldrh	r3, [r5, #30]
    2e50:	f240 7548 	movw	r5, #1864	; 0x748
    2e54:	b299      	uxth	r1, r3
    2e56:	428a      	cmp	r2, r1
    2e58:	f2c2 0500 	movt	r5, #8192	; 0x2000
    2e5c:	f47f ae6d 	bne.w	2b3a <ComBlk_IRQHandler+0x1a>
    2e60:	f8b5 e01e 	ldrh.w	lr, [r5, #30]
    2e64:	fa1f f08e 	uxth.w	r0, lr
    2e68:	f7ff fc7e 	bl	2768 <complete_request>
    2e6c:	2200      	movs	r2, #0
    2e6e:	f885 2024 	strb.w	r2, [r5, #36]	; 0x24
    2e72:	e662      	b.n	2b3a <ComBlk_IRQHandler+0x1a>
    2e74:	2e00      	cmp	r6, #0
    2e76:	d1ab      	bne.n	2dd0 <ComBlk_IRQHandler+0x2b0>
    2e78:	69a9      	ldr	r1, [r5, #24]
    2e7a:	2002      	movs	r0, #2
    2e7c:	704b      	strb	r3, [r1, #1]
    2e7e:	f7ff fc73 	bl	2768 <complete_request>
    2e82:	f885 6024 	strb.w	r6, [r5, #36]	; 0x24
    2e86:	e658      	b.n	2b3a <ComBlk_IRQHandler+0x1a>
    2e88:	2e00      	cmp	r6, #0
    2e8a:	f43f ae56 	beq.w	2b3a <ComBlk_IRQHandler+0x1a>
    2e8e:	f895 c005 	ldrb.w	ip, [r5, #5]
    2e92:	f240 7248 	movw	r2, #1864	; 0x748
    2e96:	4563      	cmp	r3, ip
    2e98:	f2c2 0200 	movt	r2, #8192	; 0x2000
    2e9c:	d198      	bne.n	2dd0 <ComBlk_IRQHandler+0x2b0>
    2e9e:	f04f 0000 	mov.w	r0, #0
    2ea2:	83d0      	strh	r0, [r2, #30]
    2ea4:	8bd1      	ldrh	r1, [r2, #30]
    2ea6:	6990      	ldr	r0, [r2, #24]
    2ea8:	fa1f fc81 	uxth.w	ip, r1
    2eac:	f800 300c 	strb.w	r3, [r0, ip]
    2eb0:	8bd3      	ldrh	r3, [r2, #30]
    2eb2:	2004      	movs	r0, #4
    2eb4:	1c59      	adds	r1, r3, #1
    2eb6:	b28b      	uxth	r3, r1
    2eb8:	f882 0024 	strb.w	r0, [r2, #36]	; 0x24
    2ebc:	83d3      	strh	r3, [r2, #30]
    2ebe:	e63c      	b.n	2b3a <ComBlk_IRQHandler+0x1a>
    2ec0:	2000      	movs	r0, #0
    2ec2:	f7ff fc51 	bl	2768 <complete_request>
    2ec6:	2000      	movs	r0, #0
    2ec8:	f885 0024 	strb.w	r0, [r5, #36]	; 0x24
    2ecc:	e635      	b.n	2b3a <ComBlk_IRQHandler+0x1a>
    2ece:	6951      	ldr	r1, [r2, #20]
    2ed0:	18c0      	adds	r0, r0, r3
    2ed2:	1acb      	subs	r3, r1, r3
    2ed4:	6110      	str	r0, [r2, #16]
    2ed6:	6153      	str	r3, [r2, #20]
    2ed8:	e632      	b.n	2b40 <ComBlk_IRQHandler+0x20>
    2eda:	8991      	ldrh	r1, [r2, #12]
    2edc:	18c0      	adds	r0, r0, r3
    2ede:	1acb      	subs	r3, r1, r3
    2ee0:	b29b      	uxth	r3, r3
    2ee2:	6090      	str	r0, [r2, #8]
    2ee4:	8193      	strh	r3, [r2, #12]
    2ee6:	e62b      	b.n	2b40 <ComBlk_IRQHandler+0x20>
    2ee8:	b003      	add	sp, #12
    2eea:	e8bd 40f0 	ldmia.w	sp!, {r4, r5, r6, r7, lr}
    2eee:	e449      	b.n	2784 <abort_current_cmd>
    2ef0:	f246 0200 	movw	r2, #24576	; 0x6000
    2ef4:	f2c4 0201 	movt	r2, #16385	; 0x4001
    2ef8:	6890      	ldr	r0, [r2, #8]
    2efa:	f020 0101 	bic.w	r1, r0, #1
    2efe:	2003      	movs	r0, #3
    2f00:	6091      	str	r1, [r2, #8]
    2f02:	f883 0024 	strb.w	r0, [r3, #36]	; 0x24
    2f06:	e61b      	b.n	2b40 <ComBlk_IRQHandler+0x20>
    2f08:	f7ff fc3c 	bl	2784 <abort_current_cmd>
    2f0c:	e650      	b.n	2bb0 <ComBlk_IRQHandler+0x90>
    2f0e:	2300      	movs	r3, #0
    2f10:	e72e      	b.n	2d70 <ComBlk_IRQHandler+0x250>
    2f12:	2300      	movs	r3, #0
    2f14:	e6d7      	b.n	2cc6 <ComBlk_IRQHandler+0x1a6>
    2f16:	2300      	movs	r3, #0
    2f18:	e68e      	b.n	2c38 <ComBlk_IRQHandler+0x118>
    2f1a:	8bf8      	ldrh	r0, [r7, #30]
    2f1c:	b282      	uxth	r2, r0
    2f1e:	548b      	strb	r3, [r1, r2]
    2f20:	f8b7 e01e 	ldrh.w	lr, [r7, #30]
    2f24:	fa1f f38e 	uxth.w	r3, lr
    2f28:	18c9      	adds	r1, r1, r3
    2f2a:	f811 0c01 	ldrb.w	r0, [r1, #-1]
    2f2e:	f7ff fded 	bl	2b0c <process_sys_ctrl_command>
    2f32:	f887 6024 	strb.w	r6, [r7, #36]	; 0x24
    2f36:	e600      	b.n	2b3a <ComBlk_IRQHandler+0x1a>

00002f38 <asynchronous_event_handler>:
    2f38:	b500      	push	{lr}
    2f3a:	28e0      	cmp	r0, #224	; 0xe0
    2f3c:	b083      	sub	sp, #12
    2f3e:	d01d      	beq.n	2f7c <asynchronous_event_handler+0x44>
    2f40:	28e1      	cmp	r0, #225	; 0xe1
    2f42:	d044      	beq.n	2fce <asynchronous_event_handler+0x96>
    2f44:	f080 0c80 	eor.w	ip, r0, #128	; 0x80
    2f48:	28f1      	cmp	r0, #241	; 0xf1
    2f4a:	bf14      	ite	ne
    2f4c:	2300      	movne	r3, #0
    2f4e:	2301      	moveq	r3, #1
    2f50:	f1bc 0f1f 	cmp.w	ip, #31
    2f54:	bf98      	it	ls
    2f56:	f043 0301 	orrls.w	r3, r3, #1
    2f5a:	b933      	cbnz	r3, 2f6a <asynchronous_event_handler+0x32>
    2f5c:	28a0      	cmp	r0, #160	; 0xa0
    2f5e:	d004      	beq.n	2f6a <asynchronous_event_handler+0x32>
    2f60:	f100 014f 	add.w	r1, r0, #79	; 0x4f
    2f64:	b2ca      	uxtb	r2, r1
    2f66:	2a06      	cmp	r2, #6
    2f68:	d806      	bhi.n	2f78 <asynchronous_event_handler+0x40>
    2f6a:	f240 7274 	movw	r2, #1908	; 0x774
    2f6e:	f2c2 0200 	movt	r2, #8192	; 0x2000
    2f72:	7951      	ldrb	r1, [r2, #5]
    2f74:	6813      	ldr	r3, [r2, #0]
    2f76:	4798      	blx	r3
    2f78:	b003      	add	sp, #12
    2f7a:	bd00      	pop	{pc}
    2f7c:	f248 0100 	movw	r1, #32768	; 0x8000
    2f80:	f241 3388 	movw	r3, #5000	; 0x1388
    2f84:	9301      	str	r3, [sp, #4]
    2f86:	f2c4 0103 	movt	r1, #16387	; 0x4003
    2f8a:	f8d1 0098 	ldr.w	r0, [r1, #152]	; 0x98
    2f8e:	9b01      	ldr	r3, [sp, #4]
    2f90:	1e5a      	subs	r2, r3, #1
    2f92:	f410 5f80 	tst.w	r0, #4096	; 0x1000
    2f96:	9201      	str	r2, [sp, #4]
    2f98:	d102      	bne.n	2fa0 <asynchronous_event_handler+0x68>
    2f9a:	9801      	ldr	r0, [sp, #4]
    2f9c:	2800      	cmp	r0, #0
    2f9e:	d1f4      	bne.n	2f8a <asynchronous_event_handler+0x52>
    2fa0:	f248 0200 	movw	r2, #32768	; 0x8000
    2fa4:	f2c4 0203 	movt	r2, #16387	; 0x4003
    2fa8:	f8d2 3098 	ldr.w	r3, [r2, #152]	; 0x98
    2fac:	f240 7174 	movw	r1, #1908	; 0x774
    2fb0:	f2c2 0100 	movt	r1, #8192	; 0x2000
    2fb4:	f423 6c6e 	bic.w	ip, r3, #3808	; 0xee0
    2fb8:	680b      	ldr	r3, [r1, #0]
    2fba:	f02c 001c 	bic.w	r0, ip, #28
    2fbe:	f8c2 0098 	str.w	r0, [r2, #152]	; 0x98
    2fc2:	2b00      	cmp	r3, #0
    2fc4:	d0d8      	beq.n	2f78 <asynchronous_event_handler+0x40>
    2fc6:	7949      	ldrb	r1, [r1, #5]
    2fc8:	20e0      	movs	r0, #224	; 0xe0
    2fca:	4798      	blx	r3
    2fcc:	e7d4      	b.n	2f78 <asynchronous_event_handler+0x40>
    2fce:	f248 0100 	movw	r1, #32768	; 0x8000
    2fd2:	f241 3088 	movw	r0, #5000	; 0x1388
    2fd6:	9001      	str	r0, [sp, #4]
    2fd8:	f2c4 0103 	movt	r1, #16387	; 0x4003
    2fdc:	f8d1 3098 	ldr.w	r3, [r1, #152]	; 0x98
    2fe0:	9801      	ldr	r0, [sp, #4]
    2fe2:	1e42      	subs	r2, r0, #1
    2fe4:	f413 5f80 	tst.w	r3, #4096	; 0x1000
    2fe8:	9201      	str	r2, [sp, #4]
    2fea:	d002      	beq.n	2ff2 <asynchronous_event_handler+0xba>
    2fec:	9b01      	ldr	r3, [sp, #4]
    2fee:	2b00      	cmp	r3, #0
    2ff0:	d1f4      	bne.n	2fdc <asynchronous_event_handler+0xa4>
    2ff2:	f240 7274 	movw	r2, #1908	; 0x774
    2ff6:	f2c2 0200 	movt	r2, #8192	; 0x2000
    2ffa:	6890      	ldr	r0, [r2, #8]
    2ffc:	f248 0100 	movw	r1, #32768	; 0x8000
    3000:	6813      	ldr	r3, [r2, #0]
    3002:	f2c4 0103 	movt	r1, #16387	; 0x4003
    3006:	f8c1 0098 	str.w	r0, [r1, #152]	; 0x98
    300a:	2b00      	cmp	r3, #0
    300c:	d0b4      	beq.n	2f78 <asynchronous_event_handler+0x40>
    300e:	7951      	ldrb	r1, [r2, #5]
    3010:	20e1      	movs	r0, #225	; 0xe1
    3012:	4798      	blx	r3
    3014:	e7b0      	b.n	2f78 <asynchronous_event_handler+0x40>
    3016:	bf00      	nop

00003018 <isp_sys_completion_handler>:
    3018:	b508      	push	{r3, lr}
    301a:	f240 0310 	movw	r3, #16
    301e:	f2c2 0300 	movt	r3, #8192	; 0x2000
    3022:	6819      	ldr	r1, [r3, #0]
    3024:	f248 0300 	movw	r3, #32768	; 0x8000
    3028:	f2c4 0303 	movt	r3, #16387	; 0x4003
    302c:	f240 7274 	movw	r2, #1908	; 0x774
    3030:	60d9      	str	r1, [r3, #12]
    3032:	f2c2 0200 	movt	r2, #8192	; 0x2000
    3036:	6911      	ldr	r1, [r2, #16]
    3038:	68d2      	ldr	r2, [r2, #12]
    303a:	f8c3 209c 	str.w	r2, [r3, #156]	; 0x9c
    303e:	b109      	cbz	r1, 3044 <isp_sys_completion_handler+0x2c>
    3040:	7840      	ldrb	r0, [r0, #1]
    3042:	4788      	blx	r1
    3044:	bd08      	pop	{r3, pc}
    3046:	bf00      	nop

00003048 <request_completion_handler>:
    3048:	f240 7374 	movw	r3, #1908	; 0x774
    304c:	f2c2 0300 	movt	r3, #8192	; 0x2000
    3050:	2200      	movs	r2, #0
    3052:	751a      	strb	r2, [r3, #20]
    3054:	82d9      	strh	r1, [r3, #22]
    3056:	4770      	bx	lr

00003058 <MSS_SYS_clear_mesh_short>:
    3058:	b5f0      	push	{r4, r5, r6, r7, lr}
    305a:	f240 7474 	movw	r4, #1908	; 0x774
    305e:	b087      	sub	sp, #28
    3060:	f2c2 0400 	movt	r4, #8192	; 0x2000
    3064:	7d23      	ldrb	r3, [r4, #20]
    3066:	f240 7574 	movw	r5, #1908	; 0x774
    306a:	f2c2 0500 	movt	r5, #8192	; 0x2000
    306e:	469c      	mov	ip, r3
    3070:	2b00      	cmp	r3, #0
    3072:	d1f7      	bne.n	3064 <MSS_SYS_clear_mesh_short+0xc>
    3074:	2702      	movs	r7, #2
    3076:	f04f 0e01 	mov.w	lr, #1
    307a:	f243 0649 	movw	r6, #12361	; 0x3049
    307e:	f885 e014 	strb.w	lr, [r5, #20]
    3082:	f2c0 0600 	movt	r6, #0
    3086:	f8a5 c016 	strh.w	ip, [r5, #22]
    308a:	f04f 0e1f 	mov.w	lr, #31
    308e:	f04f 0c20 	mov.w	ip, #32
    3092:	ad04      	add	r5, sp, #16
    3094:	461a      	mov	r2, r3
    3096:	4639      	mov	r1, r7
    3098:	a805      	add	r0, sp, #20
    309a:	f88d e014 	strb.w	lr, [sp, #20]
    309e:	f88d c015 	strb.w	ip, [sp, #21]
    30a2:	9500      	str	r5, [sp, #0]
    30a4:	9602      	str	r6, [sp, #8]
    30a6:	9701      	str	r7, [sp, #4]
    30a8:	f7ff fc86 	bl	29b8 <MSS_COMBLK_send_cmd>
    30ac:	7d22      	ldrb	r2, [r4, #20]
    30ae:	f240 7374 	movw	r3, #1908	; 0x774
    30b2:	f2c2 0300 	movt	r3, #8192	; 0x2000
    30b6:	2a00      	cmp	r2, #0
    30b8:	d1f8      	bne.n	30ac <MSS_SYS_clear_mesh_short+0x54>
    30ba:	8ad9      	ldrh	r1, [r3, #22]
    30bc:	2902      	cmp	r1, #2
    30be:	d002      	beq.n	30c6 <MSS_SYS_clear_mesh_short+0x6e>
    30c0:	20c8      	movs	r0, #200	; 0xc8
    30c2:	b007      	add	sp, #28
    30c4:	bdf0      	pop	{r4, r5, r6, r7, pc}
    30c6:	f89d 3010 	ldrb.w	r3, [sp, #16]
    30ca:	2b1f      	cmp	r3, #31
    30cc:	bf08      	it	eq
    30ce:	f89d 0011 	ldrbeq.w	r0, [sp, #17]
    30d2:	d1f5      	bne.n	30c0 <MSS_SYS_clear_mesh_short+0x68>
    30d4:	e7f5      	b.n	30c2 <MSS_SYS_clear_mesh_short+0x6a>
    30d6:	bf00      	nop

000030d8 <MSS_SYS_clear_lock_parity>:
    30d8:	b5f0      	push	{r4, r5, r6, r7, lr}
    30da:	f240 7474 	movw	r4, #1908	; 0x774
    30de:	b087      	sub	sp, #28
    30e0:	f2c2 0400 	movt	r4, #8192	; 0x2000
    30e4:	7d23      	ldrb	r3, [r4, #20]
    30e6:	f240 7574 	movw	r5, #1908	; 0x774
    30ea:	f2c2 0500 	movt	r5, #8192	; 0x2000
    30ee:	469c      	mov	ip, r3
    30f0:	2b00      	cmp	r3, #0
    30f2:	d1f7      	bne.n	30e4 <MSS_SYS_clear_lock_parity+0xc>
    30f4:	f04f 0e01 	mov.w	lr, #1
    30f8:	f885 e014 	strb.w	lr, [r5, #20]
    30fc:	2702      	movs	r7, #2
    30fe:	f8a5 c016 	strh.w	ip, [r5, #22]
    3102:	f243 0649 	movw	r6, #12361	; 0x3049
    3106:	f04f 0c10 	mov.w	ip, #16
    310a:	f2c0 0600 	movt	r6, #0
    310e:	f04f 0e1f 	mov.w	lr, #31
    3112:	eb0d 050c 	add.w	r5, sp, ip
    3116:	461a      	mov	r2, r3
    3118:	4639      	mov	r1, r7
    311a:	a805      	add	r0, sp, #20
    311c:	f88d e014 	strb.w	lr, [sp, #20]
    3120:	f88d c015 	strb.w	ip, [sp, #21]
    3124:	9500      	str	r5, [sp, #0]
    3126:	9602      	str	r6, [sp, #8]
    3128:	9701      	str	r7, [sp, #4]
    312a:	f7ff fc45 	bl	29b8 <MSS_COMBLK_send_cmd>
    312e:	7d22      	ldrb	r2, [r4, #20]
    3130:	f240 7374 	movw	r3, #1908	; 0x774
    3134:	f2c2 0300 	movt	r3, #8192	; 0x2000
    3138:	2a00      	cmp	r2, #0
    313a:	d1f8      	bne.n	312e <MSS_SYS_clear_lock_parity+0x56>
    313c:	8ad9      	ldrh	r1, [r3, #22]
    313e:	2902      	cmp	r1, #2
    3140:	d002      	beq.n	3148 <MSS_SYS_clear_lock_parity+0x70>
    3142:	20c8      	movs	r0, #200	; 0xc8
    3144:	b007      	add	sp, #28
    3146:	bdf0      	pop	{r4, r5, r6, r7, pc}
    3148:	f89d 3010 	ldrb.w	r3, [sp, #16]
    314c:	2b1f      	cmp	r3, #31
    314e:	bf08      	it	eq
    3150:	f89d 0011 	ldrbeq.w	r0, [sp, #17]
    3154:	d1f5      	bne.n	3142 <MSS_SYS_clear_lock_parity+0x6a>
    3156:	e7f5      	b.n	3144 <MSS_SYS_clear_lock_parity+0x6c>

00003158 <MSS_SYS_disable_puf_power_down>:
    3158:	b5f0      	push	{r4, r5, r6, r7, lr}
    315a:	f240 7474 	movw	r4, #1908	; 0x774
    315e:	b087      	sub	sp, #28
    3160:	f2c2 0400 	movt	r4, #8192	; 0x2000
    3164:	7d23      	ldrb	r3, [r4, #20]
    3166:	f240 7574 	movw	r5, #1908	; 0x774
    316a:	f2c2 0500 	movt	r5, #8192	; 0x2000
    316e:	469c      	mov	ip, r3
    3170:	2b00      	cmp	r3, #0
    3172:	d1f7      	bne.n	3164 <MSS_SYS_disable_puf_power_down+0xc>
    3174:	2702      	movs	r7, #2
    3176:	f04f 0e01 	mov.w	lr, #1
    317a:	f243 0649 	movw	r6, #12361	; 0x3049
    317e:	f885 e014 	strb.w	lr, [r5, #20]
    3182:	f2c0 0600 	movt	r6, #0
    3186:	f8a5 c016 	strh.w	ip, [r5, #22]
    318a:	f04f 0e1f 	mov.w	lr, #31
    318e:	f04f 0c08 	mov.w	ip, #8
    3192:	ad04      	add	r5, sp, #16
    3194:	461a      	mov	r2, r3
    3196:	4639      	mov	r1, r7
    3198:	a805      	add	r0, sp, #20
    319a:	f88d e014 	strb.w	lr, [sp, #20]
    319e:	f88d c015 	strb.w	ip, [sp, #21]
    31a2:	9500      	str	r5, [sp, #0]
    31a4:	9602      	str	r6, [sp, #8]
    31a6:	9701      	str	r7, [sp, #4]
    31a8:	f7ff fc06 	bl	29b8 <MSS_COMBLK_send_cmd>
    31ac:	7d22      	ldrb	r2, [r4, #20]
    31ae:	f240 7374 	movw	r3, #1908	; 0x774
    31b2:	f2c2 0300 	movt	r3, #8192	; 0x2000
    31b6:	2a00      	cmp	r2, #0
    31b8:	d1f8      	bne.n	31ac <MSS_SYS_disable_puf_power_down+0x54>
    31ba:	8ad9      	ldrh	r1, [r3, #22]
    31bc:	2902      	cmp	r1, #2
    31be:	d002      	beq.n	31c6 <MSS_SYS_disable_puf_power_down+0x6e>
    31c0:	20c8      	movs	r0, #200	; 0xc8
    31c2:	b007      	add	sp, #28
    31c4:	bdf0      	pop	{r4, r5, r6, r7, pc}
    31c6:	f89d 3010 	ldrb.w	r3, [sp, #16]
    31ca:	2b1f      	cmp	r3, #31
    31cc:	bf08      	it	eq
    31ce:	f89d 0011 	ldrbeq.w	r0, [sp, #17]
    31d2:	d1f5      	bne.n	31c0 <MSS_SYS_disable_puf_power_down+0x68>
    31d4:	e7f5      	b.n	31c2 <MSS_SYS_disable_puf_power_down+0x6a>
    31d6:	bf00      	nop

000031d8 <MSS_SYS_enable_puf_power_down>:
    31d8:	b5f0      	push	{r4, r5, r6, r7, lr}
    31da:	f240 7474 	movw	r4, #1908	; 0x774
    31de:	b087      	sub	sp, #28
    31e0:	f2c2 0400 	movt	r4, #8192	; 0x2000
    31e4:	7d23      	ldrb	r3, [r4, #20]
    31e6:	f240 7574 	movw	r5, #1908	; 0x774
    31ea:	f2c2 0500 	movt	r5, #8192	; 0x2000
    31ee:	469c      	mov	ip, r3
    31f0:	2b00      	cmp	r3, #0
    31f2:	d1f7      	bne.n	31e4 <MSS_SYS_enable_puf_power_down+0xc>
    31f4:	2702      	movs	r7, #2
    31f6:	f04f 0e01 	mov.w	lr, #1
    31fa:	f243 0649 	movw	r6, #12361	; 0x3049
    31fe:	f885 e014 	strb.w	lr, [r5, #20]
    3202:	f2c0 0600 	movt	r6, #0
    3206:	f8a5 c016 	strh.w	ip, [r5, #22]
    320a:	f04f 0e1f 	mov.w	lr, #31
    320e:	f04f 0c04 	mov.w	ip, #4
    3212:	ad04      	add	r5, sp, #16
    3214:	461a      	mov	r2, r3
    3216:	4639      	mov	r1, r7
    3218:	a805      	add	r0, sp, #20
    321a:	f88d e014 	strb.w	lr, [sp, #20]
    321e:	f88d c015 	strb.w	ip, [sp, #21]
    3222:	9500      	str	r5, [sp, #0]
    3224:	9602      	str	r6, [sp, #8]
    3226:	9701      	str	r7, [sp, #4]
    3228:	f7ff fbc6 	bl	29b8 <MSS_COMBLK_send_cmd>
    322c:	7d22      	ldrb	r2, [r4, #20]
    322e:	f240 7374 	movw	r3, #1908	; 0x774
    3232:	f2c2 0300 	movt	r3, #8192	; 0x2000
    3236:	2a00      	cmp	r2, #0
    3238:	d1f8      	bne.n	322c <MSS_SYS_enable_puf_power_down+0x54>
    323a:	8ad9      	ldrh	r1, [r3, #22]
    323c:	2902      	cmp	r1, #2
    323e:	d002      	beq.n	3246 <MSS_SYS_enable_puf_power_down+0x6e>
    3240:	20c8      	movs	r0, #200	; 0xc8
    3242:	b007      	add	sp, #28
    3244:	bdf0      	pop	{r4, r5, r6, r7, pc}
    3246:	f89d 3010 	ldrb.w	r3, [sp, #16]
    324a:	2b1f      	cmp	r3, #31
    324c:	bf08      	it	eq
    324e:	f89d 0011 	ldrbeq.w	r0, [sp, #17]
    3252:	d1f5      	bne.n	3240 <MSS_SYS_enable_puf_power_down+0x68>
    3254:	e7f5      	b.n	3242 <MSS_SYS_enable_puf_power_down+0x6a>
    3256:	bf00      	nop

00003258 <MSS_SYS_stop_clock_monitor>:
    3258:	b5f0      	push	{r4, r5, r6, r7, lr}
    325a:	f240 7474 	movw	r4, #1908	; 0x774
    325e:	b087      	sub	sp, #28
    3260:	f2c2 0400 	movt	r4, #8192	; 0x2000
    3264:	7d23      	ldrb	r3, [r4, #20]
    3266:	f240 7574 	movw	r5, #1908	; 0x774
    326a:	f2c2 0500 	movt	r5, #8192	; 0x2000
    326e:	469c      	mov	ip, r3
    3270:	2b00      	cmp	r3, #0
    3272:	d1f7      	bne.n	3264 <MSS_SYS_stop_clock_monitor+0xc>
    3274:	2602      	movs	r6, #2
    3276:	f04f 0e01 	mov.w	lr, #1
    327a:	f243 0749 	movw	r7, #12361	; 0x3049
    327e:	f885 e014 	strb.w	lr, [r5, #20]
    3282:	f2c0 0700 	movt	r7, #0
    3286:	f8a5 c016 	strh.w	ip, [r5, #22]
    328a:	f04f 0e1f 	mov.w	lr, #31
    328e:	ad04      	add	r5, sp, #16
    3290:	461a      	mov	r2, r3
    3292:	4631      	mov	r1, r6
    3294:	a805      	add	r0, sp, #20
    3296:	f88d e014 	strb.w	lr, [sp, #20]
    329a:	9500      	str	r5, [sp, #0]
    329c:	9702      	str	r7, [sp, #8]
    329e:	f88d 6015 	strb.w	r6, [sp, #21]
    32a2:	9601      	str	r6, [sp, #4]
    32a4:	f7ff fb88 	bl	29b8 <MSS_COMBLK_send_cmd>
    32a8:	7d22      	ldrb	r2, [r4, #20]
    32aa:	f240 7374 	movw	r3, #1908	; 0x774
    32ae:	f2c2 0300 	movt	r3, #8192	; 0x2000
    32b2:	2a00      	cmp	r2, #0
    32b4:	d1f8      	bne.n	32a8 <MSS_SYS_stop_clock_monitor+0x50>
    32b6:	8ad9      	ldrh	r1, [r3, #22]
    32b8:	2902      	cmp	r1, #2
    32ba:	d002      	beq.n	32c2 <MSS_SYS_stop_clock_monitor+0x6a>
    32bc:	20c8      	movs	r0, #200	; 0xc8
    32be:	b007      	add	sp, #28
    32c0:	bdf0      	pop	{r4, r5, r6, r7, pc}
    32c2:	f89d c010 	ldrb.w	ip, [sp, #16]
    32c6:	f1bc 0f1f 	cmp.w	ip, #31
    32ca:	bf08      	it	eq
    32cc:	f89d 0011 	ldrbeq.w	r0, [sp, #17]
    32d0:	d1f4      	bne.n	32bc <MSS_SYS_stop_clock_monitor+0x64>
    32d2:	e7f4      	b.n	32be <MSS_SYS_stop_clock_monitor+0x66>

000032d4 <MSS_SYS_start_clock_monitor>:
    32d4:	e92d 41f0 	stmdb	sp!, {r4, r5, r6, r7, r8, lr}
    32d8:	f240 7474 	movw	r4, #1908	; 0x774
    32dc:	b086      	sub	sp, #24
    32de:	f2c2 0400 	movt	r4, #8192	; 0x2000
    32e2:	7d23      	ldrb	r3, [r4, #20]
    32e4:	f240 7574 	movw	r5, #1908	; 0x774
    32e8:	f2c2 0500 	movt	r5, #8192	; 0x2000
    32ec:	469c      	mov	ip, r3
    32ee:	2b00      	cmp	r3, #0
    32f0:	d1f7      	bne.n	32e2 <MSS_SYS_start_clock_monitor+0xe>
    32f2:	2702      	movs	r7, #2
    32f4:	f04f 0e1f 	mov.w	lr, #31
    32f8:	f243 0649 	movw	r6, #12361	; 0x3049
    32fc:	f04f 0801 	mov.w	r8, #1
    3300:	f2c0 0600 	movt	r6, #0
    3304:	f88d e014 	strb.w	lr, [sp, #20]
    3308:	461a      	mov	r2, r3
    330a:	f10d 0e10 	add.w	lr, sp, #16
    330e:	4639      	mov	r1, r7
    3310:	a805      	add	r0, sp, #20
    3312:	f885 8014 	strb.w	r8, [r5, #20]
    3316:	f88d 8015 	strb.w	r8, [sp, #21]
    331a:	f8cd e000 	str.w	lr, [sp]
    331e:	9602      	str	r6, [sp, #8]
    3320:	f8a5 c016 	strh.w	ip, [r5, #22]
    3324:	9701      	str	r7, [sp, #4]
    3326:	f7ff fb47 	bl	29b8 <MSS_COMBLK_send_cmd>
    332a:	7d22      	ldrb	r2, [r4, #20]
    332c:	f240 7374 	movw	r3, #1908	; 0x774
    3330:	f2c2 0300 	movt	r3, #8192	; 0x2000
    3334:	2a00      	cmp	r2, #0
    3336:	d1f8      	bne.n	332a <MSS_SYS_start_clock_monitor+0x56>
    3338:	8ad9      	ldrh	r1, [r3, #22]
    333a:	2902      	cmp	r1, #2
    333c:	d003      	beq.n	3346 <MSS_SYS_start_clock_monitor+0x72>
    333e:	20c8      	movs	r0, #200	; 0xc8
    3340:	b006      	add	sp, #24
    3342:	e8bd 81f0 	ldmia.w	sp!, {r4, r5, r6, r7, r8, pc}
    3346:	f89d c010 	ldrb.w	ip, [sp, #16]
    334a:	f1bc 0f1f 	cmp.w	ip, #31
    334e:	bf08      	it	eq
    3350:	f89d 0011 	ldrbeq.w	r0, [sp, #17]
    3354:	d1f3      	bne.n	333e <MSS_SYS_start_clock_monitor+0x6a>
    3356:	e7f3      	b.n	3340 <MSS_SYS_start_clock_monitor+0x6c>

00003358 <MSS_SYS_check_digest>:
    3358:	e92d 41f0 	stmdb	sp!, {r4, r5, r6, r7, r8, lr}
    335c:	f240 7474 	movw	r4, #1908	; 0x774
    3360:	b086      	sub	sp, #24
    3362:	4686      	mov	lr, r0
    3364:	f2c2 0400 	movt	r4, #8192	; 0x2000
    3368:	7d23      	ldrb	r3, [r4, #20]
    336a:	f240 7574 	movw	r5, #1908	; 0x774
    336e:	f2c2 0500 	movt	r5, #8192	; 0x2000
    3372:	469c      	mov	ip, r3
    3374:	2b00      	cmp	r3, #0
    3376:	d1f7      	bne.n	3368 <MSS_SYS_check_digest+0x10>
    3378:	2702      	movs	r7, #2
    337a:	f04f 0801 	mov.w	r8, #1
    337e:	f243 0649 	movw	r6, #12361	; 0x3049
    3382:	f885 8014 	strb.w	r8, [r5, #20]
    3386:	f2c0 0600 	movt	r6, #0
    338a:	f8a5 c016 	strh.w	ip, [r5, #22]
    338e:	f04f 0817 	mov.w	r8, #23
    3392:	ad04      	add	r5, sp, #16
    3394:	461a      	mov	r2, r3
    3396:	4639      	mov	r1, r7
    3398:	a805      	add	r0, sp, #20
    339a:	f88d 8014 	strb.w	r8, [sp, #20]
    339e:	f88d e015 	strb.w	lr, [sp, #21]
    33a2:	9500      	str	r5, [sp, #0]
    33a4:	9602      	str	r6, [sp, #8]
    33a6:	9701      	str	r7, [sp, #4]
    33a8:	f7ff fb06 	bl	29b8 <MSS_COMBLK_send_cmd>
    33ac:	7d22      	ldrb	r2, [r4, #20]
    33ae:	f240 7374 	movw	r3, #1908	; 0x774
    33b2:	f2c2 0300 	movt	r3, #8192	; 0x2000
    33b6:	2a00      	cmp	r2, #0
    33b8:	d1f8      	bne.n	33ac <MSS_SYS_check_digest+0x54>
    33ba:	8ad9      	ldrh	r1, [r3, #22]
    33bc:	2902      	cmp	r1, #2
    33be:	d003      	beq.n	33c8 <MSS_SYS_check_digest+0x70>
    33c0:	20c8      	movs	r0, #200	; 0xc8
    33c2:	b006      	add	sp, #24
    33c4:	e8bd 81f0 	ldmia.w	sp!, {r4, r5, r6, r7, r8, pc}
    33c8:	f89d c010 	ldrb.w	ip, [sp, #16]
    33cc:	f1bc 0f17 	cmp.w	ip, #23
    33d0:	bf08      	it	eq
    33d2:	f89d 0011 	ldrbeq.w	r0, [sp, #17]
    33d6:	d1f3      	bne.n	33c0 <MSS_SYS_check_digest+0x68>
    33d8:	e7f3      	b.n	33c2 <MSS_SYS_check_digest+0x6a>
    33da:	bf00      	nop

000033dc <MSS_SYS_initiate_iap>:
    33dc:	f248 0300 	movw	r3, #32768	; 0x8000
    33e0:	f2c4 0303 	movt	r3, #16387	; 0x4003
    33e4:	68da      	ldr	r2, [r3, #12]
    33e6:	e92d 4ff0 	stmdb	sp!, {r4, r5, r6, r7, r8, r9, sl, fp, lr}
    33ea:	f240 0510 	movw	r5, #16
    33ee:	f2c2 0500 	movt	r5, #8192	; 0x2000
    33f2:	602a      	str	r2, [r5, #0]
    33f4:	f8d3 709c 	ldr.w	r7, [r3, #156]	; 0x9c
    33f8:	f240 7474 	movw	r4, #1908	; 0x774
    33fc:	f2c2 0400 	movt	r4, #8192	; 0x2000
    3400:	60e7      	str	r7, [r4, #12]
    3402:	f8d3 6098 	ldr.w	r6, [r3, #152]	; 0x98
    3406:	f442 57ff 	orr.w	r7, r2, #8160	; 0x1fe0
    340a:	60a6      	str	r6, [r4, #8]
    340c:	60df      	str	r7, [r3, #12]
    340e:	f8d3 209c 	ldr.w	r2, [r3, #156]	; 0x9c
    3412:	2200      	movs	r2, #0
    3414:	f8c3 209c 	str.w	r2, [r3, #156]	; 0x9c
    3418:	f8d3 709c 	ldr.w	r7, [r3, #156]	; 0x9c
    341c:	4680      	mov	r8, r0
    341e:	f447 7600 	orr.w	r6, r7, #512	; 0x200
    3422:	f8c3 609c 	str.w	r6, [r3, #156]	; 0x9c
    3426:	f8d3 009c 	ldr.w	r0, [r3, #156]	; 0x9c
    342a:	b08b      	sub	sp, #44	; 0x2c
    342c:	f440 6280 	orr.w	r2, r0, #1024	; 0x400
    3430:	468e      	mov	lr, r1
    3432:	f8c3 209c 	str.w	r2, [r3, #156]	; 0x9c
    3436:	7d21      	ldrb	r1, [r4, #20]
    3438:	f240 7674 	movw	r6, #1908	; 0x774
    343c:	f2c2 0600 	movt	r6, #8192	; 0x2000
    3440:	468c      	mov	ip, r1
    3442:	2900      	cmp	r1, #0
    3444:	d1f7      	bne.n	3436 <MSS_SYS_initiate_iap+0x5a>
    3446:	ea4f 631e 	mov.w	r3, lr, lsr #24
    344a:	9305      	str	r3, [sp, #20]
    344c:	f04f 0a01 	mov.w	sl, #1
    3450:	f886 a014 	strb.w	sl, [r6, #20]
    3454:	f243 0749 	movw	r7, #12361	; 0x3049
    3458:	f8a6 c016 	strh.w	ip, [r6, #22]
    345c:	4663      	mov	r3, ip
    345e:	ae09      	add	r6, sp, #36	; 0x24
    3460:	f8dd c014 	ldr.w	ip, [sp, #20]
    3464:	460a      	mov	r2, r1
    3466:	f2c0 0700 	movt	r7, #0
    346a:	ea4f 291e 	mov.w	r9, lr, lsr #8
    346e:	ea4f 4b1e 	mov.w	fp, lr, lsr #16
    3472:	f04f 0a14 	mov.w	sl, #20
    3476:	9600      	str	r6, [sp, #0]
    3478:	a807      	add	r0, sp, #28
    347a:	2602      	movs	r6, #2
    347c:	2106      	movs	r1, #6
    347e:	f88d a01c 	strb.w	sl, [sp, #28]
    3482:	f88d 801d 	strb.w	r8, [sp, #29]
    3486:	f88d 901f 	strb.w	r9, [sp, #31]
    348a:	f88d b020 	strb.w	fp, [sp, #32]
    348e:	f88d c021 	strb.w	ip, [sp, #33]	; 0x21
    3492:	9601      	str	r6, [sp, #4]
    3494:	9702      	str	r7, [sp, #8]
    3496:	f88d e01e 	strb.w	lr, [sp, #30]
    349a:	f7ff fa8d 	bl	29b8 <MSS_COMBLK_send_cmd>
    349e:	7d22      	ldrb	r2, [r4, #20]
    34a0:	f240 7374 	movw	r3, #1908	; 0x774
    34a4:	f2c2 0300 	movt	r3, #8192	; 0x2000
    34a8:	2a00      	cmp	r2, #0
    34aa:	d1f8      	bne.n	349e <MSS_SYS_initiate_iap+0xc2>
    34ac:	f8b3 e016 	ldrh.w	lr, [r3, #22]
    34b0:	f1be 0f02 	cmp.w	lr, #2
    34b4:	d00f      	beq.n	34d6 <MSS_SYS_initiate_iap+0xfa>
    34b6:	20c8      	movs	r0, #200	; 0xc8
    34b8:	682a      	ldr	r2, [r5, #0]
    34ba:	f248 0300 	movw	r3, #32768	; 0x8000
    34be:	f2c4 0303 	movt	r3, #16387	; 0x4003
    34c2:	60da      	str	r2, [r3, #12]
    34c4:	68e1      	ldr	r1, [r4, #12]
    34c6:	f8c3 109c 	str.w	r1, [r3, #156]	; 0x9c
    34ca:	68a2      	ldr	r2, [r4, #8]
    34cc:	f8c3 2098 	str.w	r2, [r3, #152]	; 0x98
    34d0:	b00b      	add	sp, #44	; 0x2c
    34d2:	e8bd 8ff0 	ldmia.w	sp!, {r4, r5, r6, r7, r8, r9, sl, fp, pc}
    34d6:	f89d 1024 	ldrb.w	r1, [sp, #36]	; 0x24
    34da:	2914      	cmp	r1, #20
    34dc:	bf08      	it	eq
    34de:	f89d 0025 	ldrbeq.w	r0, [sp, #37]	; 0x25
    34e2:	d1e8      	bne.n	34b6 <MSS_SYS_initiate_iap+0xda>
    34e4:	e7e8      	b.n	34b8 <MSS_SYS_initiate_iap+0xdc>
    34e6:	bf00      	nop

000034e8 <MSS_SYS_zeroize_device>:
    34e8:	b5f0      	push	{r4, r5, r6, r7, lr}
    34ea:	f240 7474 	movw	r4, #1908	; 0x774
    34ee:	b087      	sub	sp, #28
    34f0:	f2c2 0400 	movt	r4, #8192	; 0x2000
    34f4:	7d23      	ldrb	r3, [r4, #20]
    34f6:	f240 7574 	movw	r5, #1908	; 0x774
    34fa:	f2c2 0500 	movt	r5, #8192	; 0x2000
    34fe:	461e      	mov	r6, r3
    3500:	2b00      	cmp	r3, #0
    3502:	d1f7      	bne.n	34f4 <MSS_SYS_zeroize_device+0xc>
    3504:	f06f 010f 	mvn.w	r1, #15
    3508:	f04f 0c01 	mov.w	ip, #1
    350c:	a806      	add	r0, sp, #24
    350e:	f243 0749 	movw	r7, #12361	; 0x3049
    3512:	f800 1d01 	strb.w	r1, [r0, #-1]!
    3516:	f2c0 0700 	movt	r7, #0
    351a:	461a      	mov	r2, r3
    351c:	4661      	mov	r1, ip
    351e:	f885 c014 	strb.w	ip, [r5, #20]
    3522:	9702      	str	r7, [sp, #8]
    3524:	82ee      	strh	r6, [r5, #22]
    3526:	9600      	str	r6, [sp, #0]
    3528:	9601      	str	r6, [sp, #4]
    352a:	f7ff fa45 	bl	29b8 <MSS_COMBLK_send_cmd>
    352e:	7d22      	ldrb	r2, [r4, #20]
    3530:	f240 7374 	movw	r3, #1908	; 0x774
    3534:	f2c2 0300 	movt	r3, #8192	; 0x2000
    3538:	2a00      	cmp	r2, #0
    353a:	d1f8      	bne.n	352e <MSS_SYS_zeroize_device+0x46>
    353c:	8adb      	ldrh	r3, [r3, #22]
    353e:	b007      	add	sp, #28
    3540:	bdf0      	pop	{r4, r5, r6, r7, pc}
    3542:	bf00      	nop

00003544 <MSS_SYS_nrbg_uninstantiate>:
    3544:	b5f0      	push	{r4, r5, r6, r7, lr}
    3546:	f240 7474 	movw	r4, #1908	; 0x774
    354a:	b087      	sub	sp, #28
    354c:	4686      	mov	lr, r0
    354e:	f2c2 0400 	movt	r4, #8192	; 0x2000
    3552:	7d23      	ldrb	r3, [r4, #20]
    3554:	f240 7574 	movw	r5, #1908	; 0x774
    3558:	f2c2 0500 	movt	r5, #8192	; 0x2000
    355c:	469c      	mov	ip, r3
    355e:	2b00      	cmp	r3, #0
    3560:	d1f7      	bne.n	3552 <MSS_SYS_nrbg_uninstantiate+0xe>
    3562:	2701      	movs	r7, #1
    3564:	752f      	strb	r7, [r5, #20]
    3566:	f243 0649 	movw	r6, #12361	; 0x3049
    356a:	f8a5 c016 	strh.w	ip, [r5, #22]
    356e:	ad04      	add	r5, sp, #16
    3570:	f2c0 0600 	movt	r6, #0
    3574:	272c      	movs	r7, #44	; 0x2c
    3576:	9500      	str	r5, [sp, #0]
    3578:	461a      	mov	r2, r3
    357a:	2503      	movs	r5, #3
    357c:	a805      	add	r0, sp, #20
    357e:	2102      	movs	r1, #2
    3580:	f88d 7014 	strb.w	r7, [sp, #20]
    3584:	f88d e015 	strb.w	lr, [sp, #21]
    3588:	9501      	str	r5, [sp, #4]
    358a:	9602      	str	r6, [sp, #8]
    358c:	f7ff fa14 	bl	29b8 <MSS_COMBLK_send_cmd>
    3590:	7d22      	ldrb	r2, [r4, #20]
    3592:	f240 7374 	movw	r3, #1908	; 0x774
    3596:	f2c2 0300 	movt	r3, #8192	; 0x2000
    359a:	2a00      	cmp	r2, #0
    359c:	d1f8      	bne.n	3590 <MSS_SYS_nrbg_uninstantiate+0x4c>
    359e:	8ad9      	ldrh	r1, [r3, #22]
    35a0:	2903      	cmp	r1, #3
    35a2:	d002      	beq.n	35aa <MSS_SYS_nrbg_uninstantiate+0x66>
    35a4:	20c8      	movs	r0, #200	; 0xc8
    35a6:	b007      	add	sp, #28
    35a8:	bdf0      	pop	{r4, r5, r6, r7, pc}
    35aa:	f89d c010 	ldrb.w	ip, [sp, #16]
    35ae:	f1bc 0f2c 	cmp.w	ip, #44	; 0x2c
    35b2:	bf08      	it	eq
    35b4:	f89d 0011 	ldrbeq.w	r0, [sp, #17]
    35b8:	d1f4      	bne.n	35a4 <MSS_SYS_nrbg_uninstantiate+0x60>
    35ba:	e7f4      	b.n	35a6 <MSS_SYS_nrbg_uninstantiate+0x62>

000035bc <MSS_SYS_nrbg_self_test>:
    35bc:	b5f0      	push	{r4, r5, r6, r7, lr}
    35be:	f240 7474 	movw	r4, #1908	; 0x774
    35c2:	b087      	sub	sp, #28
    35c4:	f2c2 0400 	movt	r4, #8192	; 0x2000
    35c8:	7d23      	ldrb	r3, [r4, #20]
    35ca:	f240 7574 	movw	r5, #1908	; 0x774
    35ce:	f2c2 0500 	movt	r5, #8192	; 0x2000
    35d2:	469c      	mov	ip, r3
    35d4:	2b00      	cmp	r3, #0
    35d6:	d1f7      	bne.n	35c8 <MSS_SYS_nrbg_self_test+0xc>
    35d8:	2128      	movs	r1, #40	; 0x28
    35da:	f04f 0e01 	mov.w	lr, #1
    35de:	af05      	add	r7, sp, #20
    35e0:	a806      	add	r0, sp, #24
    35e2:	f243 0649 	movw	r6, #12361	; 0x3049
    35e6:	f800 1d01 	strb.w	r1, [r0, #-1]!
    35ea:	f2c0 0600 	movt	r6, #0
    35ee:	9700      	str	r7, [sp, #0]
    35f0:	461a      	mov	r2, r3
    35f2:	2702      	movs	r7, #2
    35f4:	4671      	mov	r1, lr
    35f6:	f885 e014 	strb.w	lr, [r5, #20]
    35fa:	9701      	str	r7, [sp, #4]
    35fc:	9602      	str	r6, [sp, #8]
    35fe:	f8a5 c016 	strh.w	ip, [r5, #22]
    3602:	f7ff f9d9 	bl	29b8 <MSS_COMBLK_send_cmd>
    3606:	7d22      	ldrb	r2, [r4, #20]
    3608:	f240 7374 	movw	r3, #1908	; 0x774
    360c:	f2c2 0300 	movt	r3, #8192	; 0x2000
    3610:	2a00      	cmp	r2, #0
    3612:	d1f8      	bne.n	3606 <MSS_SYS_nrbg_self_test+0x4a>
    3614:	f8b3 c016 	ldrh.w	ip, [r3, #22]
    3618:	f1bc 0f02 	cmp.w	ip, #2
    361c:	d002      	beq.n	3624 <MSS_SYS_nrbg_self_test+0x68>
    361e:	20c8      	movs	r0, #200	; 0xc8
    3620:	b007      	add	sp, #28
    3622:	bdf0      	pop	{r4, r5, r6, r7, pc}
    3624:	f89d 3014 	ldrb.w	r3, [sp, #20]
    3628:	2b28      	cmp	r3, #40	; 0x28
    362a:	bf08      	it	eq
    362c:	f89d 0015 	ldrbeq.w	r0, [sp, #21]
    3630:	d1f5      	bne.n	361e <MSS_SYS_nrbg_self_test+0x62>
    3632:	e7f5      	b.n	3620 <MSS_SYS_nrbg_self_test+0x64>

00003634 <MSS_SYS_nrbg_reset>:
    3634:	b5f0      	push	{r4, r5, r6, r7, lr}
    3636:	f240 7474 	movw	r4, #1908	; 0x774
    363a:	b087      	sub	sp, #28
    363c:	f2c2 0400 	movt	r4, #8192	; 0x2000
    3640:	7d23      	ldrb	r3, [r4, #20]
    3642:	f240 7574 	movw	r5, #1908	; 0x774
    3646:	f2c2 0500 	movt	r5, #8192	; 0x2000
    364a:	469c      	mov	ip, r3
    364c:	2b00      	cmp	r3, #0
    364e:	d1f7      	bne.n	3640 <MSS_SYS_nrbg_reset+0xc>
    3650:	2701      	movs	r7, #1
    3652:	752f      	strb	r7, [r5, #20]
    3654:	f243 0649 	movw	r6, #12361	; 0x3049
    3658:	f8a5 c016 	strh.w	ip, [r5, #22]
    365c:	ad05      	add	r5, sp, #20
    365e:	f2c0 0600 	movt	r6, #0
    3662:	272d      	movs	r7, #45	; 0x2d
    3664:	9500      	str	r5, [sp, #0]
    3666:	461a      	mov	r2, r3
    3668:	2502      	movs	r5, #2
    366a:	a804      	add	r0, sp, #16
    366c:	2104      	movs	r1, #4
    366e:	f88d 7010 	strb.w	r7, [sp, #16]
    3672:	f88d c013 	strb.w	ip, [sp, #19]
    3676:	9501      	str	r5, [sp, #4]
    3678:	9602      	str	r6, [sp, #8]
    367a:	f88d c011 	strb.w	ip, [sp, #17]
    367e:	f88d c012 	strb.w	ip, [sp, #18]
    3682:	f7ff f999 	bl	29b8 <MSS_COMBLK_send_cmd>
    3686:	7d22      	ldrb	r2, [r4, #20]
    3688:	f240 7374 	movw	r3, #1908	; 0x774
    368c:	f2c2 0300 	movt	r3, #8192	; 0x2000
    3690:	2a00      	cmp	r2, #0
    3692:	d1f8      	bne.n	3686 <MSS_SYS_nrbg_reset+0x52>
    3694:	8ad9      	ldrh	r1, [r3, #22]
    3696:	2902      	cmp	r1, #2
    3698:	d002      	beq.n	36a0 <MSS_SYS_nrbg_reset+0x6c>
    369a:	20c8      	movs	r0, #200	; 0xc8
    369c:	b007      	add	sp, #28
    369e:	bdf0      	pop	{r4, r5, r6, r7, pc}
    36a0:	f89d c014 	ldrb.w	ip, [sp, #20]
    36a4:	f1bc 0f2d 	cmp.w	ip, #45	; 0x2d
    36a8:	bf08      	it	eq
    36aa:	f89d 0015 	ldrbeq.w	r0, [sp, #21]
    36ae:	d1f4      	bne.n	369a <MSS_SYS_nrbg_reset+0x66>
    36b0:	e7f4      	b.n	369c <MSS_SYS_nrbg_reset+0x68>
    36b2:	bf00      	nop

000036b4 <MSS_SYS_ecc_get_base_point>:
    36b4:	b570      	push	{r4, r5, r6, lr}
    36b6:	f24b 016c 	movw	r1, #45164	; 0xb06c
    36ba:	b098      	sub	sp, #96	; 0x60
    36bc:	2460      	movs	r4, #96	; 0x60
    36be:	4606      	mov	r6, r0
    36c0:	4622      	mov	r2, r4
    36c2:	f2c0 0100 	movt	r1, #0
    36c6:	4668      	mov	r0, sp
    36c8:	f001 fcfc 	bl	50c4 <memcpy>
    36cc:	4630      	mov	r0, r6
    36ce:	4669      	mov	r1, sp
    36d0:	4622      	mov	r2, r4
    36d2:	466d      	mov	r5, sp
    36d4:	f001 fcf6 	bl	50c4 <memcpy>
    36d8:	b018      	add	sp, #96	; 0x60
    36da:	bd70      	pop	{r4, r5, r6, pc}

000036dc <execute_service>:
    36dc:	e92d 45f0 	stmdb	sp!, {r4, r5, r6, r7, r8, sl, lr}
    36e0:	f240 7474 	movw	r4, #1908	; 0x774
    36e4:	b083      	sub	sp, #12
    36e6:	4680      	mov	r8, r0
    36e8:	4616      	mov	r6, r2
    36ea:	461d      	mov	r5, r3
    36ec:	f2c2 0400 	movt	r4, #8192	; 0x2000
    36f0:	7d23      	ldrb	r3, [r4, #20]
    36f2:	f240 7774 	movw	r7, #1908	; 0x774
    36f6:	f2c2 0700 	movt	r7, #8192	; 0x2000
    36fa:	469c      	mov	ip, r3
    36fc:	2b00      	cmp	r3, #0
    36fe:	d1f7      	bne.n	36f0 <execute_service+0x14>
    3700:	f243 0e49 	movw	lr, #12361	; 0x3049
    3704:	f04f 0a01 	mov.w	sl, #1
    3708:	f887 a014 	strb.w	sl, [r7, #20]
    370c:	f2c0 0e00 	movt	lr, #0
    3710:	f8a7 c016 	strh.w	ip, [r7, #22]
    3714:	4640      	mov	r0, r8
    3716:	4632      	mov	r2, r6
    3718:	462b      	mov	r3, r5
    371a:	f8cd e000 	str.w	lr, [sp]
    371e:	f7ff f84d 	bl	27bc <MSS_COMBLK_send_cmd_with_ptr>
    3722:	7d22      	ldrb	r2, [r4, #20]
    3724:	f240 7374 	movw	r3, #1908	; 0x774
    3728:	f2c2 0300 	movt	r3, #8192	; 0x2000
    372c:	2a00      	cmp	r2, #0
    372e:	d1f8      	bne.n	3722 <execute_service+0x46>
    3730:	f8b3 c016 	ldrh.w	ip, [r3, #22]
    3734:	fa1f f18c 	uxth.w	r1, ip
    3738:	428d      	cmp	r5, r1
    373a:	d003      	beq.n	3744 <execute_service+0x68>
    373c:	20c8      	movs	r0, #200	; 0xc8
    373e:	b003      	add	sp, #12
    3740:	e8bd 85f0 	ldmia.w	sp!, {r4, r5, r6, r7, r8, sl, pc}
    3744:	7833      	ldrb	r3, [r6, #0]
    3746:	4543      	cmp	r3, r8
    3748:	bf08      	it	eq
    374a:	7870      	ldrbeq	r0, [r6, #1]
    374c:	d1f6      	bne.n	373c <execute_service+0x60>
    374e:	e7f6      	b.n	373e <execute_service+0x62>

00003750 <MSS_SYS_ecc_point_addition>:
    3750:	e92d 4ff0 	stmdb	sp!, {r4, r5, r6, r7, r8, r9, sl, fp, lr}
    3754:	0e13      	lsrs	r3, r2, #24
    3756:	b089      	sub	sp, #36	; 0x24
    3758:	0c06      	lsrs	r6, r0, #16
    375a:	4604      	mov	r4, r0
    375c:	ea4f 6810 	mov.w	r8, r0, lsr #24
    3760:	0a07      	lsrs	r7, r0, #8
    3762:	0a10      	lsrs	r0, r2, #8
    3764:	9301      	str	r3, [sp, #4]
    3766:	9000      	str	r0, [sp, #0]
    3768:	0c15      	lsrs	r5, r2, #16
    376a:	f88d 600e 	strb.w	r6, [sp, #14]
    376e:	f88d 5016 	strb.w	r5, [sp, #22]
    3772:	9e00      	ldr	r6, [sp, #0]
    3774:	9d01      	ldr	r5, [sp, #4]
    3776:	468e      	mov	lr, r1
    3778:	4694      	mov	ip, r2
    377a:	ea4f 6b11 	mov.w	fp, r1, lsr #24
    377e:	ea4f 2a11 	mov.w	sl, r1, lsr #8
    3782:	ea4f 4911 	mov.w	r9, r1, lsr #16
    3786:	2011      	movs	r0, #17
    3788:	a903      	add	r1, sp, #12
    378a:	aa06      	add	r2, sp, #24
    378c:	2306      	movs	r3, #6
    378e:	f88d 700d 	strb.w	r7, [sp, #13]
    3792:	f88d 800f 	strb.w	r8, [sp, #15]
    3796:	f88d a011 	strb.w	sl, [sp, #17]
    379a:	f88d 9012 	strb.w	r9, [sp, #18]
    379e:	f88d b013 	strb.w	fp, [sp, #19]
    37a2:	f88d 6015 	strb.w	r6, [sp, #21]
    37a6:	f88d 5017 	strb.w	r5, [sp, #23]
    37aa:	f88d 400c 	strb.w	r4, [sp, #12]
    37ae:	f88d e010 	strb.w	lr, [sp, #16]
    37b2:	f88d c014 	strb.w	ip, [sp, #20]
    37b6:	f7ff ff91 	bl	36dc <execute_service>
    37ba:	b009      	add	sp, #36	; 0x24
    37bc:	e8bd 8ff0 	ldmia.w	sp!, {r4, r5, r6, r7, r8, r9, sl, fp, pc}

000037c0 <MSS_SYS_ecc_point_multiplication>:
    37c0:	e92d 4ff0 	stmdb	sp!, {r4, r5, r6, r7, r8, r9, sl, fp, lr}
    37c4:	0e13      	lsrs	r3, r2, #24
    37c6:	b089      	sub	sp, #36	; 0x24
    37c8:	0c06      	lsrs	r6, r0, #16
    37ca:	4604      	mov	r4, r0
    37cc:	ea4f 6810 	mov.w	r8, r0, lsr #24
    37d0:	0a07      	lsrs	r7, r0, #8
    37d2:	0a10      	lsrs	r0, r2, #8
    37d4:	9301      	str	r3, [sp, #4]
    37d6:	9000      	str	r0, [sp, #0]
    37d8:	0c15      	lsrs	r5, r2, #16
    37da:	f88d 600e 	strb.w	r6, [sp, #14]
    37de:	f88d 5016 	strb.w	r5, [sp, #22]
    37e2:	9e00      	ldr	r6, [sp, #0]
    37e4:	9d01      	ldr	r5, [sp, #4]
    37e6:	468e      	mov	lr, r1
    37e8:	4694      	mov	ip, r2
    37ea:	ea4f 6b11 	mov.w	fp, r1, lsr #24
    37ee:	ea4f 2a11 	mov.w	sl, r1, lsr #8
    37f2:	ea4f 4911 	mov.w	r9, r1, lsr #16
    37f6:	2010      	movs	r0, #16
    37f8:	a903      	add	r1, sp, #12
    37fa:	aa06      	add	r2, sp, #24
    37fc:	2306      	movs	r3, #6
    37fe:	f88d 700d 	strb.w	r7, [sp, #13]
    3802:	f88d 800f 	strb.w	r8, [sp, #15]
    3806:	f88d a011 	strb.w	sl, [sp, #17]
    380a:	f88d 9012 	strb.w	r9, [sp, #18]
    380e:	f88d b013 	strb.w	fp, [sp, #19]
    3812:	f88d 6015 	strb.w	r6, [sp, #21]
    3816:	f88d 5017 	strb.w	r5, [sp, #23]
    381a:	f88d 400c 	strb.w	r4, [sp, #12]
    381e:	f88d e010 	strb.w	lr, [sp, #16]
    3822:	f88d c014 	strb.w	ip, [sp, #20]
    3826:	f7ff ff59 	bl	36dc <execute_service>
    382a:	b009      	add	sp, #36	; 0x24
    382c:	e8bd 8ff0 	ldmia.w	sp!, {r4, r5, r6, r7, r8, r9, sl, fp, pc}

00003830 <MSS_SYS_puf_get_random_seed>:
    3830:	b530      	push	{r4, r5, lr}
    3832:	b085      	sub	sp, #20
    3834:	4684      	mov	ip, r0
    3836:	ea4f 6e10 	mov.w	lr, r0, lsr #24
    383a:	0a05      	lsrs	r5, r0, #8
    383c:	0c04      	lsrs	r4, r0, #16
    383e:	a903      	add	r1, sp, #12
    3840:	201d      	movs	r0, #29
    3842:	aa01      	add	r2, sp, #4
    3844:	2306      	movs	r3, #6
    3846:	f88d 500d 	strb.w	r5, [sp, #13]
    384a:	f88d 400e 	strb.w	r4, [sp, #14]
    384e:	f88d e00f 	strb.w	lr, [sp, #15]
    3852:	f88d c00c 	strb.w	ip, [sp, #12]
    3856:	f7ff ff41 	bl	36dc <execute_service>
    385a:	b005      	add	sp, #20
    385c:	bd30      	pop	{r4, r5, pc}
    385e:	bf00      	nop

00003860 <MSS_SYS_puf_fetch_ecc_public_key>:
    3860:	b530      	push	{r4, r5, lr}
    3862:	b085      	sub	sp, #20
    3864:	4684      	mov	ip, r0
    3866:	ea4f 6e10 	mov.w	lr, r0, lsr #24
    386a:	0a05      	lsrs	r5, r0, #8
    386c:	0c04      	lsrs	r4, r0, #16
    386e:	a903      	add	r1, sp, #12
    3870:	201c      	movs	r0, #28
    3872:	aa01      	add	r2, sp, #4
    3874:	2306      	movs	r3, #6
    3876:	f88d 500d 	strb.w	r5, [sp, #13]
    387a:	f88d 400e 	strb.w	r4, [sp, #14]
    387e:	f88d e00f 	strb.w	lr, [sp, #15]
    3882:	f88d c00c 	strb.w	ip, [sp, #12]
    3886:	f7ff ff29 	bl	36dc <execute_service>
    388a:	b005      	add	sp, #20
    388c:	bd30      	pop	{r4, r5, pc}
    388e:	bf00      	nop

00003890 <MSS_SYS_puf_import_keycodes>:
    3890:	b570      	push	{r4, r5, r6, lr}
    3892:	b086      	sub	sp, #24
    3894:	4684      	mov	ip, r0
    3896:	ea4f 6e10 	mov.w	lr, r0, lsr #24
    389a:	0a05      	lsrs	r5, r0, #8
    389c:	0c04      	lsrs	r4, r0, #16
    389e:	2604      	movs	r6, #4
    38a0:	201a      	movs	r0, #26
    38a2:	a901      	add	r1, sp, #4
    38a4:	aa04      	add	r2, sp, #16
    38a6:	2306      	movs	r3, #6
    38a8:	f88d 6004 	strb.w	r6, [sp, #4]
    38ac:	f88d 5006 	strb.w	r5, [sp, #6]
    38b0:	f88d 4007 	strb.w	r4, [sp, #7]
    38b4:	f88d e008 	strb.w	lr, [sp, #8]
    38b8:	f88d c005 	strb.w	ip, [sp, #5]
    38bc:	f7ff ff0e 	bl	36dc <execute_service>
    38c0:	b006      	add	sp, #24
    38c2:	bd70      	pop	{r4, r5, r6, pc}

000038c4 <MSS_SYS_puf_export_keycodes>:
    38c4:	b570      	push	{r4, r5, r6, lr}
    38c6:	b086      	sub	sp, #24
    38c8:	4684      	mov	ip, r0
    38ca:	ea4f 6e10 	mov.w	lr, r0, lsr #24
    38ce:	0a05      	lsrs	r5, r0, #8
    38d0:	0c04      	lsrs	r4, r0, #16
    38d2:	2603      	movs	r6, #3
    38d4:	201a      	movs	r0, #26
    38d6:	a901      	add	r1, sp, #4
    38d8:	aa04      	add	r2, sp, #16
    38da:	2306      	movs	r3, #6
    38dc:	f88d 6004 	strb.w	r6, [sp, #4]
    38e0:	f88d 5006 	strb.w	r5, [sp, #6]
    38e4:	f88d 4007 	strb.w	r4, [sp, #7]
    38e8:	f88d e008 	strb.w	lr, [sp, #8]
    38ec:	f88d c005 	strb.w	ip, [sp, #5]
    38f0:	f7ff fef4 	bl	36dc <execute_service>
    38f4:	b006      	add	sp, #24
    38f6:	bd70      	pop	{r4, r5, r6, pc}

000038f8 <MSS_SYS_puf_fetch_key>:
    38f8:	b530      	push	{r4, r5, lr}
    38fa:	680c      	ldr	r4, [r1, #0]
    38fc:	b085      	sub	sp, #20
    38fe:	f88d 000c 	strb.w	r0, [sp, #12]
    3902:	ea4f 6c14 	mov.w	ip, r4, lsr #24
    3906:	0a25      	lsrs	r5, r4, #8
    3908:	ea4f 4e14 	mov.w	lr, r4, lsr #16
    390c:	201b      	movs	r0, #27
    390e:	a902      	add	r1, sp, #8
    3910:	466a      	mov	r2, sp
    3912:	2306      	movs	r3, #6
    3914:	f88d 5009 	strb.w	r5, [sp, #9]
    3918:	f88d e00a 	strb.w	lr, [sp, #10]
    391c:	f88d c00b 	strb.w	ip, [sp, #11]
    3920:	f88d 4008 	strb.w	r4, [sp, #8]
    3924:	f7ff feda 	bl	36dc <execute_service>
    3928:	b005      	add	sp, #20
    392a:	bd30      	pop	{r4, r5, pc}

0000392c <MSS_SYS_puf_delete_key>:
    392c:	b500      	push	{lr}
    392e:	b087      	sub	sp, #28
    3930:	f88d 000d 	strb.w	r0, [sp, #13]
    3934:	f04f 0c05 	mov.w	ip, #5
    3938:	201a      	movs	r0, #26
    393a:	a901      	add	r1, sp, #4
    393c:	aa04      	add	r2, sp, #16
    393e:	2306      	movs	r3, #6
    3940:	f88d c004 	strb.w	ip, [sp, #4]
    3944:	f7ff feca 	bl	36dc <execute_service>
    3948:	b007      	add	sp, #28
    394a:	bd00      	pop	{pc}

0000394c <MSS_SYS_puf_enroll_key>:
    394c:	e92d 4ff0 	stmdb	sp!, {r4, r5, r6, r7, r8, r9, sl, fp, lr}
    3950:	4694      	mov	ip, r2
    3952:	b087      	sub	sp, #28
    3954:	4605      	mov	r5, r0
    3956:	460c      	mov	r4, r1
    3958:	469e      	mov	lr, r3
    395a:	2a00      	cmp	r2, #0
    395c:	d02b      	beq.n	39b6 <MSS_SYS_puf_enroll_key+0x6a>
    395e:	2001      	movs	r0, #1
    3960:	f88d 0004 	strb.w	r0, [sp, #4]
    3964:	ea4f 6a1e 	mov.w	sl, lr, lsr #24
    3968:	ea4f 6b1c 	mov.w	fp, ip, lsr #24
    396c:	ea4f 271e 	mov.w	r7, lr, lsr #8
    3970:	ea4f 481e 	mov.w	r8, lr, lsr #16
    3974:	ea4f 291c 	mov.w	r9, ip, lsr #8
    3978:	ea4f 461c 	mov.w	r6, ip, lsr #16
    397c:	201a      	movs	r0, #26
    397e:	a901      	add	r1, sp, #4
    3980:	aa04      	add	r2, sp, #16
    3982:	2306      	movs	r3, #6
    3984:	f88d 7006 	strb.w	r7, [sp, #6]
    3988:	f88d 8007 	strb.w	r8, [sp, #7]
    398c:	f88d a008 	strb.w	sl, [sp, #8]
    3990:	f88d 900a 	strb.w	r9, [sp, #10]
    3994:	f88d 600b 	strb.w	r6, [sp, #11]
    3998:	f88d b00c 	strb.w	fp, [sp, #12]
    399c:	f88d 500d 	strb.w	r5, [sp, #13]
    39a0:	f88d 400e 	strb.w	r4, [sp, #14]
    39a4:	f88d e005 	strb.w	lr, [sp, #5]
    39a8:	f88d c009 	strb.w	ip, [sp, #9]
    39ac:	f7ff fe96 	bl	36dc <execute_service>
    39b0:	b007      	add	sp, #28
    39b2:	e8bd 8ff0 	ldmia.w	sp!, {r4, r5, r6, r7, r8, r9, sl, fp, pc}
    39b6:	2302      	movs	r3, #2
    39b8:	f88d 3004 	strb.w	r3, [sp, #4]
    39bc:	e7d2      	b.n	3964 <MSS_SYS_puf_enroll_key+0x18>
    39be:	bf00      	nop

000039c0 <MSS_SYS_puf_get_number_of_keys>:
    39c0:	b5f0      	push	{r4, r5, r6, r7, lr}
    39c2:	b087      	sub	sp, #28
    39c4:	a901      	add	r1, sp, #4
    39c6:	1d0f      	adds	r7, r1, #4
    39c8:	2500      	movs	r5, #0
    39ca:	463e      	mov	r6, r7
    39cc:	f846 5b04 	str.w	r5, [r6], #4
    39d0:	3706      	adds	r7, #6
    39d2:	4604      	mov	r4, r0
    39d4:	2306      	movs	r3, #6
    39d6:	201a      	movs	r0, #26
    39d8:	aa04      	add	r2, sp, #16
    39da:	8035      	strh	r5, [r6, #0]
    39dc:	703d      	strb	r5, [r7, #0]
    39de:	9501      	str	r5, [sp, #4]
    39e0:	9504      	str	r5, [sp, #16]
    39e2:	f88d 5004 	strb.w	r5, [sp, #4]
    39e6:	f8ad 5014 	strh.w	r5, [sp, #20]
    39ea:	f7ff fe77 	bl	36dc <execute_service>
    39ee:	f89d 300d 	ldrb.w	r3, [sp, #13]
    39f2:	7023      	strb	r3, [r4, #0]
    39f4:	b007      	add	sp, #28
    39f6:	bdf0      	pop	{r4, r5, r6, r7, pc}

000039f8 <MSS_SYS_puf_delete_activation_code>:
    39f8:	b500      	push	{lr}
    39fa:	b083      	sub	sp, #12
    39fc:	2301      	movs	r3, #1
    39fe:	a902      	add	r1, sp, #8
    3a00:	f801 3d01 	strb.w	r3, [r1, #-1]!
    3a04:	2019      	movs	r0, #25
    3a06:	aa01      	add	r2, sp, #4
    3a08:	2302      	movs	r3, #2
    3a0a:	f7ff fe67 	bl	36dc <execute_service>
    3a0e:	b003      	add	sp, #12
    3a10:	bd00      	pop	{pc}
    3a12:	bf00      	nop

00003a14 <MSS_SYS_puf_create_activation_code>:
    3a14:	b500      	push	{lr}
    3a16:	b083      	sub	sp, #12
    3a18:	2300      	movs	r3, #0
    3a1a:	a902      	add	r1, sp, #8
    3a1c:	f801 3d01 	strb.w	r3, [r1, #-1]!
    3a20:	2019      	movs	r0, #25
    3a22:	aa01      	add	r2, sp, #4
    3a24:	2302      	movs	r3, #2
    3a26:	f7ff fe59 	bl	36dc <execute_service>
    3a2a:	b003      	add	sp, #12
    3a2c:	bd00      	pop	{pc}
    3a2e:	bf00      	nop

00003a30 <MSS_SYS_nrbg_reseed>:
    3a30:	b530      	push	{r4, r5, lr}
    3a32:	b085      	sub	sp, #20
    3a34:	4684      	mov	ip, r0
    3a36:	ea4f 6e10 	mov.w	lr, r0, lsr #24
    3a3a:	0a05      	lsrs	r5, r0, #8
    3a3c:	0c04      	lsrs	r4, r0, #16
    3a3e:	f88d 1004 	strb.w	r1, [sp, #4]
    3a42:	f88d 2005 	strb.w	r2, [sp, #5]
    3a46:	202b      	movs	r0, #43	; 0x2b
    3a48:	4669      	mov	r1, sp
    3a4a:	aa02      	add	r2, sp, #8
    3a4c:	2306      	movs	r3, #6
    3a4e:	f88d 5001 	strb.w	r5, [sp, #1]
    3a52:	f88d 4002 	strb.w	r4, [sp, #2]
    3a56:	f88d e003 	strb.w	lr, [sp, #3]
    3a5a:	f88d c000 	strb.w	ip, [sp]
    3a5e:	f7ff fe3d 	bl	36dc <execute_service>
    3a62:	b005      	add	sp, #20
    3a64:	bd30      	pop	{r4, r5, pc}
    3a66:	bf00      	nop

00003a68 <MSS_SYS_nrbg_generate>:
    3a68:	e92d 4ff0 	stmdb	sp!, {r4, r5, r6, r7, r8, r9, sl, fp, lr}
    3a6c:	b087      	sub	sp, #28
    3a6e:	f89d 9040 	ldrb.w	r9, [sp, #64]	; 0x40
    3a72:	f89d b044 	ldrb.w	fp, [sp, #68]	; 0x44
    3a76:	4686      	mov	lr, r0
    3a78:	468c      	mov	ip, r1
    3a7a:	0e05      	lsrs	r5, r0, #24
    3a7c:	ea4f 6a11 	mov.w	sl, r1, lsr #24
    3a80:	0a07      	lsrs	r7, r0, #8
    3a82:	0c06      	lsrs	r6, r0, #16
    3a84:	ea4f 2811 	mov.w	r8, r1, lsr #8
    3a88:	0c0c      	lsrs	r4, r1, #16
    3a8a:	f88d 200c 	strb.w	r2, [sp, #12]
    3a8e:	f88d 300d 	strb.w	r3, [sp, #13]
    3a92:	202a      	movs	r0, #42	; 0x2a
    3a94:	a901      	add	r1, sp, #4
    3a96:	aa04      	add	r2, sp, #16
    3a98:	2306      	movs	r3, #6
    3a9a:	f88d 7005 	strb.w	r7, [sp, #5]
    3a9e:	f88d 6006 	strb.w	r6, [sp, #6]
    3aa2:	f88d 5007 	strb.w	r5, [sp, #7]
    3aa6:	f88d 8009 	strb.w	r8, [sp, #9]
    3aaa:	f88d 400a 	strb.w	r4, [sp, #10]
    3aae:	f88d a00b 	strb.w	sl, [sp, #11]
    3ab2:	f88d 900e 	strb.w	r9, [sp, #14]
    3ab6:	f88d b00f 	strb.w	fp, [sp, #15]
    3aba:	f88d e004 	strb.w	lr, [sp, #4]
    3abe:	f88d c008 	strb.w	ip, [sp, #8]
    3ac2:	f7ff fe0b 	bl	36dc <execute_service>
    3ac6:	b007      	add	sp, #28
    3ac8:	e8bd 8ff0 	ldmia.w	sp!, {r4, r5, r6, r7, r8, r9, sl, fp, pc}

00003acc <MSS_SYS_nrbg_instantiate>:
    3acc:	e92d 41f0 	stmdb	sp!, {r4, r5, r6, r7, r8, lr}
    3ad0:	0a0c      	lsrs	r4, r1, #8
    3ad2:	b084      	sub	sp, #16
    3ad4:	4684      	mov	ip, r0
    3ad6:	468e      	mov	lr, r1
    3ad8:	0e05      	lsrs	r5, r0, #24
    3ada:	0a07      	lsrs	r7, r0, #8
    3adc:	0c06      	lsrs	r6, r0, #16
    3ade:	2306      	movs	r3, #6
    3ae0:	f88d 4005 	strb.w	r4, [sp, #5]
    3ae4:	4690      	mov	r8, r2
    3ae6:	2029      	movs	r0, #41	; 0x29
    3ae8:	4669      	mov	r1, sp
    3aea:	aa02      	add	r2, sp, #8
    3aec:	f04f 34ff 	mov.w	r4, #4294967295
    3af0:	f88d 7001 	strb.w	r7, [sp, #1]
    3af4:	f88d 6002 	strb.w	r6, [sp, #2]
    3af8:	f88d 5003 	strb.w	r5, [sp, #3]
    3afc:	f88d 4006 	strb.w	r4, [sp, #6]
    3b00:	f88d c000 	strb.w	ip, [sp]
    3b04:	f88d e004 	strb.w	lr, [sp, #4]
    3b08:	f7ff fde8 	bl	36dc <execute_service>
    3b0c:	4603      	mov	r3, r0
    3b0e:	b918      	cbnz	r0, 3b18 <MSS_SYS_nrbg_instantiate+0x4c>
    3b10:	f89d 2006 	ldrb.w	r2, [sp, #6]
    3b14:	f888 2000 	strb.w	r2, [r8]
    3b18:	4618      	mov	r0, r3
    3b1a:	b004      	add	sp, #16
    3b1c:	e8bd 81f0 	ldmia.w	sp!, {r4, r5, r6, r7, r8, pc}

00003b20 <MSS_SYS_challenge_response>:
    3b20:	b530      	push	{r4, r5, lr}
    3b22:	b089      	sub	sp, #36	; 0x24
    3b24:	466c      	mov	r4, sp
    3b26:	4603      	mov	r3, r0
    3b28:	ea4f 6c10 	mov.w	ip, r0, lsr #24
    3b2c:	ea4f 4e10 	mov.w	lr, r0, lsr #16
    3b30:	f88d 1004 	strb.w	r1, [sp, #4]
    3b34:	0a05      	lsrs	r5, r0, #8
    3b36:	4611      	mov	r1, r2
    3b38:	1d60      	adds	r0, r4, #5
    3b3a:	2210      	movs	r2, #16
    3b3c:	f88d 3000 	strb.w	r3, [sp]
    3b40:	f88d 5001 	strb.w	r5, [sp, #1]
    3b44:	f88d e002 	strb.w	lr, [sp, #2]
    3b48:	f88d c003 	strb.w	ip, [sp, #3]
    3b4c:	f001 faba 	bl	50c4 <memcpy>
    3b50:	4669      	mov	r1, sp
    3b52:	200e      	movs	r0, #14
    3b54:	aa06      	add	r2, sp, #24
    3b56:	2306      	movs	r3, #6
    3b58:	f7ff fdc0 	bl	36dc <execute_service>
    3b5c:	b009      	add	sp, #36	; 0x24
    3b5e:	bd30      	pop	{r4, r5, pc}

00003b60 <MSS_SYS_key_tree>:
    3b60:	b5f0      	push	{r4, r5, r6, r7, lr}
    3b62:	b091      	sub	sp, #68	; 0x44
    3b64:	ac01      	add	r4, sp, #4
    3b66:	460e      	mov	r6, r1
    3b68:	4617      	mov	r7, r2
    3b6a:	4601      	mov	r1, r0
    3b6c:	2220      	movs	r2, #32
    3b6e:	4605      	mov	r5, r0
    3b70:	4620      	mov	r0, r4
    3b72:	f001 faa7 	bl	50c4 <memcpy>
    3b76:	4639      	mov	r1, r7
    3b78:	2210      	movs	r2, #16
    3b7a:	f104 0021 	add.w	r0, r4, #33	; 0x21
    3b7e:	f88d 6024 	strb.w	r6, [sp, #36]	; 0x24
    3b82:	f001 fa9f 	bl	50c4 <memcpy>
    3b86:	2009      	movs	r0, #9
    3b88:	4621      	mov	r1, r4
    3b8a:	aa0e      	add	r2, sp, #56	; 0x38
    3b8c:	2306      	movs	r3, #6
    3b8e:	f7ff fda5 	bl	36dc <execute_service>
    3b92:	4606      	mov	r6, r0
    3b94:	b920      	cbnz	r0, 3ba0 <MSS_SYS_key_tree+0x40>
    3b96:	4628      	mov	r0, r5
    3b98:	4621      	mov	r1, r4
    3b9a:	2220      	movs	r2, #32
    3b9c:	f001 fa92 	bl	50c4 <memcpy>
    3ba0:	4630      	mov	r0, r6
    3ba2:	b011      	add	sp, #68	; 0x44
    3ba4:	bdf0      	pop	{r4, r5, r6, r7, pc}
    3ba6:	bf00      	nop

00003ba8 <MSS_SYS_hmac>:
    3ba8:	e92d 4ff0 	stmdb	sp!, {r4, r5, r6, r7, r8, r9, sl, fp, lr}
    3bac:	b095      	sub	sp, #84	; 0x54
    3bae:	af03      	add	r7, sp, #12
    3bb0:	461c      	mov	r4, r3
    3bb2:	460d      	mov	r5, r1
    3bb4:	4616      	mov	r6, r2
    3bb6:	4601      	mov	r1, r0
    3bb8:	2220      	movs	r2, #32
    3bba:	4638      	mov	r0, r7
    3bbc:	f001 fa82 	bl	50c4 <memcpy>
    3bc0:	ea4f 6814 	mov.w	r8, r4, lsr #24
    3bc4:	0e2b      	lsrs	r3, r5, #24
    3bc6:	9300      	str	r3, [sp, #0]
    3bc8:	f8cd 8004 	str.w	r8, [sp, #4]
    3bcc:	ea4f 4e16 	mov.w	lr, r6, lsr #16
    3bd0:	ea4f 4c14 	mov.w	ip, r4, lsr #16
    3bd4:	f88d e02e 	strb.w	lr, [sp, #46]	; 0x2e
    3bd8:	f88d c036 	strb.w	ip, [sp, #54]	; 0x36
    3bdc:	f8dd e000 	ldr.w	lr, [sp]
    3be0:	f8dd c004 	ldr.w	ip, [sp, #4]
    3be4:	ea4f 6b16 	mov.w	fp, r6, lsr #24
    3be8:	4639      	mov	r1, r7
    3bea:	ea4f 2815 	mov.w	r8, r5, lsr #8
    3bee:	0a37      	lsrs	r7, r6, #8
    3bf0:	ea4f 4a15 	mov.w	sl, r5, lsr #16
    3bf4:	ea4f 2914 	mov.w	r9, r4, lsr #8
    3bf8:	200c      	movs	r0, #12
    3bfa:	aa12      	add	r2, sp, #72	; 0x48
    3bfc:	2306      	movs	r3, #6
    3bfe:	f88d 702d 	strb.w	r7, [sp, #45]	; 0x2d
    3c02:	f88d b02f 	strb.w	fp, [sp, #47]	; 0x2f
    3c06:	f88d 8031 	strb.w	r8, [sp, #49]	; 0x31
    3c0a:	f88d a032 	strb.w	sl, [sp, #50]	; 0x32
    3c0e:	f88d e033 	strb.w	lr, [sp, #51]	; 0x33
    3c12:	f88d 9035 	strb.w	r9, [sp, #53]	; 0x35
    3c16:	f88d c037 	strb.w	ip, [sp, #55]	; 0x37
    3c1a:	f88d 602c 	strb.w	r6, [sp, #44]	; 0x2c
    3c1e:	f88d 5030 	strb.w	r5, [sp, #48]	; 0x30
    3c22:	f88d 4034 	strb.w	r4, [sp, #52]	; 0x34
    3c26:	f7ff fd59 	bl	36dc <execute_service>
    3c2a:	b015      	add	sp, #84	; 0x54
    3c2c:	e8bd 8ff0 	ldmia.w	sp!, {r4, r5, r6, r7, r8, r9, sl, fp, pc}

00003c30 <MSS_SYS_sha256>:
    3c30:	e92d 4ff0 	stmdb	sp!, {r4, r5, r6, r7, r8, r9, sl, fp, lr}
    3c34:	4684      	mov	ip, r0
    3c36:	b089      	sub	sp, #36	; 0x24
    3c38:	0e03      	lsrs	r3, r0, #24
    3c3a:	0a00      	lsrs	r0, r0, #8
    3c3c:	0c0e      	lsrs	r6, r1, #16
    3c3e:	9301      	str	r3, [sp, #4]
    3c40:	9000      	str	r0, [sp, #0]
    3c42:	ea4f 451c 	mov.w	r5, ip, lsr #16
    3c46:	f88d 600e 	strb.w	r6, [sp, #14]
    3c4a:	f88d 5016 	strb.w	r5, [sp, #22]
    3c4e:	9e00      	ldr	r6, [sp, #0]
    3c50:	9d01      	ldr	r5, [sp, #4]
    3c52:	460c      	mov	r4, r1
    3c54:	4696      	mov	lr, r2
    3c56:	ea4f 6811 	mov.w	r8, r1, lsr #24
    3c5a:	ea4f 6b12 	mov.w	fp, r2, lsr #24
    3c5e:	0a0f      	lsrs	r7, r1, #8
    3c60:	ea4f 2a12 	mov.w	sl, r2, lsr #8
    3c64:	ea4f 4912 	mov.w	r9, r2, lsr #16
    3c68:	200a      	movs	r0, #10
    3c6a:	a903      	add	r1, sp, #12
    3c6c:	aa06      	add	r2, sp, #24
    3c6e:	2306      	movs	r3, #6
    3c70:	f88d 700d 	strb.w	r7, [sp, #13]
    3c74:	f88d 800f 	strb.w	r8, [sp, #15]
    3c78:	f88d a011 	strb.w	sl, [sp, #17]
    3c7c:	f88d 9012 	strb.w	r9, [sp, #18]
    3c80:	f88d b013 	strb.w	fp, [sp, #19]
    3c84:	f88d 6015 	strb.w	r6, [sp, #21]
    3c88:	f88d 5017 	strb.w	r5, [sp, #23]
    3c8c:	f88d 400c 	strb.w	r4, [sp, #12]
    3c90:	f88d e010 	strb.w	lr, [sp, #16]
    3c94:	f88d c014 	strb.w	ip, [sp, #20]
    3c98:	f7ff fd20 	bl	36dc <execute_service>
    3c9c:	b009      	add	sp, #36	; 0x24
    3c9e:	e8bd 8ff0 	ldmia.w	sp!, {r4, r5, r6, r7, r8, r9, sl, fp, pc}
    3ca2:	bf00      	nop

00003ca4 <MSS_SYS_256bit_aes>:
    3ca4:	e92d 4ff0 	stmdb	sp!, {r4, r5, r6, r7, r8, r9, sl, fp, lr}
    3ca8:	b095      	sub	sp, #84	; 0x54
    3caa:	ae03      	add	r6, sp, #12
    3cac:	4617      	mov	r7, r2
    3cae:	4688      	mov	r8, r1
    3cb0:	2220      	movs	r2, #32
    3cb2:	4601      	mov	r1, r0
    3cb4:	4630      	mov	r0, r6
    3cb6:	9d1e      	ldr	r5, [sp, #120]	; 0x78
    3cb8:	9c1f      	ldr	r4, [sp, #124]	; 0x7c
    3cba:	9301      	str	r3, [sp, #4]
    3cbc:	f001 fa02 	bl	50c4 <memcpy>
    3cc0:	4641      	mov	r1, r8
    3cc2:	2210      	movs	r2, #16
    3cc4:	f106 0020 	add.w	r0, r6, #32
    3cc8:	f001 f9fc 	bl	50c4 <memcpy>
    3ccc:	ea4f 2e17 	mov.w	lr, r7, lsr #8
    3cd0:	f88d e03d 	strb.w	lr, [sp, #61]	; 0x3d
    3cd4:	f8dd e004 	ldr.w	lr, [sp, #4]
    3cd8:	2006      	movs	r0, #6
    3cda:	ea4f 6915 	mov.w	r9, r5, lsr #24
    3cde:	ea4f 6b14 	mov.w	fp, r4, lsr #24
    3ce2:	4631      	mov	r1, r6
    3ce4:	ea4f 4c15 	mov.w	ip, r5, lsr #16
    3ce8:	0a2e      	lsrs	r6, r5, #8
    3cea:	ea4f 2814 	mov.w	r8, r4, lsr #8
    3cee:	ea4f 4a14 	mov.w	sl, r4, lsr #16
    3cf2:	f88d e03e 	strb.w	lr, [sp, #62]	; 0x3e
    3cf6:	aa12      	add	r2, sp, #72	; 0x48
    3cf8:	f04f 0e00 	mov.w	lr, #0
    3cfc:	4603      	mov	r3, r0
    3cfe:	f88d e03f 	strb.w	lr, [sp, #63]	; 0x3f
    3d02:	f88d 6041 	strb.w	r6, [sp, #65]	; 0x41
    3d06:	f88d c042 	strb.w	ip, [sp, #66]	; 0x42
    3d0a:	f88d 9043 	strb.w	r9, [sp, #67]	; 0x43
    3d0e:	f88d 8045 	strb.w	r8, [sp, #69]	; 0x45
    3d12:	f88d a046 	strb.w	sl, [sp, #70]	; 0x46
    3d16:	f88d b047 	strb.w	fp, [sp, #71]	; 0x47
    3d1a:	f88d 703c 	strb.w	r7, [sp, #60]	; 0x3c
    3d1e:	f88d 5040 	strb.w	r5, [sp, #64]	; 0x40
    3d22:	f88d 4044 	strb.w	r4, [sp, #68]	; 0x44
    3d26:	f7ff fcd9 	bl	36dc <execute_service>
    3d2a:	b015      	add	sp, #84	; 0x54
    3d2c:	e8bd 8ff0 	ldmia.w	sp!, {r4, r5, r6, r7, r8, r9, sl, fp, pc}

00003d30 <MSS_SYS_128bit_aes>:
    3d30:	e92d 4ff0 	stmdb	sp!, {r4, r5, r6, r7, r8, r9, sl, fp, lr}
    3d34:	b091      	sub	sp, #68	; 0x44
    3d36:	2710      	movs	r7, #16
    3d38:	ae03      	add	r6, sp, #12
    3d3a:	9d1a      	ldr	r5, [sp, #104]	; 0x68
    3d3c:	4690      	mov	r8, r2
    3d3e:	468a      	mov	sl, r1
    3d40:	463a      	mov	r2, r7
    3d42:	4601      	mov	r1, r0
    3d44:	4630      	mov	r0, r6
    3d46:	9c1b      	ldr	r4, [sp, #108]	; 0x6c
    3d48:	9301      	str	r3, [sp, #4]
    3d4a:	f001 f9bb 	bl	50c4 <memcpy>
    3d4e:	19f0      	adds	r0, r6, r7
    3d50:	4651      	mov	r1, sl
    3d52:	463a      	mov	r2, r7
    3d54:	f001 f9b6 	bl	50c4 <memcpy>
    3d58:	fa25 fc07 	lsr.w	ip, r5, r7
    3d5c:	ea4f 2e18 	mov.w	lr, r8, lsr #8
    3d60:	f88d e02d 	strb.w	lr, [sp, #45]	; 0x2d
    3d64:	f8dd e004 	ldr.w	lr, [sp, #4]
    3d68:	ea4f 6915 	mov.w	r9, r5, lsr #24
    3d6c:	ea4f 6b14 	mov.w	fp, r4, lsr #24
    3d70:	4631      	mov	r1, r6
    3d72:	0a27      	lsrs	r7, r4, #8
    3d74:	0a2e      	lsrs	r6, r5, #8
    3d76:	ea4f 4a14 	mov.w	sl, r4, lsr #16
    3d7a:	f88d e02e 	strb.w	lr, [sp, #46]	; 0x2e
    3d7e:	2003      	movs	r0, #3
    3d80:	f04f 0e00 	mov.w	lr, #0
    3d84:	aa0e      	add	r2, sp, #56	; 0x38
    3d86:	2306      	movs	r3, #6
    3d88:	f88d e02f 	strb.w	lr, [sp, #47]	; 0x2f
    3d8c:	f88d 6031 	strb.w	r6, [sp, #49]	; 0x31
    3d90:	f88d c032 	strb.w	ip, [sp, #50]	; 0x32
    3d94:	f88d 9033 	strb.w	r9, [sp, #51]	; 0x33
    3d98:	f88d 7035 	strb.w	r7, [sp, #53]	; 0x35
    3d9c:	f88d a036 	strb.w	sl, [sp, #54]	; 0x36
    3da0:	f88d b037 	strb.w	fp, [sp, #55]	; 0x37
    3da4:	f88d 802c 	strb.w	r8, [sp, #44]	; 0x2c
    3da8:	f88d 5030 	strb.w	r5, [sp, #48]	; 0x30
    3dac:	f88d 4034 	strb.w	r4, [sp, #52]	; 0x34
    3db0:	f7ff fc94 	bl	36dc <execute_service>
    3db4:	b011      	add	sp, #68	; 0x44
    3db6:	e8bd 8ff0 	ldmia.w	sp!, {r4, r5, r6, r7, r8, r9, sl, fp, pc}
    3dba:	bf00      	nop

00003dbc <MSS_SYS_get_secondary_device_certificate>:
    3dbc:	b500      	push	{lr}
    3dbe:	b083      	sub	sp, #12
    3dc0:	4601      	mov	r1, r0
    3dc2:	466a      	mov	r2, sp
    3dc4:	201e      	movs	r0, #30
    3dc6:	2306      	movs	r3, #6
    3dc8:	f7ff fc88 	bl	36dc <execute_service>
    3dcc:	b003      	add	sp, #12
    3dce:	bd00      	pop	{pc}

00003dd0 <MSS_SYS_get_device_certificate>:
    3dd0:	b500      	push	{lr}
    3dd2:	b083      	sub	sp, #12
    3dd4:	4601      	mov	r1, r0
    3dd6:	466a      	mov	r2, sp
    3dd8:	2000      	movs	r0, #0
    3dda:	2306      	movs	r3, #6
    3ddc:	f7ff fc7e 	bl	36dc <execute_service>
    3de0:	b003      	add	sp, #12
    3de2:	bd00      	pop	{pc}

00003de4 <MSS_SYS_get_design_version>:
    3de4:	b500      	push	{lr}
    3de6:	b083      	sub	sp, #12
    3de8:	4601      	mov	r1, r0
    3dea:	466a      	mov	r2, sp
    3dec:	2005      	movs	r0, #5
    3dee:	2306      	movs	r3, #6
    3df0:	f7ff fc74 	bl	36dc <execute_service>
    3df4:	b003      	add	sp, #12
    3df6:	bd00      	pop	{pc}

00003df8 <MSS_SYS_get_user_code>:
    3df8:	b500      	push	{lr}
    3dfa:	b083      	sub	sp, #12
    3dfc:	4601      	mov	r1, r0
    3dfe:	466a      	mov	r2, sp
    3e00:	2004      	movs	r0, #4
    3e02:	2306      	movs	r3, #6
    3e04:	f7ff fc6a 	bl	36dc <execute_service>
    3e08:	b003      	add	sp, #12
    3e0a:	bd00      	pop	{pc}

00003e0c <MSS_SYS_get_serial_number>:
    3e0c:	b500      	push	{lr}
    3e0e:	b083      	sub	sp, #12
    3e10:	4601      	mov	r1, r0
    3e12:	466a      	mov	r2, sp
    3e14:	2001      	movs	r0, #1
    3e16:	2306      	movs	r3, #6
    3e18:	f7ff fc60 	bl	36dc <execute_service>
    3e1c:	b003      	add	sp, #12
    3e1e:	bd00      	pop	{pc}

00003e20 <MSS_SYS_start_isp>:
    3e20:	e92d 45f0 	stmdb	sp!, {r4, r5, r6, r7, r8, sl, lr}
    3e24:	f248 0400 	movw	r4, #32768	; 0x8000
    3e28:	f2c4 0403 	movt	r4, #16387	; 0x4003
    3e2c:	68e6      	ldr	r6, [r4, #12]
    3e2e:	f240 0510 	movw	r5, #16
    3e32:	f2c2 0500 	movt	r5, #8192	; 0x2000
    3e36:	602e      	str	r6, [r5, #0]
    3e38:	f8d4 c09c 	ldr.w	ip, [r4, #156]	; 0x9c
    3e3c:	f240 7374 	movw	r3, #1908	; 0x774
    3e40:	f2c2 0300 	movt	r3, #8192	; 0x2000
    3e44:	f446 56ff 	orr.w	r6, r6, #8160	; 0x1fe0
    3e48:	f8c3 c00c 	str.w	ip, [r3, #12]
    3e4c:	b085      	sub	sp, #20
    3e4e:	60e6      	str	r6, [r4, #12]
    3e50:	4607      	mov	r7, r0
    3e52:	4688      	mov	r8, r1
    3e54:	4696      	mov	lr, r2
    3e56:	7618      	strb	r0, [r3, #24]
    3e58:	b190      	cbz	r0, 3e80 <MSS_SYS_start_isp+0x60>
    3e5a:	2100      	movs	r1, #0
    3e5c:	f8d4 209c 	ldr.w	r2, [r4, #156]	; 0x9c
    3e60:	f8c4 109c 	str.w	r1, [r4, #156]	; 0x9c
    3e64:	f8d4 009c 	ldr.w	r0, [r4, #156]	; 0x9c
    3e68:	f440 7600 	orr.w	r6, r0, #512	; 0x200
    3e6c:	f8c4 609c 	str.w	r6, [r4, #156]	; 0x9c
    3e70:	f8d4 209c 	ldr.w	r2, [r4, #156]	; 0x9c
    3e74:	2001      	movs	r0, #1
    3e76:	f442 6180 	orr.w	r1, r2, #1024	; 0x400
    3e7a:	f8c4 109c 	str.w	r1, [r4, #156]	; 0x9c
    3e7e:	7128      	strb	r0, [r5, #4]
    3e80:	7d1d      	ldrb	r5, [r3, #20]
    3e82:	f240 7474 	movw	r4, #1908	; 0x774
    3e86:	f2c2 0400 	movt	r4, #8192	; 0x2000
    3e8a:	46ac      	mov	ip, r5
    3e8c:	2d00      	cmp	r5, #0
    3e8e:	d1f7      	bne.n	3e80 <MSS_SYS_start_isp+0x60>
    3e90:	2102      	movs	r1, #2
    3e92:	f04f 0a01 	mov.w	sl, #1
    3e96:	f643 7689 	movw	r6, #16265	; 0x3f89
    3e9a:	f243 0519 	movw	r5, #12313	; 0x3019
    3e9e:	f884 a014 	strb.w	sl, [r4, #20]
    3ea2:	f8c4 e010 	str.w	lr, [r4, #16]
    3ea6:	f8a4 c016 	strh.w	ip, [r4, #22]
    3eaa:	f8c4 801c 	str.w	r8, [r4, #28]
    3eae:	f2c0 0600 	movt	r6, #0
    3eb2:	f2c0 0500 	movt	r5, #0
    3eb6:	f04f 0a15 	mov.w	sl, #21
    3eba:	f104 0220 	add.w	r2, r4, #32
    3ebe:	a803      	add	r0, sp, #12
    3ec0:	460b      	mov	r3, r1
    3ec2:	f88d a00c 	strb.w	sl, [sp, #12]
    3ec6:	f88d 700d 	strb.w	r7, [sp, #13]
    3eca:	9600      	str	r6, [sp, #0]
    3ecc:	9501      	str	r5, [sp, #4]
    3ece:	f7fe fcd1 	bl	2874 <MSS_COMBLK_send_paged_cmd>
    3ed2:	b005      	add	sp, #20
    3ed4:	e8bd 85f0 	ldmia.w	sp!, {r4, r5, r6, r7, r8, sl, pc}

00003ed8 <MSS_SYS_flash_freeze>:
    3ed8:	e92d 41f0 	stmdb	sp!, {r4, r5, r6, r7, r8, lr}
    3edc:	f24b 01cc 	movw	r1, #45260	; 0xb0cc
    3ee0:	4680      	mov	r8, r0
    3ee2:	f240 70d4 	movw	r0, #2004	; 0x7d4
    3ee6:	f2c2 0000 	movt	r0, #8192	; 0x2000
    3eea:	f2c0 0100 	movt	r1, #0
    3eee:	b086      	sub	sp, #24
    3ef0:	f7fd fa0c 	bl	130c <MSS_UART_polled_tx_string>
    3ef4:	f248 0300 	movw	r3, #32768	; 0x8000
    3ef8:	f2c4 0303 	movt	r3, #16387	; 0x4003
    3efc:	f8d3 1098 	ldr.w	r1, [r3, #152]	; 0x98
    3f00:	f240 7474 	movw	r4, #1908	; 0x774
    3f04:	f2c2 0400 	movt	r4, #8192	; 0x2000
    3f08:	60a1      	str	r1, [r4, #8]
    3f0a:	f8d3 0088 	ldr.w	r0, [r3, #136]	; 0x88
    3f0e:	f040 0206 	orr.w	r2, r0, #6
    3f12:	f8c3 2088 	str.w	r2, [r3, #136]	; 0x88
    3f16:	7d26      	ldrb	r6, [r4, #20]
    3f18:	f240 7574 	movw	r5, #1908	; 0x774
    3f1c:	f2c2 0500 	movt	r5, #8192	; 0x2000
    3f20:	46b4      	mov	ip, r6
    3f22:	2e00      	cmp	r6, #0
    3f24:	d1f7      	bne.n	3f16 <MSS_SYS_flash_freeze+0x3e>
    3f26:	4632      	mov	r2, r6
    3f28:	f243 0749 	movw	r7, #12361	; 0x3049
    3f2c:	2602      	movs	r6, #2
    3f2e:	f04f 0e01 	mov.w	lr, #1
    3f32:	f885 e014 	strb.w	lr, [r5, #20]
    3f36:	f2c0 0700 	movt	r7, #0
    3f3a:	f8a5 c016 	strh.w	ip, [r5, #22]
    3f3e:	4631      	mov	r1, r6
    3f40:	ad04      	add	r5, sp, #16
    3f42:	a805      	add	r0, sp, #20
    3f44:	4663      	mov	r3, ip
    3f46:	f88d 8015 	strb.w	r8, [sp, #21]
    3f4a:	9500      	str	r5, [sp, #0]
    3f4c:	9702      	str	r7, [sp, #8]
    3f4e:	f88d 6014 	strb.w	r6, [sp, #20]
    3f52:	9601      	str	r6, [sp, #4]
    3f54:	f7fe fd30 	bl	29b8 <MSS_COMBLK_send_cmd>
    3f58:	7d22      	ldrb	r2, [r4, #20]
    3f5a:	f240 7374 	movw	r3, #1908	; 0x774
    3f5e:	f2c2 0300 	movt	r3, #8192	; 0x2000
    3f62:	2a00      	cmp	r2, #0
    3f64:	d1f8      	bne.n	3f58 <MSS_SYS_flash_freeze+0x80>
    3f66:	f8b3 c016 	ldrh.w	ip, [r3, #22]
    3f6a:	f1bc 0f02 	cmp.w	ip, #2
    3f6e:	d003      	beq.n	3f78 <MSS_SYS_flash_freeze+0xa0>
    3f70:	20c8      	movs	r0, #200	; 0xc8
    3f72:	b006      	add	sp, #24
    3f74:	e8bd 81f0 	ldmia.w	sp!, {r4, r5, r6, r7, r8, pc}
    3f78:	f89d 3010 	ldrb.w	r3, [sp, #16]
    3f7c:	2b02      	cmp	r3, #2
    3f7e:	bf08      	it	eq
    3f80:	f89d 0011 	ldrbeq.w	r0, [sp, #17]
    3f84:	d1f4      	bne.n	3f70 <MSS_SYS_flash_freeze+0x98>
    3f86:	e7f4      	b.n	3f72 <MSS_SYS_flash_freeze+0x9a>

00003f88 <isp_page_read_handler>:
    3f88:	b530      	push	{r4, r5, lr}
    3f8a:	f240 7474 	movw	r4, #1908	; 0x774
    3f8e:	f2c2 0400 	movt	r4, #8192	; 0x2000
    3f92:	f240 0310 	movw	r3, #16
    3f96:	f2c2 0300 	movt	r3, #8192	; 0x2000
    3f9a:	f894 c018 	ldrb.w	ip, [r4, #24]
    3f9e:	791d      	ldrb	r5, [r3, #4]
    3fa0:	f1bc 0100 	subs.w	r1, ip, #0
    3fa4:	bf18      	it	ne
    3fa6:	2101      	movne	r1, #1
    3fa8:	b083      	sub	sp, #12
    3faa:	2200      	movs	r2, #0
    3fac:	2d01      	cmp	r5, #1
    3fae:	bf14      	ite	ne
    3fb0:	2100      	movne	r1, #0
    3fb2:	f001 0101 	andeq.w	r1, r1, #1
    3fb6:	f88d 2006 	strb.w	r2, [sp, #6]
    3fba:	4605      	mov	r5, r0
    3fbc:	f88d 2007 	strb.w	r2, [sp, #7]
    3fc0:	2900      	cmp	r1, #0
    3fc2:	d04b      	beq.n	405c <isp_page_read_handler+0xd4>
    3fc4:	f248 0000 	movw	r0, #32768	; 0x8000
    3fc8:	f241 3188 	movw	r1, #5000	; 0x1388
    3fcc:	9100      	str	r1, [sp, #0]
    3fce:	f2c4 0003 	movt	r0, #16387	; 0x4003
    3fd2:	f8d0 2098 	ldr.w	r2, [r0, #152]	; 0x98
    3fd6:	9900      	ldr	r1, [sp, #0]
    3fd8:	3901      	subs	r1, #1
    3fda:	f412 5f80 	tst.w	r2, #4096	; 0x1000
    3fde:	9100      	str	r1, [sp, #0]
    3fe0:	d102      	bne.n	3fe8 <isp_page_read_handler+0x60>
    3fe2:	9a00      	ldr	r2, [sp, #0]
    3fe4:	2a00      	cmp	r2, #0
    3fe6:	d1f4      	bne.n	3fd2 <isp_page_read_handler+0x4a>
    3fe8:	2000      	movs	r0, #0
    3fea:	f248 0200 	movw	r2, #32768	; 0x8000
    3fee:	7118      	strb	r0, [r3, #4]
    3ff0:	f2c4 0203 	movt	r2, #16387	; 0x4003
    3ff4:	f8d2 3098 	ldr.w	r3, [r2, #152]	; 0x98
    3ff8:	f240 70d4 	movw	r0, #2004	; 0x7d4
    3ffc:	f423 6e6e 	bic.w	lr, r3, #3808	; 0xee0
    4000:	f02e 011c 	bic.w	r1, lr, #28
    4004:	f8c2 1098 	str.w	r1, [r2, #152]	; 0x98
    4008:	f2c2 0000 	movt	r0, #8192	; 0x2000
    400c:	2203      	movs	r2, #3
    400e:	f44f 31e1 	mov.w	r1, #115200	; 0x1c200
    4012:	f7fe fb43 	bl	269c <MSS_UART_init>
    4016:	f240 70d4 	movw	r0, #2004	; 0x7d4
    401a:	f24b 01ec 	movw	r1, #45292	; 0xb0ec
    401e:	f2c0 0100 	movt	r1, #0
    4022:	f2c2 0000 	movt	r0, #8192	; 0x2000
    4026:	f7fd f971 	bl	130c <MSS_UART_polled_tx_string>
    402a:	2005      	movs	r0, #5
    402c:	f000 fdbe 	bl	4bac <FLASH_init>
    4030:	f000 fc3c 	bl	48ac <FLASH_global_unprotect>
    4034:	f10d 0007 	add.w	r0, sp, #7
    4038:	f10d 0106 	add.w	r1, sp, #6
    403c:	f000 fc96 	bl	496c <FLASH_read_device_id>
    4040:	f89d 3007 	ldrb.w	r3, [sp, #7]
    4044:	2bef      	cmp	r3, #239	; 0xef
    4046:	d00f      	beq.n	4068 <isp_page_read_handler+0xe0>
    4048:	f240 70d4 	movw	r0, #2004	; 0x7d4
    404c:	f24b 112c 	movw	r1, #45356	; 0xb12c
    4050:	f2c2 0000 	movt	r0, #8192	; 0x2000
    4054:	f2c0 0100 	movt	r1, #0
    4058:	f7fd f958 	bl	130c <MSS_UART_polled_tx_string>
    405c:	69e3      	ldr	r3, [r4, #28]
    405e:	b19b      	cbz	r3, 4088 <isp_page_read_handler+0x100>
    4060:	4628      	mov	r0, r5
    4062:	4798      	blx	r3
    4064:	b003      	add	sp, #12
    4066:	bd30      	pop	{r4, r5, pc}
    4068:	f89d c006 	ldrb.w	ip, [sp, #6]
    406c:	f1bc 0f40 	cmp.w	ip, #64	; 0x40
    4070:	d1ea      	bne.n	4048 <isp_page_read_handler+0xc0>
    4072:	f240 70d4 	movw	r0, #2004	; 0x7d4
    4076:	f24b 113c 	movw	r1, #45372	; 0xb13c
    407a:	f2c2 0000 	movt	r0, #8192	; 0x2000
    407e:	f2c0 0100 	movt	r1, #0
    4082:	f7fd f943 	bl	130c <MSS_UART_polled_tx_string>
    4086:	e7e9      	b.n	405c <isp_page_read_handler+0xd4>
    4088:	4618      	mov	r0, r3
    408a:	e7eb      	b.n	4064 <isp_page_read_handler+0xdc>

0000408c <MSS_SYS_init>:
    408c:	f240 7374 	movw	r3, #1908	; 0x774
    4090:	f2c2 0300 	movt	r3, #8192	; 0x2000
    4094:	2100      	movs	r1, #0
    4096:	f248 0200 	movw	r2, #32768	; 0x8000
    409a:	82d9      	strh	r1, [r3, #22]
    409c:	f2c4 0203 	movt	r2, #16387	; 0x4003
    40a0:	7519      	strb	r1, [r3, #20]
    40a2:	6018      	str	r0, [r3, #0]
    40a4:	f8d2 2098 	ldr.w	r2, [r2, #152]	; 0x98
    40a8:	f642 7039 	movw	r0, #12089	; 0x2f39
    40ac:	f2c0 0000 	movt	r0, #0
    40b0:	1d19      	adds	r1, r3, #4
    40b2:	609a      	str	r2, [r3, #8]
    40b4:	f7fe bb22 	b.w	26fc <MSS_COMBLK_init>

000040b8 <MSS_SPI_init>:
    40b8:	f640 03d0 	movw	r3, #2256	; 0x8d0
    40bc:	f2c2 0300 	movt	r3, #8192	; 0x2000
    40c0:	4298      	cmp	r0, r3
    40c2:	f248 0300 	movw	r3, #32768	; 0x8000
    40c6:	f2c4 0303 	movt	r3, #16387	; 0x4003
    40ca:	6c99      	ldr	r1, [r3, #72]	; 0x48
    40cc:	f24e 1200 	movw	r2, #57600	; 0xe100
    40d0:	d02b      	beq.n	412a <MSS_SPI_init+0x72>
    40d2:	f441 6180 	orr.w	r1, r1, #1024	; 0x400
    40d6:	6499      	str	r1, [r3, #72]	; 0x48
    40d8:	f2ce 0200 	movt	r2, #57344	; 0xe000
    40dc:	2108      	movs	r1, #8
    40de:	f8c2 1180 	str.w	r1, [r2, #384]	; 0x180
    40e2:	6c99      	ldr	r1, [r3, #72]	; 0x48
    40e4:	f241 0200 	movw	r2, #4096	; 0x1000
    40e8:	f421 6180 	bic.w	r1, r1, #1024	; 0x400
    40ec:	6499      	str	r1, [r3, #72]	; 0x48
    40ee:	f2c4 0201 	movt	r2, #16385	; 0x4001
    40f2:	6813      	ldr	r3, [r2, #0]
    40f4:	6002      	str	r2, [r0, #0]
    40f6:	f023 4100 	bic.w	r1, r3, #2147483648	; 0x80000000
    40fa:	2303      	movs	r3, #3
    40fc:	6011      	str	r1, [r2, #0]
    40fe:	7103      	strb	r3, [r0, #4]
    4100:	2300      	movs	r3, #0
    4102:	f04f 32ff 	mov.w	r2, #4294967295
    4106:	6682      	str	r2, [r0, #104]	; 0x68
    4108:	61c3      	str	r3, [r0, #28]
    410a:	6703      	str	r3, [r0, #112]	; 0x70
    410c:	6743      	str	r3, [r0, #116]	; 0x74
    410e:	6783      	str	r3, [r0, #120]	; 0x78
    4110:	6083      	str	r3, [r0, #8]
    4112:	60c3      	str	r3, [r0, #12]
    4114:	6103      	str	r3, [r0, #16]
    4116:	6143      	str	r3, [r0, #20]
    4118:	6183      	str	r3, [r0, #24]
    411a:	6302      	str	r2, [r0, #48]	; 0x30
    411c:	6382      	str	r2, [r0, #56]	; 0x38
    411e:	6402      	str	r2, [r0, #64]	; 0x40
    4120:	6482      	str	r2, [r0, #72]	; 0x48
    4122:	6502      	str	r2, [r0, #80]	; 0x50
    4124:	6582      	str	r2, [r0, #88]	; 0x58
    4126:	6602      	str	r2, [r0, #96]	; 0x60
    4128:	4770      	bx	lr
    412a:	f441 7100 	orr.w	r1, r1, #512	; 0x200
    412e:	6499      	str	r1, [r3, #72]	; 0x48
    4130:	f2ce 0200 	movt	r2, #57344	; 0xe000
    4134:	2104      	movs	r1, #4
    4136:	f8c2 1180 	str.w	r1, [r2, #384]	; 0x180
    413a:	6c99      	ldr	r1, [r3, #72]	; 0x48
    413c:	f241 0200 	movw	r2, #4096	; 0x1000
    4140:	f421 7100 	bic.w	r1, r1, #512	; 0x200
    4144:	6499      	str	r1, [r3, #72]	; 0x48
    4146:	f2c4 0200 	movt	r2, #16384	; 0x4000
    414a:	6811      	ldr	r1, [r2, #0]
    414c:	6002      	str	r2, [r0, #0]
    414e:	f021 4300 	bic.w	r3, r1, #2147483648	; 0x80000000
    4152:	2102      	movs	r1, #2
    4154:	6013      	str	r3, [r2, #0]
    4156:	7101      	strb	r1, [r0, #4]
    4158:	e7d2      	b.n	4100 <MSS_SPI_init+0x48>
    415a:	bf00      	nop

0000415c <recover_from_rx_overflow>:
    415c:	6802      	ldr	r2, [r0, #0]
    415e:	f640 03d0 	movw	r3, #2256	; 0x8d0
    4162:	b470      	push	{r4, r5, r6}
    4164:	f2c2 0300 	movt	r3, #8192	; 0x2000
    4168:	6815      	ldr	r5, [r2, #0]
    416a:	6994      	ldr	r4, [r2, #24]
    416c:	6851      	ldr	r1, [r2, #4]
    416e:	f248 0200 	movw	r2, #32768	; 0x8000
    4172:	4298      	cmp	r0, r3
    4174:	f2c4 0203 	movt	r2, #16387	; 0x4003
    4178:	6c96      	ldr	r6, [r2, #72]	; 0x48
    417a:	f24e 1300 	movw	r3, #57600	; 0xe100
    417e:	d025      	beq.n	41cc <recover_from_rx_overflow+0x70>
    4180:	f446 6680 	orr.w	r6, r6, #1024	; 0x400
    4184:	6496      	str	r6, [r2, #72]	; 0x48
    4186:	f2ce 0300 	movt	r3, #57344	; 0xe000
    418a:	2608      	movs	r6, #8
    418c:	f8c3 6180 	str.w	r6, [r3, #384]	; 0x180
    4190:	6c96      	ldr	r6, [r2, #72]	; 0x48
    4192:	f241 0300 	movw	r3, #4096	; 0x1000
    4196:	f426 6680 	bic.w	r6, r6, #1024	; 0x400
    419a:	f2c4 0301 	movt	r3, #16385	; 0x4001
    419e:	6496      	str	r6, [r2, #72]	; 0x48
    41a0:	681a      	ldr	r2, [r3, #0]
    41a2:	f04f 0c03 	mov.w	ip, #3
    41a6:	f022 4200 	bic.w	r2, r2, #2147483648	; 0x80000000
    41aa:	f880 c004 	strb.w	ip, [r0, #4]
    41ae:	601a      	str	r2, [r3, #0]
    41b0:	6003      	str	r3, [r0, #0]
    41b2:	6818      	ldr	r0, [r3, #0]
    41b4:	f020 0201 	bic.w	r2, r0, #1
    41b8:	601a      	str	r2, [r3, #0]
    41ba:	601d      	str	r5, [r3, #0]
    41bc:	619c      	str	r4, [r3, #24]
    41be:	6059      	str	r1, [r3, #4]
    41c0:	6819      	ldr	r1, [r3, #0]
    41c2:	f041 0001 	orr.w	r0, r1, #1
    41c6:	6018      	str	r0, [r3, #0]
    41c8:	bc70      	pop	{r4, r5, r6}
    41ca:	4770      	bx	lr
    41cc:	f446 7600 	orr.w	r6, r6, #512	; 0x200
    41d0:	6496      	str	r6, [r2, #72]	; 0x48
    41d2:	f2ce 0300 	movt	r3, #57344	; 0xe000
    41d6:	2604      	movs	r6, #4
    41d8:	f8c3 6180 	str.w	r6, [r3, #384]	; 0x180
    41dc:	6c96      	ldr	r6, [r2, #72]	; 0x48
    41de:	f241 0300 	movw	r3, #4096	; 0x1000
    41e2:	f426 7600 	bic.w	r6, r6, #512	; 0x200
    41e6:	f2c4 0300 	movt	r3, #16384	; 0x4000
    41ea:	6496      	str	r6, [r2, #72]	; 0x48
    41ec:	681a      	ldr	r2, [r3, #0]
    41ee:	f04f 0c02 	mov.w	ip, #2
    41f2:	f022 4200 	bic.w	r2, r2, #2147483648	; 0x80000000
    41f6:	f880 c004 	strb.w	ip, [r0, #4]
    41fa:	601a      	str	r2, [r3, #0]
    41fc:	6003      	str	r3, [r0, #0]
    41fe:	e7d8      	b.n	41b2 <recover_from_rx_overflow+0x56>

00004200 <MSS_SPI_configure_slave_mode>:
    4200:	6800      	ldr	r0, [r0, #0]
    4202:	b410      	push	{r4}
    4204:	6804      	ldr	r4, [r0, #0]
    4206:	f240 0cff 	movw	ip, #255	; 0xff
    420a:	f024 0402 	bic.w	r4, r4, #2
    420e:	6004      	str	r4, [r0, #0]
    4210:	6804      	ldr	r4, [r0, #0]
    4212:	f6cf 7c00 	movt	ip, #65280	; 0xff00
    4216:	f024 0401 	bic.w	r4, r4, #1
    421a:	6004      	str	r4, [r0, #0]
    421c:	6804      	ldr	r4, [r0, #0]
    421e:	f024 7440 	bic.w	r4, r4, #50331648	; 0x3000000
    4222:	f024 04c0 	bic.w	r4, r4, #192	; 0xc0
    4226:	f044 5400 	orr.w	r4, r4, #536870912	; 0x20000000
    422a:	430c      	orrs	r4, r1
    422c:	6004      	str	r4, [r0, #0]
    422e:	6182      	str	r2, [r0, #24]
    4230:	6801      	ldr	r1, [r0, #0]
    4232:	ea01 0c0c 	and.w	ip, r1, ip
    4236:	f44c 7280 	orr.w	r2, ip, #256	; 0x100
    423a:	6002      	str	r2, [r0, #0]
    423c:	6043      	str	r3, [r0, #4]
    423e:	6801      	ldr	r1, [r0, #0]
    4240:	f041 0301 	orr.w	r3, r1, #1
    4244:	6003      	str	r3, [r0, #0]
    4246:	bc10      	pop	{r4}
    4248:	4770      	bx	lr
    424a:	bf00      	nop

0000424c <MSS_SPI_configure_master_mode>:
    424c:	b430      	push	{r4, r5}
    424e:	6804      	ldr	r4, [r0, #0]
    4250:	f89d c008 	ldrb.w	ip, [sp, #8]
    4254:	6825      	ldr	r5, [r4, #0]
    4256:	2907      	cmp	r1, #7
    4258:	f025 0501 	bic.w	r5, r5, #1
    425c:	6025      	str	r5, [r4, #0]
    425e:	6825      	ldr	r5, [r4, #0]
    4260:	f045 0502 	orr.w	r5, r5, #2
    4264:	6025      	str	r5, [r4, #0]
    4266:	6825      	ldr	r5, [r4, #0]
    4268:	f045 0501 	orr.w	r5, r5, #1
    426c:	6025      	str	r5, [r4, #0]
    426e:	d80d      	bhi.n	428c <MSS_SPI_configure_master_mode+0x40>
    4270:	f240 1402 	movw	r4, #258	; 0x102
    4274:	3106      	adds	r1, #6
    4276:	f2c2 0400 	movt	r4, #8192	; 0x2000
    427a:	eb00 05c1 	add.w	r5, r0, r1, lsl #3
    427e:	ea42 0404 	orr.w	r4, r2, r4
    4282:	716b      	strb	r3, [r5, #5]
    4284:	f840 4031 	str.w	r4, [r0, r1, lsl #3]
    4288:	f885 c004 	strb.w	ip, [r5, #4]
    428c:	bc30      	pop	{r4, r5}
    428e:	4770      	bx	lr

00004290 <MSS_SPI_set_slave_select>:
    4290:	b538      	push	{r3, r4, r5, lr}
    4292:	6803      	ldr	r3, [r0, #0]
    4294:	4604      	mov	r4, r0
    4296:	689a      	ldr	r2, [r3, #8]
    4298:	460d      	mov	r5, r1
    429a:	f012 0f04 	tst.w	r2, #4
    429e:	d002      	beq.n	42a6 <MSS_SPI_set_slave_select+0x16>
    42a0:	f7ff ff5c 	bl	415c <recover_from_rx_overflow>
    42a4:	6823      	ldr	r3, [r4, #0]
    42a6:	2201      	movs	r2, #1
    42a8:	fa12 f005 	lsls.w	r0, r2, r5
    42ac:	6819      	ldr	r1, [r3, #0]
    42ae:	3506      	adds	r5, #6
    42b0:	f021 0101 	bic.w	r1, r1, #1
    42b4:	6019      	str	r1, [r3, #0]
    42b6:	f854 1035 	ldr.w	r1, [r4, r5, lsl #3]
    42ba:	eb04 04c5 	add.w	r4, r4, r5, lsl #3
    42be:	6019      	str	r1, [r3, #0]
    42c0:	7961      	ldrb	r1, [r4, #5]
    42c2:	6199      	str	r1, [r3, #24]
    42c4:	7921      	ldrb	r1, [r4, #4]
    42c6:	6059      	str	r1, [r3, #4]
    42c8:	6819      	ldr	r1, [r3, #0]
    42ca:	f041 0101 	orr.w	r1, r1, #1
    42ce:	6019      	str	r1, [r3, #0]
    42d0:	69d9      	ldr	r1, [r3, #28]
    42d2:	4308      	orrs	r0, r1
    42d4:	61d8      	str	r0, [r3, #28]
    42d6:	bd38      	pop	{r3, r4, r5, pc}

000042d8 <MSS_SPI_clear_slave_select>:
    42d8:	b538      	push	{r3, r4, r5, lr}
    42da:	6803      	ldr	r3, [r0, #0]
    42dc:	4604      	mov	r4, r0
    42de:	689a      	ldr	r2, [r3, #8]
    42e0:	460d      	mov	r5, r1
    42e2:	f012 0f04 	tst.w	r2, #4
    42e6:	d002      	beq.n	42ee <MSS_SPI_clear_slave_select+0x16>
    42e8:	f7ff ff38 	bl	415c <recover_from_rx_overflow>
    42ec:	6823      	ldr	r3, [r4, #0]
    42ee:	2101      	movs	r1, #1
    42f0:	fa11 f505 	lsls.w	r5, r1, r5
    42f4:	69d8      	ldr	r0, [r3, #28]
    42f6:	ea20 0505 	bic.w	r5, r0, r5
    42fa:	61dd      	str	r5, [r3, #28]
    42fc:	bd38      	pop	{r3, r4, r5, pc}
    42fe:	bf00      	nop

00004300 <MSS_SPI_transfer_frame>:
    4300:	6803      	ldr	r3, [r0, #0]
    4302:	b082      	sub	sp, #8
    4304:	689a      	ldr	r2, [r3, #8]
    4306:	f012 0f02 	tst.w	r2, #2
    430a:	d007      	beq.n	431c <MSS_SPI_transfer_frame+0x1c>
    430c:	6918      	ldr	r0, [r3, #16]
    430e:	9001      	str	r0, [sp, #4]
    4310:	9a01      	ldr	r2, [sp, #4]
    4312:	9201      	str	r2, [sp, #4]
    4314:	6898      	ldr	r0, [r3, #8]
    4316:	f010 0f02 	tst.w	r0, #2
    431a:	d1f7      	bne.n	430c <MSS_SPI_transfer_frame+0xc>
    431c:	6159      	str	r1, [r3, #20]
    431e:	6899      	ldr	r1, [r3, #8]
    4320:	f011 0f01 	tst.w	r1, #1
    4324:	d0fb      	beq.n	431e <MSS_SPI_transfer_frame+0x1e>
    4326:	689a      	ldr	r2, [r3, #8]
    4328:	f012 0f02 	tst.w	r2, #2
    432c:	d0fb      	beq.n	4326 <MSS_SPI_transfer_frame+0x26>
    432e:	6918      	ldr	r0, [r3, #16]
    4330:	b002      	add	sp, #8
    4332:	4770      	bx	lr

00004334 <MSS_SPI_transfer_block>:
    4334:	e92d 47f0 	stmdb	sp!, {r4, r5, r6, r7, r8, r9, sl, lr}
    4338:	b082      	sub	sp, #8
    433a:	f8bd 4028 	ldrh.w	r4, [sp, #40]	; 0x28
    433e:	4616      	mov	r6, r2
    4340:	18a5      	adds	r5, r4, r2
    4342:	b2ad      	uxth	r5, r5
    4344:	4607      	mov	r7, r0
    4346:	4688      	mov	r8, r1
    4348:	4699      	mov	r9, r3
    434a:	2d00      	cmp	r5, #0
    434c:	d165      	bne.n	441a <MSS_SPI_transfer_block+0xe6>
    434e:	683b      	ldr	r3, [r7, #0]
    4350:	f44f 7a80 	mov.w	sl, #256	; 0x100
    4354:	689a      	ldr	r2, [r3, #8]
    4356:	f012 0f04 	tst.w	r2, #4
    435a:	d165      	bne.n	4428 <MSS_SPI_transfer_block+0xf4>
    435c:	6818      	ldr	r0, [r3, #0]
    435e:	f240 02ff 	movw	r2, #255	; 0xff
    4362:	f020 0101 	bic.w	r1, r0, #1
    4366:	6019      	str	r1, [r3, #0]
    4368:	6818      	ldr	r0, [r3, #0]
    436a:	f6cf 7200 	movt	r2, #65280	; 0xff00
    436e:	ea00 0c02 	and.w	ip, r0, r2
    4372:	ea4a 010c 	orr.w	r1, sl, ip
    4376:	2008      	movs	r0, #8
    4378:	6019      	str	r1, [r3, #0]
    437a:	6058      	str	r0, [r3, #4]
    437c:	681a      	ldr	r2, [r3, #0]
    437e:	f042 0101 	orr.w	r1, r2, #1
    4382:	6019      	str	r1, [r3, #0]
    4384:	6898      	ldr	r0, [r3, #8]
    4386:	f010 0f40 	tst.w	r0, #64	; 0x40
    438a:	d105      	bne.n	4398 <MSS_SPI_transfer_block+0x64>
    438c:	6919      	ldr	r1, [r3, #16]
    438e:	9101      	str	r1, [sp, #4]
    4390:	689a      	ldr	r2, [r3, #8]
    4392:	f012 0f40 	tst.w	r2, #64	; 0x40
    4396:	d0f9      	beq.n	438c <MSS_SPI_transfer_block+0x58>
    4398:	2e00      	cmp	r6, #0
    439a:	d03a      	beq.n	4412 <MSS_SPI_transfer_block+0xde>
    439c:	f898 0000 	ldrb.w	r0, [r8]
    43a0:	6158      	str	r0, [r3, #20]
    43a2:	2d00      	cmp	r5, #0
    43a4:	d032      	beq.n	440c <MSS_SPI_transfer_block+0xd8>
    43a6:	2101      	movs	r1, #1
    43a8:	2000      	movs	r0, #0
    43aa:	468c      	mov	ip, r1
    43ac:	4602      	mov	r2, r0
    43ae:	f8d3 a008 	ldr.w	sl, [r3, #8]
    43b2:	f01a 0f40 	tst.w	sl, #64	; 0x40
    43b6:	d111      	bne.n	43dc <MSS_SPI_transfer_block+0xa8>
    43b8:	f8d3 a010 	ldr.w	sl, [r3, #16]
    43bc:	4296      	cmp	r6, r2
    43be:	f8cd a004 	str.w	sl, [sp, #4]
    43c2:	d807      	bhi.n	43d4 <MSS_SPI_transfer_block+0xa0>
    43c4:	4284      	cmp	r4, r0
    43c6:	bf82      	ittt	hi
    43c8:	9b01      	ldrhi	r3, [sp, #4]
    43ca:	f809 3000 	strbhi.w	r3, [r9, r0]
    43ce:	683b      	ldrhi	r3, [r7, #0]
    43d0:	3001      	adds	r0, #1
    43d2:	b280      	uxth	r0, r0
    43d4:	3201      	adds	r2, #1
    43d6:	3901      	subs	r1, #1
    43d8:	b292      	uxth	r2, r2
    43da:	b289      	uxth	r1, r1
    43dc:	f8d3 a008 	ldr.w	sl, [r3, #8]
    43e0:	f41a 7a80 	ands.w	sl, sl, #256	; 0x100
    43e4:	d110      	bne.n	4408 <MSS_SPI_transfer_block+0xd4>
    43e6:	2903      	cmp	r1, #3
    43e8:	d80e      	bhi.n	4408 <MSS_SPI_transfer_block+0xd4>
    43ea:	4566      	cmp	r6, ip
    43ec:	bf88      	it	hi
    43ee:	f818 a00c 	ldrbhi.w	sl, [r8, ip]
    43f2:	d801      	bhi.n	43f8 <MSS_SPI_transfer_block+0xc4>
    43f4:	4565      	cmp	r5, ip
    43f6:	d907      	bls.n	4408 <MSS_SPI_transfer_block+0xd4>
    43f8:	f10c 0c01 	add.w	ip, ip, #1
    43fc:	3101      	adds	r1, #1
    43fe:	f8c3 a014 	str.w	sl, [r3, #20]
    4402:	fa1f fc8c 	uxth.w	ip, ip
    4406:	b289      	uxth	r1, r1
    4408:	42aa      	cmp	r2, r5
    440a:	d3d0      	bcc.n	43ae <MSS_SPI_transfer_block+0x7a>
    440c:	b002      	add	sp, #8
    440e:	e8bd 87f0 	ldmia.w	sp!, {r4, r5, r6, r7, r8, r9, sl, pc}
    4412:	2d00      	cmp	r5, #0
    4414:	d0fa      	beq.n	440c <MSS_SPI_transfer_block+0xd8>
    4416:	615e      	str	r6, [r3, #20]
    4418:	e7c5      	b.n	43a6 <MSS_SPI_transfer_block+0x72>
    441a:	683b      	ldr	r3, [r7, #0]
    441c:	ea4f 2a05 	mov.w	sl, r5, lsl #8
    4420:	689a      	ldr	r2, [r3, #8]
    4422:	f012 0f04 	tst.w	r2, #4
    4426:	d099      	beq.n	435c <MSS_SPI_transfer_block+0x28>
    4428:	4638      	mov	r0, r7
    442a:	f7ff fe97 	bl	415c <recover_from_rx_overflow>
    442e:	683b      	ldr	r3, [r7, #0]
    4430:	e794      	b.n	435c <MSS_SPI_transfer_block+0x28>
    4432:	bf00      	nop

00004434 <MSS_SPI_set_frame_rx_handler>:
    4434:	6803      	ldr	r3, [r0, #0]
    4436:	b410      	push	{r4}
    4438:	689a      	ldr	r2, [r3, #8]
    443a:	2400      	movs	r4, #0
    443c:	f412 6f80 	tst.w	r2, #1024	; 0x400
    4440:	bf18      	it	ne
    4442:	6ada      	ldrne	r2, [r3, #44]	; 0x2c
    4444:	f890 c004 	ldrb.w	ip, [r0, #4]
    4448:	bf1c      	itt	ne
    444a:	f042 0201 	orrne.w	r2, r2, #1
    444e:	62da      	strne	r2, [r3, #44]	; 0x2c
    4450:	6784      	str	r4, [r0, #120]	; 0x78
    4452:	6701      	str	r1, [r0, #112]	; 0x70
    4454:	f00c 021f 	and.w	r2, ip, #31
    4458:	2001      	movs	r0, #1
    445a:	4090      	lsls	r0, r2
    445c:	681c      	ldr	r4, [r3, #0]
    445e:	fa4f f18c 	sxtb.w	r1, ip
    4462:	f24e 1200 	movw	r2, #57600	; 0xe100
    4466:	f044 0410 	orr.w	r4, r4, #16
    446a:	0949      	lsrs	r1, r1, #5
    446c:	f2ce 0200 	movt	r2, #57344	; 0xe000
    4470:	601c      	str	r4, [r3, #0]
    4472:	f842 0021 	str.w	r0, [r2, r1, lsl #2]
    4476:	bc10      	pop	{r4}
    4478:	4770      	bx	lr
    447a:	bf00      	nop

0000447c <MSS_SPI_set_slave_tx_frame>:
    447c:	7903      	ldrb	r3, [r0, #4]
    447e:	b4f0      	push	{r4, r5, r6, r7}
    4480:	f04f 0c01 	mov.w	ip, #1
    4484:	f003 041f 	and.w	r4, r3, #31
    4488:	fa0c f204 	lsl.w	r2, ip, r4
    448c:	2500      	movs	r5, #0
    448e:	6804      	ldr	r4, [r0, #0]
    4490:	6105      	str	r5, [r0, #16]
    4492:	60c5      	str	r5, [r0, #12]
    4494:	6741      	str	r1, [r0, #116]	; 0x74
    4496:	6ae7      	ldr	r7, [r4, #44]	; 0x2c
    4498:	b25b      	sxtb	r3, r3
    449a:	f027 0601 	bic.w	r6, r7, #1
    449e:	62e6      	str	r6, [r4, #44]	; 0x2c
    44a0:	6ae7      	ldr	r7, [r4, #44]	; 0x2c
    44a2:	f24e 1600 	movw	r6, #57600	; 0xe100
    44a6:	f047 0708 	orr.w	r7, r7, #8
    44aa:	62e7      	str	r7, [r4, #44]	; 0x2c
    44ac:	6161      	str	r1, [r4, #20]
    44ae:	6821      	ldr	r1, [r4, #0]
    44b0:	095b      	lsrs	r3, r3, #5
    44b2:	f041 0120 	orr.w	r1, r1, #32
    44b6:	f2ce 0600 	movt	r6, #57344	; 0xe000
    44ba:	6021      	str	r1, [r4, #0]
    44bc:	6085      	str	r5, [r0, #8]
    44be:	f846 2023 	str.w	r2, [r6, r3, lsl #2]
    44c2:	bcf0      	pop	{r4, r5, r6, r7}
    44c4:	4770      	bx	lr
    44c6:	bf00      	nop

000044c8 <MSS_SPI_set_slave_block_buffers>:
    44c8:	b4f0      	push	{r4, r5, r6, r7}
    44ca:	9f04      	ldr	r7, [sp, #16]
    44cc:	6804      	ldr	r4, [r0, #0]
    44ce:	2500      	movs	r5, #0
    44d0:	6287      	str	r7, [r0, #40]	; 0x28
    44d2:	6105      	str	r5, [r0, #16]
    44d4:	62c5      	str	r5, [r0, #44]	; 0x2c
    44d6:	60c2      	str	r2, [r0, #12]
    44d8:	6826      	ldr	r6, [r4, #0]
    44da:	f240 07ff 	movw	r7, #255	; 0xff
    44de:	f026 0601 	bic.w	r6, r6, #1
    44e2:	6026      	str	r6, [r4, #0]
    44e4:	6826      	ldr	r6, [r4, #0]
    44e6:	f6cf 7700 	movt	r7, #65280	; 0xff00
    44ea:	ea06 0c07 	and.w	ip, r6, r7
    44ee:	f44c 5780 	orr.w	r7, ip, #4096	; 0x1000
    44f2:	2608      	movs	r6, #8
    44f4:	6027      	str	r7, [r4, #0]
    44f6:	6066      	str	r6, [r4, #4]
    44f8:	6827      	ldr	r7, [r4, #0]
    44fa:	6243      	str	r3, [r0, #36]	; 0x24
    44fc:	f047 0601 	orr.w	r6, r7, #1
    4500:	6026      	str	r6, [r4, #0]
    4502:	68a6      	ldr	r6, [r4, #8]
    4504:	9f05      	ldr	r7, [sp, #20]
    4506:	f416 7f80 	tst.w	r6, #256	; 0x100
    450a:	6787      	str	r7, [r0, #120]	; 0x78
    450c:	6705      	str	r5, [r0, #112]	; 0x70
    450e:	6081      	str	r1, [r0, #8]
    4510:	d10d      	bne.n	452e <MSS_SPI_set_slave_block_buffers+0x66>
    4512:	6903      	ldr	r3, [r0, #16]
    4514:	e008      	b.n	4528 <MSS_SPI_set_slave_block_buffers+0x60>
    4516:	5ccd      	ldrb	r5, [r1, r3]
    4518:	6165      	str	r5, [r4, #20]
    451a:	6903      	ldr	r3, [r0, #16]
    451c:	3301      	adds	r3, #1
    451e:	6103      	str	r3, [r0, #16]
    4520:	68a5      	ldr	r5, [r4, #8]
    4522:	f415 7f80 	tst.w	r5, #256	; 0x100
    4526:	d102      	bne.n	452e <MSS_SPI_set_slave_block_buffers+0x66>
    4528:	68c5      	ldr	r5, [r0, #12]
    452a:	429d      	cmp	r5, r3
    452c:	d8f3      	bhi.n	4516 <MSS_SPI_set_slave_block_buffers+0x4e>
    452e:	6823      	ldr	r3, [r4, #0]
    4530:	f043 0110 	orr.w	r1, r3, #16
    4534:	6021      	str	r1, [r4, #0]
    4536:	b9c2      	cbnz	r2, 456a <MSS_SPI_set_slave_block_buffers+0xa2>
    4538:	6ae3      	ldr	r3, [r4, #44]	; 0x2c
    453a:	f043 0101 	orr.w	r1, r3, #1
    453e:	62e1      	str	r1, [r4, #44]	; 0x2c
    4540:	f890 c004 	ldrb.w	ip, [r0, #4]
    4544:	2101      	movs	r1, #1
    4546:	f00c 031f 	and.w	r3, ip, #31
    454a:	4099      	lsls	r1, r3
    454c:	6aa0      	ldr	r0, [r4, #40]	; 0x28
    454e:	fa4f f28c 	sxtb.w	r2, ip
    4552:	f24e 1300 	movw	r3, #57600	; 0xe100
    4556:	f040 0020 	orr.w	r0, r0, #32
    455a:	0952      	lsrs	r2, r2, #5
    455c:	f2ce 0300 	movt	r3, #57344	; 0xe000
    4560:	62a0      	str	r0, [r4, #40]	; 0x28
    4562:	f843 1022 	str.w	r1, [r3, r2, lsl #2]
    4566:	bcf0      	pop	{r4, r5, r6, r7}
    4568:	4770      	bx	lr
    456a:	6ae2      	ldr	r2, [r4, #44]	; 0x2c
    456c:	f022 0301 	bic.w	r3, r2, #1
    4570:	62e3      	str	r3, [r4, #44]	; 0x2c
    4572:	6821      	ldr	r1, [r4, #0]
    4574:	f041 0220 	orr.w	r2, r1, #32
    4578:	6022      	str	r2, [r4, #0]
    457a:	e7e1      	b.n	4540 <MSS_SPI_set_slave_block_buffers+0x78>

0000457c <MSS_SPI_set_cmd_handler>:
    457c:	6803      	ldr	r3, [r0, #0]
    457e:	6201      	str	r1, [r0, #32]
    4580:	635a      	str	r2, [r3, #52]	; 0x34
    4582:	6a9a      	ldr	r2, [r3, #40]	; 0x28
    4584:	f042 0210 	orr.w	r2, r2, #16
    4588:	629a      	str	r2, [r3, #40]	; 0x28
    458a:	4770      	bx	lr

0000458c <MSS_SPI_set_cmd_response>:
    458c:	6182      	str	r2, [r0, #24]
    458e:	6803      	ldr	r3, [r0, #0]
    4590:	2200      	movs	r2, #0
    4592:	61c2      	str	r2, [r0, #28]
    4594:	689a      	ldr	r2, [r3, #8]
    4596:	6141      	str	r1, [r0, #20]
    4598:	f412 7f80 	tst.w	r2, #256	; 0x100
    459c:	d11a      	bne.n	45d4 <MSS_SPI_set_cmd_response+0x48>
    459e:	6902      	ldr	r2, [r0, #16]
    45a0:	68c1      	ldr	r1, [r0, #12]
    45a2:	428a      	cmp	r2, r1
    45a4:	d20a      	bcs.n	45bc <MSS_SPI_set_cmd_response+0x30>
    45a6:	6881      	ldr	r1, [r0, #8]
    45a8:	5c8a      	ldrb	r2, [r1, r2]
    45aa:	615a      	str	r2, [r3, #20]
    45ac:	6901      	ldr	r1, [r0, #16]
    45ae:	1c4a      	adds	r2, r1, #1
    45b0:	6102      	str	r2, [r0, #16]
    45b2:	689a      	ldr	r2, [r3, #8]
    45b4:	f412 7f80 	tst.w	r2, #256	; 0x100
    45b8:	d0f1      	beq.n	459e <MSS_SPI_set_cmd_response+0x12>
    45ba:	4770      	bx	lr
    45bc:	69c2      	ldr	r2, [r0, #28]
    45be:	6981      	ldr	r1, [r0, #24]
    45c0:	428a      	cmp	r2, r1
    45c2:	d206      	bcs.n	45d2 <MSS_SPI_set_cmd_response+0x46>
    45c4:	6941      	ldr	r1, [r0, #20]
    45c6:	5c8a      	ldrb	r2, [r1, r2]
    45c8:	615a      	str	r2, [r3, #20]
    45ca:	69c1      	ldr	r1, [r0, #28]
    45cc:	1c4a      	adds	r2, r1, #1
    45ce:	61c2      	str	r2, [r0, #28]
    45d0:	e7ef      	b.n	45b2 <MSS_SPI_set_cmd_response+0x26>
    45d2:	689b      	ldr	r3, [r3, #8]
    45d4:	4770      	bx	lr
    45d6:	bf00      	nop

000045d8 <MSS_SPI_enable>:
    45d8:	6803      	ldr	r3, [r0, #0]
    45da:	6818      	ldr	r0, [r3, #0]
    45dc:	f040 0201 	orr.w	r2, r0, #1
    45e0:	601a      	str	r2, [r3, #0]
    45e2:	4770      	bx	lr

000045e4 <MSS_SPI_disable>:
    45e4:	6803      	ldr	r3, [r0, #0]
    45e6:	6818      	ldr	r0, [r3, #0]
    45e8:	f020 0201 	bic.w	r2, r0, #1
    45ec:	601a      	str	r2, [r3, #0]
    45ee:	4770      	bx	lr

000045f0 <MSS_SPI_set_transfer_byte_count>:
    45f0:	6803      	ldr	r3, [r0, #0]
    45f2:	f240 02ff 	movw	r2, #255	; 0xff
    45f6:	6818      	ldr	r0, [r3, #0]
    45f8:	f6cf 7200 	movt	r2, #65280	; 0xff00
    45fc:	ea00 0c02 	and.w	ip, r0, r2
    4600:	ea4c 2001 	orr.w	r0, ip, r1, lsl #8
    4604:	2208      	movs	r2, #8
    4606:	6018      	str	r0, [r3, #0]
    4608:	605a      	str	r2, [r3, #4]
    460a:	4770      	bx	lr

0000460c <MSS_SPI_tx_done>:
    460c:	6803      	ldr	r3, [r0, #0]
    460e:	6898      	ldr	r0, [r3, #8]
    4610:	f000 0001 	and.w	r0, r0, #1
    4614:	4770      	bx	lr
    4616:	bf00      	nop

00004618 <read_slave_rx_fifo>:
    4618:	6f03      	ldr	r3, [r0, #112]	; 0x70
    461a:	b510      	push	{r4, lr}
    461c:	4604      	mov	r4, r0
    461e:	b173      	cbz	r3, 463e <read_slave_rx_fifo+0x26>
    4620:	6802      	ldr	r2, [r0, #0]
    4622:	6891      	ldr	r1, [r2, #8]
    4624:	f011 0f40 	tst.w	r1, #64	; 0x40
    4628:	d001      	beq.n	462e <read_slave_rx_fifo+0x16>
    462a:	e007      	b.n	463c <read_slave_rx_fifo+0x24>
    462c:	6f23      	ldr	r3, [r4, #112]	; 0x70
    462e:	6910      	ldr	r0, [r2, #16]
    4630:	4798      	blx	r3
    4632:	6822      	ldr	r2, [r4, #0]
    4634:	6893      	ldr	r3, [r2, #8]
    4636:	f013 0f40 	tst.w	r3, #64	; 0x40
    463a:	d0f7      	beq.n	462c <read_slave_rx_fifo+0x14>
    463c:	bd10      	pop	{r4, pc}
    463e:	6802      	ldr	r2, [r0, #0]
    4640:	6890      	ldr	r0, [r2, #8]
    4642:	f010 0f40 	tst.w	r0, #64	; 0x40
    4646:	d1f9      	bne.n	463c <read_slave_rx_fifo+0x24>
    4648:	6ae3      	ldr	r3, [r4, #44]	; 0x2c
    464a:	6aa1      	ldr	r1, [r4, #40]	; 0x28
    464c:	428b      	cmp	r3, r1
    464e:	d303      	bcc.n	4658 <read_slave_rx_fifo+0x40>
    4650:	e7f4      	b.n	463c <read_slave_rx_fifo+0x24>
    4652:	6aa0      	ldr	r0, [r4, #40]	; 0x28
    4654:	4298      	cmp	r0, r3
    4656:	d9f1      	bls.n	463c <read_slave_rx_fifo+0x24>
    4658:	6911      	ldr	r1, [r2, #16]
    465a:	6a62      	ldr	r2, [r4, #36]	; 0x24
    465c:	54d1      	strb	r1, [r2, r3]
    465e:	6ae3      	ldr	r3, [r4, #44]	; 0x2c
    4660:	6822      	ldr	r2, [r4, #0]
    4662:	3301      	adds	r3, #1
    4664:	62e3      	str	r3, [r4, #44]	; 0x2c
    4666:	6890      	ldr	r0, [r2, #8]
    4668:	f010 0f40 	tst.w	r0, #64	; 0x40
    466c:	d0f1      	beq.n	4652 <read_slave_rx_fifo+0x3a>
    466e:	e7e5      	b.n	463c <read_slave_rx_fifo+0x24>

00004670 <mss_spi_isr>:
    4670:	6803      	ldr	r3, [r0, #0]
    4672:	b510      	push	{r4, lr}
    4674:	6a19      	ldr	r1, [r3, #32]
    4676:	4604      	mov	r4, r0
    4678:	f011 0f02 	tst.w	r1, #2
    467c:	461a      	mov	r2, r3
    467e:	d146      	bne.n	470e <mss_spi_isr+0x9e>
    4680:	6a18      	ldr	r0, [r3, #32]
    4682:	f010 0f01 	tst.w	r0, #1
    4686:	d005      	beq.n	4694 <mss_spi_isr+0x24>
    4688:	68a1      	ldr	r1, [r4, #8]
    468a:	2900      	cmp	r1, #0
    468c:	d052      	beq.n	4734 <mss_spi_isr+0xc4>
    468e:	2001      	movs	r0, #1
    4690:	60d8      	str	r0, [r3, #12]
    4692:	461a      	mov	r2, r3
    4694:	6a1b      	ldr	r3, [r3, #32]
    4696:	f013 0f10 	tst.w	r3, #16
    469a:	d13f      	bne.n	471c <mss_spi_isr+0xac>
    469c:	6a10      	ldr	r0, [r2, #32]
    469e:	f010 0f20 	tst.w	r0, #32
    46a2:	d100      	bne.n	46a6 <mss_spi_isr+0x36>
    46a4:	bd10      	pop	{r4, pc}
    46a6:	4620      	mov	r0, r4
    46a8:	f7ff ffb6 	bl	4618 <read_slave_rx_fifo>
    46ac:	6822      	ldr	r2, [r4, #0]
    46ae:	2100      	movs	r1, #0
    46b0:	6121      	str	r1, [r4, #16]
    46b2:	6ad0      	ldr	r0, [r2, #44]	; 0x2c
    46b4:	6ae1      	ldr	r1, [r4, #44]	; 0x2c
    46b6:	f040 0308 	orr.w	r3, r0, #8
    46ba:	62d3      	str	r3, [r2, #44]	; 0x2c
    46bc:	6893      	ldr	r3, [r2, #8]
    46be:	f413 7f80 	tst.w	r3, #256	; 0x100
    46c2:	d10d      	bne.n	46e0 <mss_spi_isr+0x70>
    46c4:	6923      	ldr	r3, [r4, #16]
    46c6:	68e0      	ldr	r0, [r4, #12]
    46c8:	4283      	cmp	r3, r0
    46ca:	d213      	bcs.n	46f4 <mss_spi_isr+0x84>
    46cc:	68a0      	ldr	r0, [r4, #8]
    46ce:	5cc3      	ldrb	r3, [r0, r3]
    46d0:	6153      	str	r3, [r2, #20]
    46d2:	6920      	ldr	r0, [r4, #16]
    46d4:	1c43      	adds	r3, r0, #1
    46d6:	6123      	str	r3, [r4, #16]
    46d8:	6893      	ldr	r3, [r2, #8]
    46da:	f413 7f80 	tst.w	r3, #256	; 0x100
    46de:	d0f1      	beq.n	46c4 <mss_spi_isr+0x54>
    46e0:	6fa3      	ldr	r3, [r4, #120]	; 0x78
    46e2:	2000      	movs	r0, #0
    46e4:	62e0      	str	r0, [r4, #44]	; 0x2c
    46e6:	b113      	cbz	r3, 46ee <mss_spi_isr+0x7e>
    46e8:	6a60      	ldr	r0, [r4, #36]	; 0x24
    46ea:	4798      	blx	r3
    46ec:	6822      	ldr	r2, [r4, #0]
    46ee:	2120      	movs	r1, #32
    46f0:	60d1      	str	r1, [r2, #12]
    46f2:	bd10      	pop	{r4, pc}
    46f4:	69e3      	ldr	r3, [r4, #28]
    46f6:	69a0      	ldr	r0, [r4, #24]
    46f8:	4283      	cmp	r3, r0
    46fa:	d206      	bcs.n	470a <mss_spi_isr+0x9a>
    46fc:	6960      	ldr	r0, [r4, #20]
    46fe:	5cc3      	ldrb	r3, [r0, r3]
    4700:	6153      	str	r3, [r2, #20]
    4702:	69e0      	ldr	r0, [r4, #28]
    4704:	1c43      	adds	r3, r0, #1
    4706:	61e3      	str	r3, [r4, #28]
    4708:	e7d8      	b.n	46bc <mss_spi_isr+0x4c>
    470a:	6893      	ldr	r3, [r2, #8]
    470c:	e7e8      	b.n	46e0 <mss_spi_isr+0x70>
    470e:	f7ff ff83 	bl	4618 <read_slave_rx_fifo>
    4712:	6823      	ldr	r3, [r4, #0]
    4714:	2202      	movs	r2, #2
    4716:	60da      	str	r2, [r3, #12]
    4718:	461a      	mov	r2, r3
    471a:	e7b1      	b.n	4680 <mss_spi_isr+0x10>
    471c:	4620      	mov	r0, r4
    471e:	f7ff ff7b 	bl	4618 <read_slave_rx_fifo>
    4722:	6a23      	ldr	r3, [r4, #32]
    4724:	b113      	cbz	r3, 472c <mss_spi_isr+0xbc>
    4726:	6a60      	ldr	r0, [r4, #36]	; 0x24
    4728:	6ae1      	ldr	r1, [r4, #44]	; 0x2c
    472a:	4798      	blx	r3
    472c:	6822      	ldr	r2, [r4, #0]
    472e:	2110      	movs	r1, #16
    4730:	60d1      	str	r1, [r2, #12]
    4732:	e7b3      	b.n	469c <mss_spi_isr+0x2c>
    4734:	6f62      	ldr	r2, [r4, #116]	; 0x74
    4736:	615a      	str	r2, [r3, #20]
    4738:	e7a9      	b.n	468e <mss_spi_isr+0x1e>
    473a:	bf00      	nop

0000473c <SPI0_IRQHandler>:
    473c:	4668      	mov	r0, sp
    473e:	f020 0107 	bic.w	r1, r0, #7
    4742:	468d      	mov	sp, r1
    4744:	b501      	push	{r0, lr}
    4746:	f640 00d0 	movw	r0, #2256	; 0x8d0
    474a:	f2c2 0000 	movt	r0, #8192	; 0x2000
    474e:	f7ff ff8f 	bl	4670 <mss_spi_isr>
    4752:	e8bd 4001 	ldmia.w	sp!, {r0, lr}
    4756:	4685      	mov	sp, r0
    4758:	4770      	bx	lr
    475a:	bf00      	nop

0000475c <SPI1_IRQHandler>:
    475c:	4668      	mov	r0, sp
    475e:	f020 0107 	bic.w	r1, r0, #7
    4762:	468d      	mov	sp, r1
    4764:	b501      	push	{r0, lr}
    4766:	f640 0054 	movw	r0, #2132	; 0x854
    476a:	f2c2 0000 	movt	r0, #8192	; 0x2000
    476e:	f7ff ff7f 	bl	4670 <mss_spi_isr>
    4772:	e8bd 4001 	ldmia.w	sp!, {r0, lr}
    4776:	4685      	mov	sp, r0
    4778:	4770      	bx	lr
    477a:	bf00      	nop

0000477c <FLASH_get_status>:
    477c:	b510      	push	{r4, lr}
    477e:	b084      	sub	sp, #16
    4780:	a904      	add	r1, sp, #16
    4782:	2305      	movs	r3, #5
    4784:	2401      	movs	r4, #1
    4786:	f640 00d0 	movw	r0, #2256	; 0x8d0
    478a:	f801 3d02 	strb.w	r3, [r1, #-2]!
    478e:	f2c2 0000 	movt	r0, #8192	; 0x2000
    4792:	4622      	mov	r2, r4
    4794:	f10d 030f 	add.w	r3, sp, #15
    4798:	9400      	str	r4, [sp, #0]
    479a:	f7ff fdcb 	bl	4334 <MSS_SPI_transfer_block>
    479e:	f89d 000f 	ldrb.w	r0, [sp, #15]
    47a2:	b004      	add	sp, #16
    47a4:	bd10      	pop	{r4, pc}
    47a6:	bf00      	nop

000047a8 <wait_ready>:
    47a8:	b570      	push	{r4, r5, r6, lr}
    47aa:	b084      	sub	sp, #16
    47ac:	ad04      	add	r5, sp, #16
    47ae:	2305      	movs	r3, #5
    47b0:	f805 3d02 	strb.w	r3, [r5, #-2]!
    47b4:	f10d 060f 	add.w	r6, sp, #15
    47b8:	2401      	movs	r4, #1
    47ba:	f640 00d0 	movw	r0, #2256	; 0x8d0
    47be:	f2c2 0000 	movt	r0, #8192	; 0x2000
    47c2:	4629      	mov	r1, r5
    47c4:	4622      	mov	r2, r4
    47c6:	4633      	mov	r3, r6
    47c8:	9400      	str	r4, [sp, #0]
    47ca:	f7ff fdb3 	bl	4334 <MSS_SPI_transfer_block>
    47ce:	f89d 100f 	ldrb.w	r1, [sp, #15]
    47d2:	f001 0001 	and.w	r0, r1, #1
    47d6:	f88d 000f 	strb.w	r0, [sp, #15]
    47da:	2800      	cmp	r0, #0
    47dc:	d1ed      	bne.n	47ba <wait_ready+0x12>
    47de:	b004      	add	sp, #16
    47e0:	bd70      	pop	{r4, r5, r6, pc}
    47e2:	bf00      	nop

000047e4 <FLASH_erase_4k_block>:
    47e4:	b5f0      	push	{r4, r5, r6, r7, lr}
    47e6:	b085      	sub	sp, #20
    47e8:	ae04      	add	r6, sp, #16
    47ea:	2506      	movs	r5, #6
    47ec:	f640 04d0 	movw	r4, #2256	; 0x8d0
    47f0:	f2c2 0400 	movt	r4, #8192	; 0x2000
    47f4:	f806 5d04 	strb.w	r5, [r6, #-4]!
    47f8:	2500      	movs	r5, #0
    47fa:	4607      	mov	r7, r0
    47fc:	4629      	mov	r1, r5
    47fe:	4620      	mov	r0, r4
    4800:	f7ff fd46 	bl	4290 <MSS_SPI_set_slave_select>
    4804:	f7ff ffd0 	bl	47a8 <wait_ready>
    4808:	4620      	mov	r0, r4
    480a:	4631      	mov	r1, r6
    480c:	2201      	movs	r2, #1
    480e:	462b      	mov	r3, r5
    4810:	9500      	str	r5, [sp, #0]
    4812:	f7ff fd8f 	bl	4334 <MSS_SPI_transfer_block>
    4816:	0c3a      	lsrs	r2, r7, #16
    4818:	0a3b      	lsrs	r3, r7, #8
    481a:	2120      	movs	r1, #32
    481c:	f88d 100c 	strb.w	r1, [sp, #12]
    4820:	f88d 200d 	strb.w	r2, [sp, #13]
    4824:	f88d 300e 	strb.w	r3, [sp, #14]
    4828:	f88d 700f 	strb.w	r7, [sp, #15]
    482c:	f7ff ffbc 	bl	47a8 <wait_ready>
    4830:	4631      	mov	r1, r6
    4832:	4620      	mov	r0, r4
    4834:	2204      	movs	r2, #4
    4836:	462b      	mov	r3, r5
    4838:	9500      	str	r5, [sp, #0]
    483a:	f7ff fd7b 	bl	4334 <MSS_SPI_transfer_block>
    483e:	f7ff ffb3 	bl	47a8 <wait_ready>
    4842:	4620      	mov	r0, r4
    4844:	4629      	mov	r1, r5
    4846:	f7ff fd47 	bl	42d8 <MSS_SPI_clear_slave_select>
    484a:	b005      	add	sp, #20
    484c:	bdf0      	pop	{r4, r5, r6, r7, pc}
    484e:	bf00      	nop

00004850 <FLASH_chip_erase>:
    4850:	b570      	push	{r4, r5, r6, lr}
    4852:	f640 04d0 	movw	r4, #2256	; 0x8d0
    4856:	b084      	sub	sp, #16
    4858:	2500      	movs	r5, #0
    485a:	f2c2 0400 	movt	r4, #8192	; 0x2000
    485e:	ae04      	add	r6, sp, #16
    4860:	2006      	movs	r0, #6
    4862:	f806 0d01 	strb.w	r0, [r6, #-1]!
    4866:	4629      	mov	r1, r5
    4868:	4620      	mov	r0, r4
    486a:	f7ff fd11 	bl	4290 <MSS_SPI_set_slave_select>
    486e:	f7ff ff9b 	bl	47a8 <wait_ready>
    4872:	4620      	mov	r0, r4
    4874:	4631      	mov	r1, r6
    4876:	2201      	movs	r2, #1
    4878:	462b      	mov	r3, r5
    487a:	9500      	str	r5, [sp, #0]
    487c:	f7ff fd5a 	bl	4334 <MSS_SPI_transfer_block>
    4880:	f06f 0338 	mvn.w	r3, #56	; 0x38
    4884:	f88d 300f 	strb.w	r3, [sp, #15]
    4888:	f7ff ff8e 	bl	47a8 <wait_ready>
    488c:	4631      	mov	r1, r6
    488e:	4620      	mov	r0, r4
    4890:	2201      	movs	r2, #1
    4892:	462b      	mov	r3, r5
    4894:	9500      	str	r5, [sp, #0]
    4896:	f7ff fd4d 	bl	4334 <MSS_SPI_transfer_block>
    489a:	f7ff ff85 	bl	47a8 <wait_ready>
    489e:	4620      	mov	r0, r4
    48a0:	4629      	mov	r1, r5
    48a2:	f7ff fd19 	bl	42d8 <MSS_SPI_clear_slave_select>
    48a6:	b004      	add	sp, #16
    48a8:	bd70      	pop	{r4, r5, r6, pc}
    48aa:	bf00      	nop

000048ac <FLASH_global_unprotect>:
    48ac:	b570      	push	{r4, r5, r6, lr}
    48ae:	f640 05d0 	movw	r5, #2256	; 0x8d0
    48b2:	b084      	sub	sp, #16
    48b4:	2400      	movs	r4, #0
    48b6:	f2c2 0500 	movt	r5, #8192	; 0x2000
    48ba:	ae04      	add	r6, sp, #16
    48bc:	2006      	movs	r0, #6
    48be:	f806 0d04 	strb.w	r0, [r6, #-4]!
    48c2:	4621      	mov	r1, r4
    48c4:	4628      	mov	r0, r5
    48c6:	f7ff fce3 	bl	4290 <MSS_SPI_set_slave_select>
    48ca:	f7ff ff6d 	bl	47a8 <wait_ready>
    48ce:	4628      	mov	r0, r5
    48d0:	4631      	mov	r1, r6
    48d2:	2201      	movs	r2, #1
    48d4:	4623      	mov	r3, r4
    48d6:	9400      	str	r4, [sp, #0]
    48d8:	f7ff fd2c 	bl	4334 <MSS_SPI_transfer_block>
    48dc:	2301      	movs	r3, #1
    48de:	f88d 300c 	strb.w	r3, [sp, #12]
    48e2:	f88d 400d 	strb.w	r4, [sp, #13]
    48e6:	f7ff ff5f 	bl	47a8 <wait_ready>
    48ea:	4631      	mov	r1, r6
    48ec:	4628      	mov	r0, r5
    48ee:	2202      	movs	r2, #2
    48f0:	4623      	mov	r3, r4
    48f2:	9400      	str	r4, [sp, #0]
    48f4:	f7ff fd1e 	bl	4334 <MSS_SPI_transfer_block>
    48f8:	f7ff ff56 	bl	47a8 <wait_ready>
    48fc:	4628      	mov	r0, r5
    48fe:	4621      	mov	r1, r4
    4900:	f7ff fcea 	bl	42d8 <MSS_SPI_clear_slave_select>
    4904:	b004      	add	sp, #16
    4906:	bd70      	pop	{r4, r5, r6, pc}

00004908 <FLASH_read>:
    4908:	b5f0      	push	{r4, r5, r6, r7, lr}
    490a:	f640 04d0 	movw	r4, #2256	; 0x8d0
    490e:	4684      	mov	ip, r0
    4910:	2500      	movs	r5, #0
    4912:	f2c2 0400 	movt	r4, #8192	; 0x2000
    4916:	b085      	sub	sp, #20
    4918:	ea4f 231c 	mov.w	r3, ip, lsr #8
    491c:	f04f 0e0b 	mov.w	lr, #11
    4920:	4620      	mov	r0, r4
    4922:	460f      	mov	r7, r1
    4924:	4616      	mov	r6, r2
    4926:	4629      	mov	r1, r5
    4928:	ea4f 421c 	mov.w	r2, ip, lsr #16
    492c:	f88d e008 	strb.w	lr, [sp, #8]
    4930:	f88d c00b 	strb.w	ip, [sp, #11]
    4934:	f88d 2009 	strb.w	r2, [sp, #9]
    4938:	f88d 300a 	strb.w	r3, [sp, #10]
    493c:	f88d 500c 	strb.w	r5, [sp, #12]
    4940:	f88d 500d 	strb.w	r5, [sp, #13]
    4944:	b2b6      	uxth	r6, r6
    4946:	f7ff fca3 	bl	4290 <MSS_SPI_set_slave_select>
    494a:	f7ff ff2d 	bl	47a8 <wait_ready>
    494e:	4620      	mov	r0, r4
    4950:	a902      	add	r1, sp, #8
    4952:	463b      	mov	r3, r7
    4954:	2206      	movs	r2, #6
    4956:	9600      	str	r6, [sp, #0]
    4958:	f7ff fcec 	bl	4334 <MSS_SPI_transfer_block>
    495c:	f7ff ff24 	bl	47a8 <wait_ready>
    4960:	4620      	mov	r0, r4
    4962:	4629      	mov	r1, r5
    4964:	f7ff fcb8 	bl	42d8 <MSS_SPI_clear_slave_select>
    4968:	b005      	add	sp, #20
    496a:	bdf0      	pop	{r4, r5, r6, r7, pc}

0000496c <FLASH_read_device_id>:
    496c:	b5f0      	push	{r4, r5, r6, r7, lr}
    496e:	f640 04d0 	movw	r4, #2256	; 0x8d0
    4972:	b085      	sub	sp, #20
    4974:	f2c2 0400 	movt	r4, #8192	; 0x2000
    4978:	af04      	add	r7, sp, #16
    497a:	f06f 0560 	mvn.w	r5, #96	; 0x60
    497e:	f807 5d01 	strb.w	r5, [r7, #-1]!
    4982:	4606      	mov	r6, r0
    4984:	460d      	mov	r5, r1
    4986:	4620      	mov	r0, r4
    4988:	2100      	movs	r1, #0
    498a:	f7ff fc81 	bl	4290 <MSS_SPI_set_slave_select>
    498e:	4639      	mov	r1, r7
    4990:	2201      	movs	r2, #1
    4992:	ab03      	add	r3, sp, #12
    4994:	4620      	mov	r0, r4
    4996:	2702      	movs	r7, #2
    4998:	9700      	str	r7, [sp, #0]
    499a:	f7ff fccb 	bl	4334 <MSS_SPI_transfer_block>
    499e:	4620      	mov	r0, r4
    49a0:	2100      	movs	r1, #0
    49a2:	f7ff fc99 	bl	42d8 <MSS_SPI_clear_slave_select>
    49a6:	f89d 200c 	ldrb.w	r2, [sp, #12]
    49aa:	f89d 300d 	ldrb.w	r3, [sp, #13]
    49ae:	7032      	strb	r2, [r6, #0]
    49b0:	702b      	strb	r3, [r5, #0]
    49b2:	b005      	add	sp, #20
    49b4:	bdf0      	pop	{r4, r5, r6, r7, pc}
    49b6:	bf00      	nop

000049b8 <write_cmd_data>:
    49b8:	b5f0      	push	{r4, r5, r6, r7, lr}
    49ba:	f5ad 7d05 	sub.w	sp, sp, #532	; 0x214
    49be:	4604      	mov	r4, r0
    49c0:	f8bd 5228 	ldrh.w	r5, [sp, #552]	; 0x228
    49c4:	4610      	mov	r0, r2
    49c6:	b1ea      	cbz	r2, 4a04 <write_cmd_data+0x4c>
    49c8:	1e57      	subs	r7, r2, #1
    49ca:	f891 c000 	ldrb.w	ip, [r1]
    49ce:	2201      	movs	r2, #1
    49d0:	ae03      	add	r6, sp, #12
    49d2:	4017      	ands	r7, r2
    49d4:	4282      	cmp	r2, r0
    49d6:	f886 c000 	strb.w	ip, [r6]
    49da:	da13      	bge.n	4a04 <write_cmd_data+0x4c>
    49dc:	b137      	cbz	r7, 49ec <write_cmd_data+0x34>
    49de:	f891 e001 	ldrb.w	lr, [r1, #1]
    49e2:	2202      	movs	r2, #2
    49e4:	4282      	cmp	r2, r0
    49e6:	f886 e001 	strb.w	lr, [r6, #1]
    49ea:	da0b      	bge.n	4a04 <write_cmd_data+0x4c>
    49ec:	5c8f      	ldrb	r7, [r1, r2]
    49ee:	f102 0c01 	add.w	ip, r2, #1
    49f2:	f811 e00c 	ldrb.w	lr, [r1, ip]
    49f6:	54b7      	strb	r7, [r6, r2]
    49f8:	f10c 0201 	add.w	r2, ip, #1
    49fc:	4282      	cmp	r2, r0
    49fe:	f806 e00c 	strb.w	lr, [r6, ip]
    4a02:	dbf3      	blt.n	49ec <write_cmd_data+0x34>
    4a04:	b305      	cbz	r5, 4a48 <write_cmd_data+0x90>
    4a06:	781e      	ldrb	r6, [r3, #0]
    4a08:	a903      	add	r1, sp, #12
    4a0a:	1e6a      	subs	r2, r5, #1
    4a0c:	1809      	adds	r1, r1, r0
    4a0e:	f801 6b01 	strb.w	r6, [r1], #1
    4a12:	f002 0601 	and.w	r6, r2, #1
    4a16:	2201      	movs	r2, #1
    4a18:	4295      	cmp	r5, r2
    4a1a:	dd15      	ble.n	4a48 <write_cmd_data+0x90>
    4a1c:	b136      	cbz	r6, 4a2c <write_cmd_data+0x74>
    4a1e:	f893 c001 	ldrb.w	ip, [r3, #1]
    4a22:	2202      	movs	r2, #2
    4a24:	4295      	cmp	r5, r2
    4a26:	f801 cb01 	strb.w	ip, [r1], #1
    4a2a:	dd0d      	ble.n	4a48 <write_cmd_data+0x90>
    4a2c:	f813 e002 	ldrb.w	lr, [r3, r2]
    4a30:	460e      	mov	r6, r1
    4a32:	f806 eb01 	strb.w	lr, [r6], #1
    4a36:	3201      	adds	r2, #1
    4a38:	f813 c002 	ldrb.w	ip, [r3, r2]
    4a3c:	3201      	adds	r2, #1
    4a3e:	f881 c001 	strb.w	ip, [r1, #1]
    4a42:	1c71      	adds	r1, r6, #1
    4a44:	4295      	cmp	r5, r2
    4a46:	dcf1      	bgt.n	4a2c <write_cmd_data+0x74>
    4a48:	182b      	adds	r3, r5, r0
    4a4a:	2500      	movs	r5, #0
    4a4c:	f640 00d0 	movw	r0, #2256	; 0x8d0
    4a50:	b29a      	uxth	r2, r3
    4a52:	f2c2 0000 	movt	r0, #8192	; 0x2000
    4a56:	462b      	mov	r3, r5
    4a58:	a903      	add	r1, sp, #12
    4a5a:	9500      	str	r5, [sp, #0]
    4a5c:	f7ff fc6a 	bl	4334 <MSS_SPI_transfer_block>
    4a60:	4620      	mov	r0, r4
    4a62:	f7ff fdd3 	bl	460c <MSS_SPI_tx_done>
    4a66:	2800      	cmp	r0, #0
    4a68:	d0fa      	beq.n	4a60 <write_cmd_data+0xa8>
    4a6a:	f50d 7d05 	add.w	sp, sp, #532	; 0x214
    4a6e:	bdf0      	pop	{r4, r5, r6, r7, pc}

00004a70 <FLASH_program>:
    4a70:	e92d 4ff0 	stmdb	sp!, {r4, r5, r6, r7, r8, r9, sl, fp, lr}
    4a74:	4604      	mov	r4, r0
    4a76:	b085      	sub	sp, #20
    4a78:	f640 00d0 	movw	r0, #2256	; 0x8d0
    4a7c:	af04      	add	r7, sp, #16
    4a7e:	f2c2 0000 	movt	r0, #8192	; 0x2000
    4a82:	2606      	movs	r6, #6
    4a84:	468b      	mov	fp, r1
    4a86:	2100      	movs	r1, #0
    4a88:	4690      	mov	r8, r2
    4a8a:	f7ff fc01 	bl	4290 <MSS_SPI_set_slave_select>
    4a8e:	f807 6d04 	strb.w	r6, [r7, #-4]!
    4a92:	2500      	movs	r5, #0
    4a94:	f7ff fe88 	bl	47a8 <wait_ready>
    4a98:	f640 00d0 	movw	r0, #2256	; 0x8d0
    4a9c:	f2c2 0000 	movt	r0, #8192	; 0x2000
    4aa0:	4639      	mov	r1, r7
    4aa2:	2201      	movs	r2, #1
    4aa4:	462b      	mov	r3, r5
    4aa6:	9500      	str	r5, [sp, #0]
    4aa8:	f7ff fc44 	bl	4334 <MSS_SPI_transfer_block>
    4aac:	0c22      	lsrs	r2, r4, #16
    4aae:	0a23      	lsrs	r3, r4, #8
    4ab0:	2139      	movs	r1, #57	; 0x39
    4ab2:	f88d 100c 	strb.w	r1, [sp, #12]
    4ab6:	f88d 200d 	strb.w	r2, [sp, #13]
    4aba:	f88d 300e 	strb.w	r3, [sp, #14]
    4abe:	f88d 400f 	strb.w	r4, [sp, #15]
    4ac2:	f7ff fe71 	bl	47a8 <wait_ready>
    4ac6:	f640 00d0 	movw	r0, #2256	; 0x8d0
    4aca:	f2c2 0000 	movt	r0, #8192	; 0x2000
    4ace:	4639      	mov	r1, r7
    4ad0:	2204      	movs	r2, #4
    4ad2:	462b      	mov	r3, r5
    4ad4:	9500      	str	r5, [sp, #0]
    4ad6:	f7ff fc2d 	bl	4334 <MSS_SPI_transfer_block>
    4ada:	f88d 600c 	strb.w	r6, [sp, #12]
    4ade:	f7ff fe63 	bl	47a8 <wait_ready>
    4ae2:	f640 00d0 	movw	r0, #2256	; 0x8d0
    4ae6:	f2c2 0000 	movt	r0, #8192	; 0x2000
    4aea:	4639      	mov	r1, r7
    4aec:	2201      	movs	r2, #1
    4aee:	462b      	mov	r3, r5
    4af0:	9500      	str	r5, [sp, #0]
    4af2:	f7ff fc1f 	bl	4334 <MSS_SPI_transfer_block>
    4af6:	f1b8 0f00 	cmp.w	r8, #0
    4afa:	d03c      	beq.n	4b76 <FLASH_program+0x106>
    4afc:	46a9      	mov	r9, r5
    4afe:	f004 06ff 	and.w	r6, r4, #255	; 0xff
    4b02:	ebc5 0008 	rsb	r0, r5, r8
    4b06:	f5c6 7680 	rsb	r6, r6, #256	; 0x100
    4b0a:	4286      	cmp	r6, r0
    4b0c:	bf28      	it	cs
    4b0e:	4606      	movcs	r6, r0
    4b10:	f7ff fe4a 	bl	47a8 <wait_ready>
    4b14:	f640 00d0 	movw	r0, #2256	; 0x8d0
    4b18:	2201      	movs	r2, #1
    4b1a:	f2c2 0000 	movt	r0, #8192	; 0x2000
    4b1e:	4639      	mov	r1, r7
    4b20:	464b      	mov	r3, r9
    4b22:	f04f 0a06 	mov.w	sl, #6
    4b26:	f88d a00c 	strb.w	sl, [sp, #12]
    4b2a:	f8cd 9000 	str.w	r9, [sp]
    4b2e:	f7ff fc01 	bl	4334 <MSS_SPI_transfer_block>
    4b32:	f7ff fe39 	bl	47a8 <wait_ready>
    4b36:	fa1f fc86 	uxth.w	ip, r6
    4b3a:	f640 00d0 	movw	r0, #2256	; 0x8d0
    4b3e:	ea4f 4e14 	mov.w	lr, r4, lsr #16
    4b42:	ea4f 2a14 	mov.w	sl, r4, lsr #8
    4b46:	eb0b 0305 	add.w	r3, fp, r5
    4b4a:	2204      	movs	r2, #4
    4b4c:	f8cd c000 	str.w	ip, [sp]
    4b50:	f2c2 0000 	movt	r0, #8192	; 0x2000
    4b54:	f04f 0c02 	mov.w	ip, #2
    4b58:	19ad      	adds	r5, r5, r6
    4b5a:	4639      	mov	r1, r7
    4b5c:	f88d 400f 	strb.w	r4, [sp, #15]
    4b60:	f88d e00d 	strb.w	lr, [sp, #13]
    4b64:	f88d a00e 	strb.w	sl, [sp, #14]
    4b68:	f88d c00c 	strb.w	ip, [sp, #12]
    4b6c:	19a4      	adds	r4, r4, r6
    4b6e:	f7ff ff23 	bl	49b8 <write_cmd_data>
    4b72:	45a8      	cmp	r8, r5
    4b74:	d8c3      	bhi.n	4afe <FLASH_program+0x8e>
    4b76:	2404      	movs	r4, #4
    4b78:	f88d 400c 	strb.w	r4, [sp, #12]
    4b7c:	f7ff fe14 	bl	47a8 <wait_ready>
    4b80:	2400      	movs	r4, #0
    4b82:	f640 00d0 	movw	r0, #2256	; 0x8d0
    4b86:	4639      	mov	r1, r7
    4b88:	f2c2 0000 	movt	r0, #8192	; 0x2000
    4b8c:	2201      	movs	r2, #1
    4b8e:	4623      	mov	r3, r4
    4b90:	9400      	str	r4, [sp, #0]
    4b92:	f7ff fbcf 	bl	4334 <MSS_SPI_transfer_block>
    4b96:	f640 00d0 	movw	r0, #2256	; 0x8d0
    4b9a:	f2c2 0000 	movt	r0, #8192	; 0x2000
    4b9e:	4621      	mov	r1, r4
    4ba0:	f7ff fb9a 	bl	42d8 <MSS_SPI_clear_slave_select>
    4ba4:	b005      	add	sp, #20
    4ba6:	e8bd 8ff0 	ldmia.w	sp!, {r4, r5, r6, r7, r8, r9, sl, fp, pc}
    4baa:	bf00      	nop

00004bac <FLASH_init>:
    4bac:	b530      	push	{r4, r5, lr}
    4bae:	f640 04d0 	movw	r4, #2256	; 0x8d0
    4bb2:	f2c2 0400 	movt	r4, #8192	; 0x2000
    4bb6:	b083      	sub	sp, #12
    4bb8:	4605      	mov	r5, r0
    4bba:	4620      	mov	r0, r4
    4bbc:	f7ff fa7c 	bl	40b8 <MSS_SPI_init>
    4bc0:	4620      	mov	r0, r4
    4bc2:	462b      	mov	r3, r5
    4bc4:	2408      	movs	r4, #8
    4bc6:	2100      	movs	r1, #0
    4bc8:	f04f 7240 	mov.w	r2, #50331648	; 0x3000000
    4bcc:	9400      	str	r4, [sp, #0]
    4bce:	f7ff fb3d 	bl	424c <MSS_SPI_configure_master_mode>
    4bd2:	b003      	add	sp, #12
    4bd4:	bd30      	pop	{r4, r5, pc}
    4bd6:	bf00      	nop

00004bd8 <SystemCoreClockUpdate>:
    4bd8:	b430      	push	{r4, r5}
    4bda:	f248 0300 	movw	r3, #32768	; 0x8000
    4bde:	f2c4 0303 	movt	r3, #16387	; 0x4003
    4be2:	f8d3 2098 	ldr.w	r2, [r3, #152]	; 0x98
    4be6:	b082      	sub	sp, #8
    4be8:	f012 6f80 	tst.w	r2, #67108864	; 0x4000000
    4bec:	d12f      	bne.n	4c4e <SystemCoreClockUpdate+0x76>
    4bee:	f8d3 0098 	ldr.w	r0, [r3, #152]	; 0x98
    4bf2:	f410 5f80 	tst.w	r0, #4096	; 0x1000
    4bf6:	d04a      	beq.n	4c8e <SystemCoreClockUpdate+0xb6>
    4bf8:	f24b 1158 	movw	r1, #45400	; 0xb158
    4bfc:	46ec      	mov	ip, sp
    4bfe:	f2c0 0100 	movt	r1, #0
    4c02:	c903      	ldmia	r1!, {r0, r1}
    4c04:	e88c 0003 	stmia.w	ip, {r0, r1}
    4c08:	f8d3 209c 	ldr.w	r2, [r3, #156]	; 0x9c
    4c0c:	a902      	add	r1, sp, #8
    4c0e:	f3c2 1082 	ubfx	r0, r2, #6, #3
    4c12:	180a      	adds	r2, r1, r0
    4c14:	f812 cc08 	ldrb.w	ip, [r2, #-8]
    4c18:	f1bc 0f01 	cmp.w	ip, #1
    4c1c:	d062      	beq.n	4ce4 <SystemCoreClockUpdate+0x10c>
    4c1e:	d256      	bcs.n	4cce <SystemCoreClockUpdate+0xf6>
    4c20:	f8d3 3150 	ldr.w	r3, [r3, #336]	; 0x150
    4c24:	f647 0040 	movw	r0, #30784	; 0x7840
    4c28:	f24f 0280 	movw	r2, #61568	; 0xf080
    4c2c:	f013 0f04 	tst.w	r3, #4
    4c30:	f2c0 107d 	movt	r0, #381	; 0x17d
    4c34:	f2c0 22fa 	movt	r2, #762	; 0x2fa
    4c38:	f240 0318 	movw	r3, #24
    4c3c:	f640 1100 	movw	r1, #2304	; 0x900
    4c40:	bf08      	it	eq
    4c42:	4602      	moveq	r2, r0
    4c44:	f2c2 0300 	movt	r3, #8192	; 0x2000
    4c48:	f2c0 013d 	movt	r1, #61	; 0x3d
    4c4c:	e015      	b.n	4c7a <SystemCoreClockUpdate+0xa2>
    4c4e:	f8d3 1150 	ldr.w	r1, [r3, #336]	; 0x150
    4c52:	f647 0c40 	movw	ip, #30784	; 0x7840
    4c56:	f24f 0280 	movw	r2, #61568	; 0xf080
    4c5a:	f011 0f04 	tst.w	r1, #4
    4c5e:	f2c0 1c7d 	movt	ip, #381	; 0x17d
    4c62:	f2c0 22fa 	movt	r2, #762	; 0x2fa
    4c66:	f240 0318 	movw	r3, #24
    4c6a:	f640 1100 	movw	r1, #2304	; 0x900
    4c6e:	bf08      	it	eq
    4c70:	4662      	moveq	r2, ip
    4c72:	f2c2 0300 	movt	r3, #8192	; 0x2000
    4c76:	f2c0 013d 	movt	r1, #61	; 0x3d
    4c7a:	619a      	str	r2, [r3, #24]
    4c7c:	60d9      	str	r1, [r3, #12]
    4c7e:	601a      	str	r2, [r3, #0]
    4c80:	605a      	str	r2, [r3, #4]
    4c82:	609a      	str	r2, [r3, #8]
    4c84:	611a      	str	r2, [r3, #16]
    4c86:	615a      	str	r2, [r3, #20]
    4c88:	b002      	add	sp, #8
    4c8a:	bc30      	pop	{r4, r5}
    4c8c:	4770      	bx	lr
    4c8e:	f240 0318 	movw	r3, #24
    4c92:	f646 0100 	movw	r1, #26624	; 0x6800
    4c96:	f24b 4200 	movw	r2, #46080	; 0xb400
    4c9a:	f640 1400 	movw	r4, #2304	; 0x900
    4c9e:	f645 2000 	movw	r0, #23040	; 0x5a00
    4ca2:	f24d 0500 	movw	r5, #53248	; 0xd000
    4ca6:	f2c2 0300 	movt	r3, #8192	; 0x2000
    4caa:	f6c0 1189 	movt	r1, #2441	; 0x989
    4cae:	f2c0 42c4 	movt	r2, #1220	; 0x4c4
    4cb2:	f2c0 043d 	movt	r4, #61	; 0x3d
    4cb6:	f2c0 2062 	movt	r0, #610	; 0x262
    4cba:	f2c1 3512 	movt	r5, #4882	; 0x1312
    4cbe:	619d      	str	r5, [r3, #24]
    4cc0:	609a      	str	r2, [r3, #8]
    4cc2:	60dc      	str	r4, [r3, #12]
    4cc4:	6118      	str	r0, [r3, #16]
    4cc6:	6159      	str	r1, [r3, #20]
    4cc8:	6019      	str	r1, [r3, #0]
    4cca:	605a      	str	r2, [r3, #4]
    4ccc:	e7dc      	b.n	4c88 <SystemCoreClockUpdate+0xb0>
    4cce:	f240 0318 	movw	r3, #24
    4cd2:	f244 2240 	movw	r2, #16960	; 0x4240
    4cd6:	f640 1100 	movw	r1, #2304	; 0x900
    4cda:	f2c2 0300 	movt	r3, #8192	; 0x2000
    4cde:	f2c0 020f 	movt	r2, #15
    4ce2:	e7c8      	b.n	4c76 <SystemCoreClockUpdate+0x9e>
    4ce4:	f240 0318 	movw	r3, #24
    4ce8:	f640 1100 	movw	r1, #2304	; 0x900
    4cec:	f2c2 0300 	movt	r3, #8192	; 0x2000
    4cf0:	f2c0 013d 	movt	r1, #61	; 0x3d
    4cf4:	f44f 4200 	mov.w	r2, #32768	; 0x8000
    4cf8:	e7bf      	b.n	4c7a <SystemCoreClockUpdate+0xa2>
    4cfa:	bf00      	nop

00004cfc <SystemCoreClockHardUpdate>:
    4cfc:	b410      	push	{r4}
    4cfe:	f240 0318 	movw	r3, #24
    4d02:	f646 0100 	movw	r1, #26624	; 0x6800
    4d06:	f24b 4200 	movw	r2, #46080	; 0xb400
    4d0a:	f640 1400 	movw	r4, #2304	; 0x900
    4d0e:	f645 2000 	movw	r0, #23040	; 0x5a00
    4d12:	f24d 0c00 	movw	ip, #53248	; 0xd000
    4d16:	f2c2 0300 	movt	r3, #8192	; 0x2000
    4d1a:	f6c0 1189 	movt	r1, #2441	; 0x989
    4d1e:	f2c0 42c4 	movt	r2, #1220	; 0x4c4
    4d22:	f2c0 043d 	movt	r4, #61	; 0x3d
    4d26:	f2c0 2062 	movt	r0, #610	; 0x262
    4d2a:	f2c1 3c12 	movt	ip, #4882	; 0x1312
    4d2e:	f8c3 c018 	str.w	ip, [r3, #24]
    4d32:	609a      	str	r2, [r3, #8]
    4d34:	60dc      	str	r4, [r3, #12]
    4d36:	6118      	str	r0, [r3, #16]
    4d38:	6159      	str	r1, [r3, #20]
    4d3a:	6019      	str	r1, [r3, #0]
    4d3c:	605a      	str	r2, [r3, #4]
    4d3e:	bc10      	pop	{r4}
    4d40:	4770      	bx	lr
    4d42:	bf00      	nop

00004d44 <config_ddr_subsys>:
    4d44:	f248 0300 	movw	r3, #32768	; 0x8000
    4d48:	2000      	movs	r0, #0
    4d4a:	e92d 0ff0 	stmdb	sp!, {r4, r5, r6, r7, r8, r9, sl, fp}
    4d4e:	f2c4 0303 	movt	r3, #16387	; 0x4003
    4d52:	2401      	movs	r4, #1
    4d54:	661c      	str	r4, [r3, #96]	; 0x60
    4d56:	6318      	str	r0, [r3, #48]	; 0x30
    4d58:	f44f 738c 	mov.w	r3, #280	; 0x118
    4d5c:	6108      	str	r0, [r1, #16]
    4d5e:	f8c1 3084 	str.w	r3, [r1, #132]	; 0x84
    4d62:	23c1      	movs	r3, #193	; 0xc1
    4d64:	618b      	str	r3, [r1, #24]
    4d66:	f640 139f 	movw	r3, #2463	; 0x99f
    4d6a:	61cb      	str	r3, [r1, #28]
    4d6c:	f243 3333 	movw	r3, #13107	; 0x3333
    4d70:	624b      	str	r3, [r1, #36]	; 0x24
    4d72:	f64f 73ff 	movw	r3, #65535	; 0xffff
    4d76:	628b      	str	r3, [r1, #40]	; 0x28
    4d78:	f44f 534c 	mov.w	r3, #13056	; 0x3300
    4d7c:	678b      	str	r3, [r1, #120]	; 0x78
    4d7e:	f247 7377 	movw	r3, #30583	; 0x7777
    4d82:	62cb      	str	r3, [r1, #44]	; 0x2c
    4d84:	f640 73ff 	movw	r3, #4095	; 0xfff
    4d88:	630b      	str	r3, [r1, #48]	; 0x30
    4d8a:	f44f 5368 	mov.w	r3, #14848	; 0x3a00
    4d8e:	608b      	str	r3, [r1, #8]
    4d90:	f643 1200 	movw	r2, #14592	; 0x3900
    4d94:	f44f 6343 	mov.w	r3, #3120	; 0xc30
    4d98:	60cb      	str	r3, [r1, #12]
    4d9a:	f2c0 0201 	movt	r2, #1
    4d9e:	f04f 0a08 	mov.w	sl, #8
    4da2:	f247 535d 	movw	r3, #30045	; 0x755d
    4da6:	638a      	str	r2, [r1, #56]	; 0x38
    4da8:	f8c1 a03c 	str.w	sl, [r1, #60]	; 0x3c
    4dac:	f44f 52c0 	mov.w	r2, #6144	; 0x1800
    4db0:	66cb      	str	r3, [r1, #108]	; 0x6c
    4db2:	2302      	movs	r3, #2
    4db4:	650a      	str	r2, [r1, #80]	; 0x50
    4db6:	f04f 0b03 	mov.w	fp, #3
    4dba:	65cb      	str	r3, [r1, #92]	; 0x5c
    4dbc:	f640 52e4 	movw	r2, #3556	; 0xde4
    4dc0:	2323      	movs	r3, #35	; 0x23
    4dc2:	660a      	str	r2, [r1, #96]	; 0x60
    4dc4:	f04f 0933 	mov.w	r9, #51	; 0x33
    4dc8:	f8c1 b0bc 	str.w	fp, [r1, #188]	; 0xbc
    4dcc:	2220      	movs	r2, #32
    4dce:	654b      	str	r3, [r1, #84]	; 0x54
    4dd0:	f44f 4380 	mov.w	r3, #16384	; 0x4000
    4dd4:	f8c1 9040 	str.w	r9, [r1, #64]	; 0x40
    4dd8:	644a      	str	r2, [r1, #68]	; 0x44
    4dda:	f8c1 9080 	str.w	r9, [r1, #128]	; 0x80
    4dde:	f240 1207 	movw	r2, #263	; 0x107
    4de2:	f8c1 a07c 	str.w	sl, [r1, #124]	; 0x7c
    4de6:	f8c1 309c 	str.w	r3, [r1, #156]	; 0x9c
    4dea:	f44f 7369 	mov.w	r3, #932	; 0x3a4
    4dee:	f8c1 00b4 	str.w	r0, [r1, #180]	; 0xb4
    4df2:	f248 08f8 	movw	r8, #33016	; 0x80f8
    4df6:	664a      	str	r2, [r1, #100]	; 0x64
    4df8:	f04f 0c07 	mov.w	ip, #7
    4dfc:	658b      	str	r3, [r1, #88]	; 0x58
    4dfe:	2211      	movs	r2, #17
    4e00:	f44f 7300 	mov.w	r3, #512	; 0x200
    4e04:	668a      	str	r2, [r1, #104]	; 0x68
    4e06:	f8c1 80a0 	str.w	r8, [r1, #160]	; 0xa0
    4e0a:	2280      	movs	r2, #128	; 0x80
    4e0c:	f8c1 c0a4 	str.w	ip, [r1, #164]	; 0xa4
    4e10:	f8c1 80a8 	str.w	r8, [r1, #168]	; 0xa8
    4e14:	f8c1 c0ac 	str.w	ip, [r1, #172]	; 0xac
    4e18:	f8c1 30b0 	str.w	r3, [r1, #176]	; 0xb0
    4e1c:	230f      	movs	r3, #15
    4e1e:	f8c1 021c 	str.w	r0, [r1, #540]	; 0x21c
    4e22:	2740      	movs	r7, #64	; 0x40
    4e24:	f8c1 2224 	str.w	r2, [r1, #548]	; 0x224
    4e28:	f240 4601 	movw	r6, #1025	; 0x401
    4e2c:	f8c1 3230 	str.w	r3, [r1, #560]	; 0x230
    4e30:	f244 0510 	movw	r5, #16400	; 0x4010
    4e34:	220b      	movs	r2, #11
    4e36:	2309      	movs	r3, #9
    4e38:	f8c1 2248 	str.w	r2, [r1, #584]	; 0x248
    4e3c:	f8c1 025c 	str.w	r0, [r1, #604]	; 0x25c
    4e40:	f8c1 0260 	str.w	r0, [r1, #608]	; 0x260
    4e44:	f8c1 0264 	str.w	r0, [r1, #612]	; 0x264
    4e48:	f8c1 0268 	str.w	r0, [r1, #616]	; 0x268
    4e4c:	f8c1 4280 	str.w	r4, [r1, #640]	; 0x280
    4e50:	f8c1 7298 	str.w	r7, [r1, #664]	; 0x298
    4e54:	f8c1 629c 	str.w	r6, [r1, #668]	; 0x29c
    4e58:	f8c1 52a0 	str.w	r5, [r1, #672]	; 0x2a0
    4e5c:	f8c1 72d8 	str.w	r7, [r1, #728]	; 0x2d8
    4e60:	f8c1 62dc 	str.w	r6, [r1, #732]	; 0x2dc
    4e64:	f8c1 52e0 	str.w	r5, [r1, #736]	; 0x2e0
    4e68:	f8c1 02fc 	str.w	r0, [r1, #764]	; 0x2fc
    4e6c:	f8c1 b304 	str.w	fp, [r1, #772]	; 0x304
    4e70:	f8c1 4308 	str.w	r4, [r1, #776]	; 0x308
    4e74:	f8c1 430c 	str.w	r4, [r1, #780]	; 0x30c
    4e78:	f8c1 3314 	str.w	r3, [r1, #788]	; 0x314
    4e7c:	f8c1 0238 	str.w	r0, [r1, #568]	; 0x238
    4e80:	f8c1 023c 	str.w	r0, [r1, #572]	; 0x23c
    4e84:	f8c1 431c 	str.w	r4, [r1, #796]	; 0x31c
    4e88:	600c      	str	r4, [r1, #0]
    4e8a:	e8bd 0ff0 	ldmia.w	sp!, {r4, r5, r6, r7, r8, r9, sl, fp}
    4e8e:	4770      	bx	lr

00004e90 <DDRInit>:
    4e90:	b4f0      	push	{r4, r5, r6, r7}
    4e92:	f64a 715c 	movw	r1, #44892	; 0xaf5c
    4e96:	f248 0700 	movw	r7, #32768	; 0x8000
    4e9a:	f2c4 0703 	movt	r7, #16387	; 0x4003
    4e9e:	f04f 0c00 	mov.w	ip, #0
    4ea2:	f2c0 0100 	movt	r1, #0
    4ea6:	f8c7 c048 	str.w	ip, [r7, #72]	; 0x48
    4eaa:	f240 0318 	movw	r3, #24
    4eae:	f646 0400 	movw	r4, #26624	; 0x6800
    4eb2:	f24b 4200 	movw	r2, #46080	; 0xb400
    4eb6:	f640 1600 	movw	r6, #2304	; 0x900
    4eba:	f645 2500 	movw	r5, #23040	; 0x5a00
    4ebe:	f64a 7060 	movw	r0, #44896	; 0xaf60
    4ec2:	6809      	ldr	r1, [r1, #0]
    4ec4:	f24d 0c00 	movw	ip, #53248	; 0xd000
    4ec8:	f2c2 0300 	movt	r3, #8192	; 0x2000
    4ecc:	f6c0 1489 	movt	r4, #2441	; 0x989
    4ed0:	f2c0 42c4 	movt	r2, #1220	; 0x4c4
    4ed4:	f2c0 063d 	movt	r6, #61	; 0x3d
    4ed8:	f2c0 2562 	movt	r5, #610	; 0x262
    4edc:	f2c1 3c12 	movt	ip, #4882	; 0x1312
    4ee0:	f2c0 0000 	movt	r0, #0
    4ee4:	f8c3 c018 	str.w	ip, [r3, #24]
    4ee8:	609a      	str	r2, [r3, #8]
    4eea:	60de      	str	r6, [r3, #12]
    4eec:	611d      	str	r5, [r3, #16]
    4eee:	615c      	str	r4, [r3, #20]
    4ef0:	601c      	str	r4, [r3, #0]
    4ef2:	605a      	str	r2, [r3, #4]
    4ef4:	bcf0      	pop	{r4, r5, r6, r7}
    4ef6:	e725      	b.n	4d44 <config_ddr_subsys>

00004ef8 <SystemInit>:
    4ef8:	b510      	push	{r4, lr}
    4efa:	f248 0100 	movw	r1, #32768	; 0x8000
    4efe:	f2c4 0103 	movt	r1, #16387	; 0x4003
    4f02:	f8d1 2150 	ldr.w	r2, [r1, #336]	; 0x150
    4f06:	f248 0300 	movw	r3, #32768	; 0x8000
    4f0a:	f012 0f01 	tst.w	r2, #1
    4f0e:	f2c4 0303 	movt	r3, #16387	; 0x4003
    4f12:	d0f6      	beq.n	4f02 <SystemInit+0xa>
    4f14:	f8d3 2094 	ldr.w	r2, [r3, #148]	; 0x94
    4f18:	4619      	mov	r1, r3
    4f1a:	f022 0001 	bic.w	r0, r2, #1
    4f1e:	f8c3 0094 	str.w	r0, [r3, #148]	; 0x94
    4f22:	f8d1 0150 	ldr.w	r0, [r1, #336]	; 0x150
    4f26:	f248 0300 	movw	r3, #32768	; 0x8000
    4f2a:	f010 0f02 	tst.w	r0, #2
    4f2e:	f2c4 0303 	movt	r3, #16387	; 0x4003
    4f32:	d0f6      	beq.n	4f22 <SystemInit+0x2a>
    4f34:	f8d3 1098 	ldr.w	r1, [r3, #152]	; 0x98
    4f38:	f421 5280 	bic.w	r2, r1, #4096	; 0x1000
    4f3c:	f8c3 2098 	str.w	r2, [r3, #152]	; 0x98
    4f40:	6c98      	ldr	r0, [r3, #72]	; 0x48
    4f42:	f420 3180 	bic.w	r1, r0, #65536	; 0x10000
    4f46:	6499      	str	r1, [r3, #72]	; 0x48
    4f48:	f8d3 114c 	ldr.w	r1, [r3, #332]	; 0x14c
    4f4c:	f8d3 2098 	ldr.w	r2, [r3, #152]	; 0x98
    4f50:	f442 7080 	orr.w	r0, r2, #256	; 0x100
    4f54:	f8c3 0098 	str.w	r0, [r3, #152]	; 0x98
    4f58:	f8d3 1098 	ldr.w	r1, [r3, #152]	; 0x98
    4f5c:	f021 6280 	bic.w	r2, r1, #67108864	; 0x4000000
    4f60:	f8c3 2098 	str.w	r2, [r3, #152]	; 0x98
    4f64:	f64e 5300 	movw	r3, #60672	; 0xed00
    4f68:	f2ce 0300 	movt	r3, #57344	; 0xe000
    4f6c:	6958      	ldr	r0, [r3, #20]
    4f6e:	f64a 725c 	movw	r2, #44892	; 0xaf5c
    4f72:	f440 7100 	orr.w	r1, r0, #512	; 0x200
    4f76:	f2c0 0200 	movt	r2, #0
    4f7a:	f64a 7060 	movw	r0, #44896	; 0xaf60
    4f7e:	6159      	str	r1, [r3, #20]
    4f80:	f2c0 0000 	movt	r0, #0
    4f84:	6811      	ldr	r1, [r2, #0]
    4f86:	f7ff fedd 	bl	4d44 <config_ddr_subsys>
    4f8a:	e8bd 4010 	ldmia.w	sp!, {r4, lr}
    4f8e:	f7fb b98e 	b.w	2ae <mscc_post_hw_cfg_init>
    4f92:	bf00      	nop

00004f94 <_close>:
    4f94:	f04f 30ff 	mov.w	r0, #4294967295
    4f98:	4770      	bx	lr
    4f9a:	bf00      	nop

00004f9c <_exit>:
    4f9c:	e7fe      	b.n	4f9c <_exit>
    4f9e:	bf00      	nop

00004fa0 <_fstat>:
    4fa0:	f44f 5300 	mov.w	r3, #8192	; 0x2000
    4fa4:	604b      	str	r3, [r1, #4]
    4fa6:	2000      	movs	r0, #0
    4fa8:	4770      	bx	lr
    4faa:	bf00      	nop

00004fac <_getpid>:
    4fac:	2001      	movs	r0, #1
    4fae:	4770      	bx	lr

00004fb0 <_isatty>:
    4fb0:	2001      	movs	r0, #1
    4fb2:	4770      	bx	lr

00004fb4 <_lseek>:
    4fb4:	2000      	movs	r0, #0
    4fb6:	4770      	bx	lr

00004fb8 <_open>:
    4fb8:	f04f 30ff 	mov.w	r0, #4294967295
    4fbc:	4770      	bx	lr
    4fbe:	bf00      	nop

00004fc0 <_read>:
    4fc0:	2000      	movs	r0, #0
    4fc2:	4770      	bx	lr

00004fc4 <_write_r>:
    4fc4:	2000      	movs	r0, #0
    4fc6:	4770      	bx	lr

00004fc8 <_sbrk>:
    4fc8:	f240 7298 	movw	r2, #1944	; 0x798
    4fcc:	f2c2 0200 	movt	r2, #8192	; 0x2000
    4fd0:	6813      	ldr	r3, [r2, #0]
    4fd2:	f640 1150 	movw	r1, #2384	; 0x950
    4fd6:	f2c2 0100 	movt	r1, #8192	; 0x2000
    4fda:	2b00      	cmp	r3, #0
    4fdc:	bf08      	it	eq
    4fde:	460b      	moveq	r3, r1
    4fe0:	f3ef 8c08 	mrs	ip, MSP
    4fe4:	1819      	adds	r1, r3, r0
    4fe6:	458c      	cmp	ip, r1
    4fe8:	d200      	bcs.n	4fec <_sbrk+0x24>
    4fea:	e7fe      	b.n	4fea <_sbrk+0x22>
    4fec:	6011      	str	r1, [r2, #0]
    4fee:	4618      	mov	r0, r3
    4ff0:	4770      	bx	lr
    4ff2:	bf00      	nop

00004ff4 <_stat>:
    4ff4:	f44f 5300 	mov.w	r3, #8192	; 0x2000
    4ff8:	604b      	str	r3, [r1, #4]
    4ffa:	2000      	movs	r0, #0
    4ffc:	4770      	bx	lr
    4ffe:	bf00      	nop

00005000 <_times>:
    5000:	f04f 30ff 	mov.w	r0, #4294967295
    5004:	4770      	bx	lr
    5006:	bf00      	nop

00005008 <_wait>:
    5008:	b508      	push	{r3, lr}
    500a:	f000 f82d 	bl	5068 <__errno>
    500e:	230a      	movs	r3, #10
    5010:	6003      	str	r3, [r0, #0]
    5012:	f04f 30ff 	mov.w	r0, #4294967295
    5016:	bd08      	pop	{r3, pc}

00005018 <_unlink>:
    5018:	b508      	push	{r3, lr}
    501a:	f000 f825 	bl	5068 <__errno>
    501e:	2302      	movs	r3, #2
    5020:	6003      	str	r3, [r0, #0]
    5022:	f04f 30ff 	mov.w	r0, #4294967295
    5026:	bd08      	pop	{r3, pc}

00005028 <_link>:
    5028:	b508      	push	{r3, lr}
    502a:	f000 f81d 	bl	5068 <__errno>
    502e:	231f      	movs	r3, #31
    5030:	6003      	str	r3, [r0, #0]
    5032:	f04f 30ff 	mov.w	r0, #4294967295
    5036:	bd08      	pop	{r3, pc}

00005038 <_kill>:
    5038:	b508      	push	{r3, lr}
    503a:	f000 f815 	bl	5068 <__errno>
    503e:	2316      	movs	r3, #22
    5040:	6003      	str	r3, [r0, #0]
    5042:	f04f 30ff 	mov.w	r0, #4294967295
    5046:	bd08      	pop	{r3, pc}

00005048 <_fork>:
    5048:	b508      	push	{r3, lr}
    504a:	f000 f80d 	bl	5068 <__errno>
    504e:	230b      	movs	r3, #11
    5050:	6003      	str	r3, [r0, #0]
    5052:	f04f 30ff 	mov.w	r0, #4294967295
    5056:	bd08      	pop	{r3, pc}

00005058 <_execve>:
    5058:	b508      	push	{r3, lr}
    505a:	f000 f805 	bl	5068 <__errno>
    505e:	230c      	movs	r3, #12
    5060:	6003      	str	r3, [r0, #0]
    5062:	f04f 30ff 	mov.w	r0, #4294967295
    5066:	bd08      	pop	{r3, pc}

00005068 <__errno>:
    5068:	f240 0334 	movw	r3, #52	; 0x34
    506c:	f2c2 0300 	movt	r3, #8192	; 0x2000
    5070:	6818      	ldr	r0, [r3, #0]
    5072:	4770      	bx	lr

00005074 <__libc_init_array>:
    5074:	b570      	push	{r4, r5, r6, lr}
    5076:	f24b 3658 	movw	r6, #45912	; 0xb358
    507a:	f24b 3558 	movw	r5, #45912	; 0xb358
    507e:	f2c0 0600 	movt	r6, #0
    5082:	f2c0 0500 	movt	r5, #0
    5086:	1b76      	subs	r6, r6, r5
    5088:	10b6      	asrs	r6, r6, #2
    508a:	d006      	beq.n	509a <__libc_init_array+0x26>
    508c:	2400      	movs	r4, #0
    508e:	f855 3024 	ldr.w	r3, [r5, r4, lsl #2]
    5092:	3401      	adds	r4, #1
    5094:	4798      	blx	r3
    5096:	42a6      	cmp	r6, r4
    5098:	d8f9      	bhi.n	508e <__libc_init_array+0x1a>
    509a:	f24b 3558 	movw	r5, #45912	; 0xb358
    509e:	f24b 365c 	movw	r6, #45916	; 0xb35c
    50a2:	f2c0 0500 	movt	r5, #0
    50a6:	f2c0 0600 	movt	r6, #0
    50aa:	1b76      	subs	r6, r6, r5
    50ac:	f006 f948 	bl	b340 <_init>
    50b0:	10b6      	asrs	r6, r6, #2
    50b2:	d006      	beq.n	50c2 <__libc_init_array+0x4e>
    50b4:	2400      	movs	r4, #0
    50b6:	f855 3024 	ldr.w	r3, [r5, r4, lsl #2]
    50ba:	3401      	adds	r4, #1
    50bc:	4798      	blx	r3
    50be:	42a6      	cmp	r6, r4
    50c0:	d8f9      	bhi.n	50b6 <__libc_init_array+0x42>
    50c2:	bd70      	pop	{r4, r5, r6, pc}

000050c4 <memcpy>:
    50c4:	2a03      	cmp	r2, #3
    50c6:	e92d 07f0 	stmdb	sp!, {r4, r5, r6, r7, r8, r9, sl}
    50ca:	d80b      	bhi.n	50e4 <memcpy+0x20>
    50cc:	b13a      	cbz	r2, 50de <memcpy+0x1a>
    50ce:	2300      	movs	r3, #0
    50d0:	f811 c003 	ldrb.w	ip, [r1, r3]
    50d4:	f800 c003 	strb.w	ip, [r0, r3]
    50d8:	3301      	adds	r3, #1
    50da:	4293      	cmp	r3, r2
    50dc:	d1f8      	bne.n	50d0 <memcpy+0xc>
    50de:	e8bd 07f0 	ldmia.w	sp!, {r4, r5, r6, r7, r8, r9, sl}
    50e2:	4770      	bx	lr
    50e4:	1882      	adds	r2, r0, r2
    50e6:	460c      	mov	r4, r1
    50e8:	4603      	mov	r3, r0
    50ea:	e003      	b.n	50f4 <memcpy+0x30>
    50ec:	f814 1c01 	ldrb.w	r1, [r4, #-1]
    50f0:	f803 1c01 	strb.w	r1, [r3, #-1]
    50f4:	f003 0603 	and.w	r6, r3, #3
    50f8:	4619      	mov	r1, r3
    50fa:	46a4      	mov	ip, r4
    50fc:	3301      	adds	r3, #1
    50fe:	3401      	adds	r4, #1
    5100:	2e00      	cmp	r6, #0
    5102:	d1f3      	bne.n	50ec <memcpy+0x28>
    5104:	f01c 0403 	ands.w	r4, ip, #3
    5108:	4663      	mov	r3, ip
    510a:	bf08      	it	eq
    510c:	ebc1 0c02 	rsbeq	ip, r1, r2
    5110:	d068      	beq.n	51e4 <memcpy+0x120>
    5112:	4265      	negs	r5, r4
    5114:	f1c4 0a04 	rsb	sl, r4, #4
    5118:	eb0c 0705 	add.w	r7, ip, r5
    511c:	4633      	mov	r3, r6
    511e:	ea4f 0aca 	mov.w	sl, sl, lsl #3
    5122:	f85c 6005 	ldr.w	r6, [ip, r5]
    5126:	ea4f 08c4 	mov.w	r8, r4, lsl #3
    512a:	1a55      	subs	r5, r2, r1
    512c:	e008      	b.n	5140 <memcpy+0x7c>
    512e:	f857 4f04 	ldr.w	r4, [r7, #4]!
    5132:	4626      	mov	r6, r4
    5134:	fa04 f40a 	lsl.w	r4, r4, sl
    5138:	ea49 0404 	orr.w	r4, r9, r4
    513c:	50cc      	str	r4, [r1, r3]
    513e:	3304      	adds	r3, #4
    5140:	185c      	adds	r4, r3, r1
    5142:	2d03      	cmp	r5, #3
    5144:	fa26 f908 	lsr.w	r9, r6, r8
    5148:	f1a5 0504 	sub.w	r5, r5, #4
    514c:	eb0c 0603 	add.w	r6, ip, r3
    5150:	dced      	bgt.n	512e <memcpy+0x6a>
    5152:	2300      	movs	r3, #0
    5154:	e002      	b.n	515c <memcpy+0x98>
    5156:	5cf1      	ldrb	r1, [r6, r3]
    5158:	54e1      	strb	r1, [r4, r3]
    515a:	3301      	adds	r3, #1
    515c:	1919      	adds	r1, r3, r4
    515e:	4291      	cmp	r1, r2
    5160:	d3f9      	bcc.n	5156 <memcpy+0x92>
    5162:	e7bc      	b.n	50de <memcpy+0x1a>
    5164:	f853 4c40 	ldr.w	r4, [r3, #-64]
    5168:	f841 4c40 	str.w	r4, [r1, #-64]
    516c:	f853 4c3c 	ldr.w	r4, [r3, #-60]
    5170:	f841 4c3c 	str.w	r4, [r1, #-60]
    5174:	f853 4c38 	ldr.w	r4, [r3, #-56]
    5178:	f841 4c38 	str.w	r4, [r1, #-56]
    517c:	f853 4c34 	ldr.w	r4, [r3, #-52]
    5180:	f841 4c34 	str.w	r4, [r1, #-52]
    5184:	f853 4c30 	ldr.w	r4, [r3, #-48]
    5188:	f841 4c30 	str.w	r4, [r1, #-48]
    518c:	f853 4c2c 	ldr.w	r4, [r3, #-44]
    5190:	f841 4c2c 	str.w	r4, [r1, #-44]
    5194:	f853 4c28 	ldr.w	r4, [r3, #-40]
    5198:	f841 4c28 	str.w	r4, [r1, #-40]
    519c:	f853 4c24 	ldr.w	r4, [r3, #-36]
    51a0:	f841 4c24 	str.w	r4, [r1, #-36]
    51a4:	f853 4c20 	ldr.w	r4, [r3, #-32]
    51a8:	f841 4c20 	str.w	r4, [r1, #-32]
    51ac:	f853 4c1c 	ldr.w	r4, [r3, #-28]
    51b0:	f841 4c1c 	str.w	r4, [r1, #-28]
    51b4:	f853 4c18 	ldr.w	r4, [r3, #-24]
    51b8:	f841 4c18 	str.w	r4, [r1, #-24]
    51bc:	f853 4c14 	ldr.w	r4, [r3, #-20]
    51c0:	f841 4c14 	str.w	r4, [r1, #-20]
    51c4:	f853 4c10 	ldr.w	r4, [r3, #-16]
    51c8:	f841 4c10 	str.w	r4, [r1, #-16]
    51cc:	f853 4c0c 	ldr.w	r4, [r3, #-12]
    51d0:	f841 4c0c 	str.w	r4, [r1, #-12]
    51d4:	f853 4c08 	ldr.w	r4, [r3, #-8]
    51d8:	f841 4c08 	str.w	r4, [r1, #-8]
    51dc:	f853 4c04 	ldr.w	r4, [r3, #-4]
    51e0:	f841 4c04 	str.w	r4, [r1, #-4]
    51e4:	461c      	mov	r4, r3
    51e6:	460d      	mov	r5, r1
    51e8:	3340      	adds	r3, #64	; 0x40
    51ea:	3140      	adds	r1, #64	; 0x40
    51ec:	f1bc 0f3f 	cmp.w	ip, #63	; 0x3f
    51f0:	f1ac 0c40 	sub.w	ip, ip, #64	; 0x40
    51f4:	dcb6      	bgt.n	5164 <memcpy+0xa0>
    51f6:	4621      	mov	r1, r4
    51f8:	462b      	mov	r3, r5
    51fa:	1b54      	subs	r4, r2, r5
    51fc:	e00f      	b.n	521e <memcpy+0x15a>
    51fe:	f851 5c10 	ldr.w	r5, [r1, #-16]
    5202:	f843 5c10 	str.w	r5, [r3, #-16]
    5206:	f851 5c0c 	ldr.w	r5, [r1, #-12]
    520a:	f843 5c0c 	str.w	r5, [r3, #-12]
    520e:	f851 5c08 	ldr.w	r5, [r1, #-8]
    5212:	f843 5c08 	str.w	r5, [r3, #-8]
    5216:	f851 5c04 	ldr.w	r5, [r1, #-4]
    521a:	f843 5c04 	str.w	r5, [r3, #-4]
    521e:	2c0f      	cmp	r4, #15
    5220:	460d      	mov	r5, r1
    5222:	469c      	mov	ip, r3
    5224:	f101 0110 	add.w	r1, r1, #16
    5228:	f103 0310 	add.w	r3, r3, #16
    522c:	f1a4 0410 	sub.w	r4, r4, #16
    5230:	dce5      	bgt.n	51fe <memcpy+0x13a>
    5232:	ebcc 0102 	rsb	r1, ip, r2
    5236:	2300      	movs	r3, #0
    5238:	e003      	b.n	5242 <memcpy+0x17e>
    523a:	58ec      	ldr	r4, [r5, r3]
    523c:	f84c 4003 	str.w	r4, [ip, r3]
    5240:	3304      	adds	r3, #4
    5242:	195e      	adds	r6, r3, r5
    5244:	2903      	cmp	r1, #3
    5246:	eb03 040c 	add.w	r4, r3, ip
    524a:	f1a1 0104 	sub.w	r1, r1, #4
    524e:	dcf4      	bgt.n	523a <memcpy+0x176>
    5250:	e77f      	b.n	5152 <memcpy+0x8e>
    5252:	bf00      	nop

00005254 <snprintf>:
    5254:	b40c      	push	{r2, r3}
    5256:	f240 0334 	movw	r3, #52	; 0x34
    525a:	b5f0      	push	{r4, r5, r6, r7, lr}
    525c:	f2c2 0300 	movt	r3, #8192	; 0x2000
    5260:	1e0c      	subs	r4, r1, #0
    5262:	b09d      	sub	sp, #116	; 0x74
    5264:	4605      	mov	r5, r0
    5266:	681e      	ldr	r6, [r3, #0]
    5268:	db28      	blt.n	52bc <snprintf+0x68>
    526a:	af23      	add	r7, sp, #140	; 0x8c
    526c:	9a22      	ldr	r2, [sp, #136]	; 0x88
    526e:	463b      	mov	r3, r7
    5270:	4630      	mov	r0, r6
    5272:	a901      	add	r1, sp, #4
    5274:	bf0c      	ite	eq
    5276:	46a4      	moveq	ip, r4
    5278:	f104 3cff 	addne.w	ip, r4, #4294967295
    527c:	f44f 7e02 	mov.w	lr, #520	; 0x208
    5280:	9505      	str	r5, [sp, #20]
    5282:	f8ad e010 	strh.w	lr, [sp, #16]
    5286:	f04f 3eff 	mov.w	lr, #4294967295
    528a:	f8cd c018 	str.w	ip, [sp, #24]
    528e:	9501      	str	r5, [sp, #4]
    5290:	f8ad e012 	strh.w	lr, [sp, #18]
    5294:	f8cd c00c 	str.w	ip, [sp, #12]
    5298:	971b      	str	r7, [sp, #108]	; 0x6c
    529a:	f000 f8d7 	bl	544c <_svfprintf_r>
    529e:	f1b0 3fff 	cmp.w	r0, #4294967295
    52a2:	db08      	blt.n	52b6 <snprintf+0x62>
    52a4:	b114      	cbz	r4, 52ac <snprintf+0x58>
    52a6:	9b01      	ldr	r3, [sp, #4]
    52a8:	2200      	movs	r2, #0
    52aa:	701a      	strb	r2, [r3, #0]
    52ac:	b01d      	add	sp, #116	; 0x74
    52ae:	e8bd 40f0 	ldmia.w	sp!, {r4, r5, r6, r7, lr}
    52b2:	b002      	add	sp, #8
    52b4:	4770      	bx	lr
    52b6:	238b      	movs	r3, #139	; 0x8b
    52b8:	6033      	str	r3, [r6, #0]
    52ba:	e7f3      	b.n	52a4 <snprintf+0x50>
    52bc:	238b      	movs	r3, #139	; 0x8b
    52be:	f04f 30ff 	mov.w	r0, #4294967295
    52c2:	6033      	str	r3, [r6, #0]
    52c4:	e7f2      	b.n	52ac <snprintf+0x58>
    52c6:	bf00      	nop

000052c8 <_snprintf_r>:
    52c8:	b408      	push	{r3}
    52ca:	b5f0      	push	{r4, r5, r6, r7, lr}
    52cc:	1e14      	subs	r4, r2, #0
    52ce:	b09c      	sub	sp, #112	; 0x70
    52d0:	4606      	mov	r6, r0
    52d2:	460d      	mov	r5, r1
    52d4:	db27      	blt.n	5326 <_snprintf_r+0x5e>
    52d6:	af22      	add	r7, sp, #136	; 0x88
    52d8:	9a21      	ldr	r2, [sp, #132]	; 0x84
    52da:	463b      	mov	r3, r7
    52dc:	a901      	add	r1, sp, #4
    52de:	bf0c      	ite	eq
    52e0:	46a4      	moveq	ip, r4
    52e2:	f104 3cff 	addne.w	ip, r4, #4294967295
    52e6:	f44f 7e02 	mov.w	lr, #520	; 0x208
    52ea:	9505      	str	r5, [sp, #20]
    52ec:	f8ad e010 	strh.w	lr, [sp, #16]
    52f0:	f04f 3eff 	mov.w	lr, #4294967295
    52f4:	f8cd c018 	str.w	ip, [sp, #24]
    52f8:	9501      	str	r5, [sp, #4]
    52fa:	f8ad e012 	strh.w	lr, [sp, #18]
    52fe:	f8cd c00c 	str.w	ip, [sp, #12]
    5302:	971b      	str	r7, [sp, #108]	; 0x6c
    5304:	f000 f8a2 	bl	544c <_svfprintf_r>
    5308:	f1b0 3fff 	cmp.w	r0, #4294967295
    530c:	db08      	blt.n	5320 <_snprintf_r+0x58>
    530e:	b114      	cbz	r4, 5316 <_snprintf_r+0x4e>
    5310:	9b01      	ldr	r3, [sp, #4]
    5312:	2200      	movs	r2, #0
    5314:	701a      	strb	r2, [r3, #0]
    5316:	b01c      	add	sp, #112	; 0x70
    5318:	e8bd 40f0 	ldmia.w	sp!, {r4, r5, r6, r7, lr}
    531c:	b001      	add	sp, #4
    531e:	4770      	bx	lr
    5320:	238b      	movs	r3, #139	; 0x8b
    5322:	6033      	str	r3, [r6, #0]
    5324:	e7f3      	b.n	530e <_snprintf_r+0x46>
    5326:	238b      	movs	r3, #139	; 0x8b
    5328:	6003      	str	r3, [r0, #0]
    532a:	f04f 30ff 	mov.w	r0, #4294967295
    532e:	e7f2      	b.n	5316 <_snprintf_r+0x4e>

00005330 <__sprint_r>:
    5330:	e92d 4ff0 	stmdb	sp!, {r4, r5, r6, r7, r8, r9, sl, fp, lr}
    5334:	b085      	sub	sp, #20
    5336:	4692      	mov	sl, r2
    5338:	460c      	mov	r4, r1
    533a:	9003      	str	r0, [sp, #12]
    533c:	6890      	ldr	r0, [r2, #8]
    533e:	6817      	ldr	r7, [r2, #0]
    5340:	2800      	cmp	r0, #0
    5342:	f000 8081 	beq.w	5448 <__sprint_r+0x118>
    5346:	f04f 0900 	mov.w	r9, #0
    534a:	680b      	ldr	r3, [r1, #0]
    534c:	464d      	mov	r5, r9
    534e:	2d00      	cmp	r5, #0
    5350:	d054      	beq.n	53fc <__sprint_r+0xcc>
    5352:	68a6      	ldr	r6, [r4, #8]
    5354:	42b5      	cmp	r5, r6
    5356:	46b0      	mov	r8, r6
    5358:	bf3e      	ittt	cc
    535a:	4618      	movcc	r0, r3
    535c:	462e      	movcc	r6, r5
    535e:	46a8      	movcc	r8, r5
    5360:	d33c      	bcc.n	53dc <__sprint_r+0xac>
    5362:	89a0      	ldrh	r0, [r4, #12]
    5364:	f410 6f90 	tst.w	r0, #1152	; 0x480
    5368:	bf08      	it	eq
    536a:	4618      	moveq	r0, r3
    536c:	d036      	beq.n	53dc <__sprint_r+0xac>
    536e:	6962      	ldr	r2, [r4, #20]
    5370:	6921      	ldr	r1, [r4, #16]
    5372:	eb02 0b42 	add.w	fp, r2, r2, lsl #1
    5376:	1a5b      	subs	r3, r3, r1
    5378:	f103 0c01 	add.w	ip, r3, #1
    537c:	eb0b 7bdb 	add.w	fp, fp, fp, lsr #31
    5380:	44ac      	add	ip, r5
    5382:	ea4f 0b6b 	mov.w	fp, fp, asr #1
    5386:	45e3      	cmp	fp, ip
    5388:	465a      	mov	r2, fp
    538a:	bf3c      	itt	cc
    538c:	46e3      	movcc	fp, ip
    538e:	465a      	movcc	r2, fp
    5390:	f410 6f80 	tst.w	r0, #1024	; 0x400
    5394:	d037      	beq.n	5406 <__sprint_r+0xd6>
    5396:	4611      	mov	r1, r2
    5398:	9803      	ldr	r0, [sp, #12]
    539a:	9301      	str	r3, [sp, #4]
    539c:	f002 fbf6 	bl	7b8c <_malloc_r>
    53a0:	9b01      	ldr	r3, [sp, #4]
    53a2:	2800      	cmp	r0, #0
    53a4:	d03b      	beq.n	541e <__sprint_r+0xee>
    53a6:	461a      	mov	r2, r3
    53a8:	6921      	ldr	r1, [r4, #16]
    53aa:	9301      	str	r3, [sp, #4]
    53ac:	9002      	str	r0, [sp, #8]
    53ae:	f7ff fe89 	bl	50c4 <memcpy>
    53b2:	89a2      	ldrh	r2, [r4, #12]
    53b4:	9b01      	ldr	r3, [sp, #4]
    53b6:	f8dd c008 	ldr.w	ip, [sp, #8]
    53ba:	f422 6290 	bic.w	r2, r2, #1152	; 0x480
    53be:	f042 0280 	orr.w	r2, r2, #128	; 0x80
    53c2:	81a2      	strh	r2, [r4, #12]
    53c4:	462e      	mov	r6, r5
    53c6:	46a8      	mov	r8, r5
    53c8:	ebc3 020b 	rsb	r2, r3, fp
    53cc:	eb0c 0003 	add.w	r0, ip, r3
    53d0:	60a2      	str	r2, [r4, #8]
    53d2:	f8c4 c010 	str.w	ip, [r4, #16]
    53d6:	6020      	str	r0, [r4, #0]
    53d8:	f8c4 b014 	str.w	fp, [r4, #20]
    53dc:	4642      	mov	r2, r8
    53de:	4649      	mov	r1, r9
    53e0:	f002 fee0 	bl	81a4 <memmove>
    53e4:	68a2      	ldr	r2, [r4, #8]
    53e6:	6823      	ldr	r3, [r4, #0]
    53e8:	1b96      	subs	r6, r2, r6
    53ea:	60a6      	str	r6, [r4, #8]
    53ec:	f8da 2008 	ldr.w	r2, [sl, #8]
    53f0:	4443      	add	r3, r8
    53f2:	6023      	str	r3, [r4, #0]
    53f4:	1b55      	subs	r5, r2, r5
    53f6:	f8ca 5008 	str.w	r5, [sl, #8]
    53fa:	b1fd      	cbz	r5, 543c <__sprint_r+0x10c>
    53fc:	f8d7 9000 	ldr.w	r9, [r7]
    5400:	687d      	ldr	r5, [r7, #4]
    5402:	3708      	adds	r7, #8
    5404:	e7a3      	b.n	534e <__sprint_r+0x1e>
    5406:	9803      	ldr	r0, [sp, #12]
    5408:	9301      	str	r3, [sp, #4]
    540a:	f003 fbd7 	bl	8bbc <_realloc_r>
    540e:	9b01      	ldr	r3, [sp, #4]
    5410:	4684      	mov	ip, r0
    5412:	2800      	cmp	r0, #0
    5414:	d1d6      	bne.n	53c4 <__sprint_r+0x94>
    5416:	9803      	ldr	r0, [sp, #12]
    5418:	6921      	ldr	r1, [r4, #16]
    541a:	f002 fa8d 	bl	7938 <_free_r>
    541e:	9a03      	ldr	r2, [sp, #12]
    5420:	230c      	movs	r3, #12
    5422:	f04f 30ff 	mov.w	r0, #4294967295
    5426:	6013      	str	r3, [r2, #0]
    5428:	2300      	movs	r3, #0
    542a:	89a2      	ldrh	r2, [r4, #12]
    542c:	f8ca 3004 	str.w	r3, [sl, #4]
    5430:	f042 0240 	orr.w	r2, r2, #64	; 0x40
    5434:	f8ca 3008 	str.w	r3, [sl, #8]
    5438:	81a2      	strh	r2, [r4, #12]
    543a:	e002      	b.n	5442 <__sprint_r+0x112>
    543c:	4628      	mov	r0, r5
    543e:	f8ca 5004 	str.w	r5, [sl, #4]
    5442:	b005      	add	sp, #20
    5444:	e8bd 8ff0 	ldmia.w	sp!, {r4, r5, r6, r7, r8, r9, sl, fp, pc}
    5448:	6050      	str	r0, [r2, #4]
    544a:	e7fa      	b.n	5442 <__sprint_r+0x112>

0000544c <_svfprintf_r>:
    544c:	e92d 4ff0 	stmdb	sp!, {r4, r5, r6, r7, r8, r9, sl, fp, lr}
    5450:	b0c5      	sub	sp, #276	; 0x114
    5452:	460e      	mov	r6, r1
    5454:	469a      	mov	sl, r3
    5456:	4615      	mov	r5, r2
    5458:	9009      	str	r0, [sp, #36]	; 0x24
    545a:	f002 fb53 	bl	7b04 <_localeconv_r>
    545e:	89b3      	ldrh	r3, [r6, #12]
    5460:	f013 0f80 	tst.w	r3, #128	; 0x80
    5464:	6800      	ldr	r0, [r0, #0]
    5466:	901b      	str	r0, [sp, #108]	; 0x6c
    5468:	d003      	beq.n	5472 <_svfprintf_r+0x26>
    546a:	6933      	ldr	r3, [r6, #16]
    546c:	2b00      	cmp	r3, #0
    546e:	f001 808c 	beq.w	658a <_svfprintf_r+0x113e>
    5472:	f10d 0974 	add.w	r9, sp, #116	; 0x74
    5476:	46b3      	mov	fp, r6
    5478:	464c      	mov	r4, r9
    547a:	2200      	movs	r2, #0
    547c:	9210      	str	r2, [sp, #64]	; 0x40
    547e:	2300      	movs	r3, #0
    5480:	9218      	str	r2, [sp, #96]	; 0x60
    5482:	9217      	str	r2, [sp, #92]	; 0x5c
    5484:	921a      	str	r2, [sp, #104]	; 0x68
    5486:	920d      	str	r2, [sp, #52]	; 0x34
    5488:	aa2d      	add	r2, sp, #180	; 0xb4
    548a:	9319      	str	r3, [sp, #100]	; 0x64
    548c:	3228      	adds	r2, #40	; 0x28
    548e:	f10d 03f7 	add.w	r3, sp, #247	; 0xf7
    5492:	9216      	str	r2, [sp, #88]	; 0x58
    5494:	9307      	str	r3, [sp, #28]
    5496:	2300      	movs	r3, #0
    5498:	f8cd 90dc 	str.w	r9, [sp, #220]	; 0xdc
    549c:	9338      	str	r3, [sp, #224]	; 0xe0
    549e:	9339      	str	r3, [sp, #228]	; 0xe4
    54a0:	782b      	ldrb	r3, [r5, #0]
    54a2:	f1b3 0225 	subs.w	r2, r3, #37	; 0x25
    54a6:	bf18      	it	ne
    54a8:	2201      	movne	r2, #1
    54aa:	2b00      	cmp	r3, #0
    54ac:	bf0c      	ite	eq
    54ae:	2200      	moveq	r2, #0
    54b0:	f002 0201 	andne.w	r2, r2, #1
    54b4:	b302      	cbz	r2, 54f8 <_svfprintf_r+0xac>
    54b6:	462e      	mov	r6, r5
    54b8:	f816 3f01 	ldrb.w	r3, [r6, #1]!
    54bc:	1e1a      	subs	r2, r3, #0
    54be:	bf18      	it	ne
    54c0:	2201      	movne	r2, #1
    54c2:	2b25      	cmp	r3, #37	; 0x25
    54c4:	bf0c      	ite	eq
    54c6:	2200      	moveq	r2, #0
    54c8:	f002 0201 	andne.w	r2, r2, #1
    54cc:	2a00      	cmp	r2, #0
    54ce:	d1f3      	bne.n	54b8 <_svfprintf_r+0x6c>
    54d0:	1b77      	subs	r7, r6, r5
    54d2:	bf08      	it	eq
    54d4:	4635      	moveq	r5, r6
    54d6:	d00f      	beq.n	54f8 <_svfprintf_r+0xac>
    54d8:	6067      	str	r7, [r4, #4]
    54da:	9b38      	ldr	r3, [sp, #224]	; 0xe0
    54dc:	9a39      	ldr	r2, [sp, #228]	; 0xe4
    54de:	3301      	adds	r3, #1
    54e0:	6025      	str	r5, [r4, #0]
    54e2:	19d2      	adds	r2, r2, r7
    54e4:	2b07      	cmp	r3, #7
    54e6:	9239      	str	r2, [sp, #228]	; 0xe4
    54e8:	9338      	str	r3, [sp, #224]	; 0xe0
    54ea:	dc79      	bgt.n	55e0 <_svfprintf_r+0x194>
    54ec:	3408      	adds	r4, #8
    54ee:	980d      	ldr	r0, [sp, #52]	; 0x34
    54f0:	4635      	mov	r5, r6
    54f2:	19c0      	adds	r0, r0, r7
    54f4:	900d      	str	r0, [sp, #52]	; 0x34
    54f6:	7833      	ldrb	r3, [r6, #0]
    54f8:	2b00      	cmp	r3, #0
    54fa:	f000 8737 	beq.w	636c <_svfprintf_r+0xf20>
    54fe:	2100      	movs	r1, #0
    5500:	f04f 0200 	mov.w	r2, #0
    5504:	f8cd a028 	str.w	sl, [sp, #40]	; 0x28
    5508:	1c6b      	adds	r3, r5, #1
    550a:	910c      	str	r1, [sp, #48]	; 0x30
    550c:	f04f 38ff 	mov.w	r8, #4294967295
    5510:	f88d 210f 	strb.w	r2, [sp, #271]	; 0x10f
    5514:	468a      	mov	sl, r1
    5516:	786a      	ldrb	r2, [r5, #1]
    5518:	202b      	movs	r0, #43	; 0x2b
    551a:	f04f 0c20 	mov.w	ip, #32
    551e:	1c5d      	adds	r5, r3, #1
    5520:	f1a2 0320 	sub.w	r3, r2, #32
    5524:	2b58      	cmp	r3, #88	; 0x58
    5526:	f200 8219 	bhi.w	595c <_svfprintf_r+0x510>
    552a:	e8df f013 	tbh	[pc, r3, lsl #1]
    552e:	0229      	.short	0x0229
    5530:	02170217 	.word	0x02170217
    5534:	02170235 	.word	0x02170235
    5538:	02170217 	.word	0x02170217
    553c:	02170217 	.word	0x02170217
    5540:	023c0217 	.word	0x023c0217
    5544:	02170248 	.word	0x02170248
    5548:	02cf02c8 	.word	0x02cf02c8
    554c:	02ef0217 	.word	0x02ef0217
    5550:	02f602f6 	.word	0x02f602f6
    5554:	02f602f6 	.word	0x02f602f6
    5558:	02f602f6 	.word	0x02f602f6
    555c:	02f602f6 	.word	0x02f602f6
    5560:	021702f6 	.word	0x021702f6
    5564:	02170217 	.word	0x02170217
    5568:	02170217 	.word	0x02170217
    556c:	02170217 	.word	0x02170217
    5570:	02170217 	.word	0x02170217
    5574:	024f0217 	.word	0x024f0217
    5578:	02170288 	.word	0x02170288
    557c:	02170288 	.word	0x02170288
    5580:	02170217 	.word	0x02170217
    5584:	02c10217 	.word	0x02c10217
    5588:	02170217 	.word	0x02170217
    558c:	021703ee 	.word	0x021703ee
    5590:	02170217 	.word	0x02170217
    5594:	02170217 	.word	0x02170217
    5598:	02170393 	.word	0x02170393
    559c:	03ad0217 	.word	0x03ad0217
    55a0:	02170217 	.word	0x02170217
    55a4:	02170217 	.word	0x02170217
    55a8:	02170217 	.word	0x02170217
    55ac:	02170217 	.word	0x02170217
    55b0:	02170217 	.word	0x02170217
    55b4:	03d803c7 	.word	0x03d803c7
    55b8:	02880288 	.word	0x02880288
    55bc:	030b0288 	.word	0x030b0288
    55c0:	021703d8 	.word	0x021703d8
    55c4:	030f0217 	.word	0x030f0217
    55c8:	03190217 	.word	0x03190217
    55cc:	033e0329 	.word	0x033e0329
    55d0:	0217038c 	.word	0x0217038c
    55d4:	02170359 	.word	0x02170359
    55d8:	02170384 	.word	0x02170384
    55dc:	00ea0217 	.word	0x00ea0217
    55e0:	9809      	ldr	r0, [sp, #36]	; 0x24
    55e2:	4659      	mov	r1, fp
    55e4:	aa37      	add	r2, sp, #220	; 0xdc
    55e6:	f7ff fea3 	bl	5330 <__sprint_r>
    55ea:	2800      	cmp	r0, #0
    55ec:	d17c      	bne.n	56e8 <_svfprintf_r+0x29c>
    55ee:	464c      	mov	r4, r9
    55f0:	e77d      	b.n	54ee <_svfprintf_r+0xa2>
    55f2:	9918      	ldr	r1, [sp, #96]	; 0x60
    55f4:	2901      	cmp	r1, #1
    55f6:	f340 8452 	ble.w	5e9e <_svfprintf_r+0xa52>
    55fa:	9a11      	ldr	r2, [sp, #68]	; 0x44
    55fc:	2301      	movs	r3, #1
    55fe:	6063      	str	r3, [r4, #4]
    5600:	9b38      	ldr	r3, [sp, #224]	; 0xe0
    5602:	6022      	str	r2, [r4, #0]
    5604:	9a39      	ldr	r2, [sp, #228]	; 0xe4
    5606:	3301      	adds	r3, #1
    5608:	9338      	str	r3, [sp, #224]	; 0xe0
    560a:	3201      	adds	r2, #1
    560c:	2b07      	cmp	r3, #7
    560e:	9239      	str	r2, [sp, #228]	; 0xe4
    5610:	f300 8596 	bgt.w	6140 <_svfprintf_r+0xcf4>
    5614:	3408      	adds	r4, #8
    5616:	2301      	movs	r3, #1
    5618:	6063      	str	r3, [r4, #4]
    561a:	9b38      	ldr	r3, [sp, #224]	; 0xe0
    561c:	9a39      	ldr	r2, [sp, #228]	; 0xe4
    561e:	3301      	adds	r3, #1
    5620:	981b      	ldr	r0, [sp, #108]	; 0x6c
    5622:	3201      	adds	r2, #1
    5624:	2b07      	cmp	r3, #7
    5626:	9239      	str	r2, [sp, #228]	; 0xe4
    5628:	6020      	str	r0, [r4, #0]
    562a:	9338      	str	r3, [sp, #224]	; 0xe0
    562c:	f300 857d 	bgt.w	612a <_svfprintf_r+0xcde>
    5630:	3408      	adds	r4, #8
    5632:	9810      	ldr	r0, [sp, #64]	; 0x40
    5634:	2200      	movs	r2, #0
    5636:	2300      	movs	r3, #0
    5638:	9919      	ldr	r1, [sp, #100]	; 0x64
    563a:	f004 fbe3 	bl	9e04 <__aeabi_dcmpeq>
    563e:	2800      	cmp	r0, #0
    5640:	f040 8503 	bne.w	604a <_svfprintf_r+0xbfe>
    5644:	9918      	ldr	r1, [sp, #96]	; 0x60
    5646:	9b11      	ldr	r3, [sp, #68]	; 0x44
    5648:	1e4a      	subs	r2, r1, #1
    564a:	6062      	str	r2, [r4, #4]
    564c:	1c59      	adds	r1, r3, #1
    564e:	9b38      	ldr	r3, [sp, #224]	; 0xe0
    5650:	6021      	str	r1, [r4, #0]
    5652:	9939      	ldr	r1, [sp, #228]	; 0xe4
    5654:	3301      	adds	r3, #1
    5656:	9338      	str	r3, [sp, #224]	; 0xe0
    5658:	188a      	adds	r2, r1, r2
    565a:	2b07      	cmp	r3, #7
    565c:	9239      	str	r2, [sp, #228]	; 0xe4
    565e:	f300 842f 	bgt.w	5ec0 <_svfprintf_r+0xa74>
    5662:	3408      	adds	r4, #8
    5664:	9a1a      	ldr	r2, [sp, #104]	; 0x68
    5666:	981a      	ldr	r0, [sp, #104]	; 0x68
    5668:	6062      	str	r2, [r4, #4]
    566a:	aa3e      	add	r2, sp, #248	; 0xf8
    566c:	9b38      	ldr	r3, [sp, #224]	; 0xe0
    566e:	6022      	str	r2, [r4, #0]
    5670:	9a39      	ldr	r2, [sp, #228]	; 0xe4
    5672:	3301      	adds	r3, #1
    5674:	9338      	str	r3, [sp, #224]	; 0xe0
    5676:	1812      	adds	r2, r2, r0
    5678:	2b07      	cmp	r3, #7
    567a:	9239      	str	r2, [sp, #228]	; 0xe4
    567c:	f300 814f 	bgt.w	591e <_svfprintf_r+0x4d2>
    5680:	f104 0308 	add.w	r3, r4, #8
    5684:	f01a 0f04 	tst.w	sl, #4
    5688:	f000 8156 	beq.w	5938 <_svfprintf_r+0x4ec>
    568c:	990c      	ldr	r1, [sp, #48]	; 0x30
    568e:	9a0b      	ldr	r2, [sp, #44]	; 0x2c
    5690:	1a8e      	subs	r6, r1, r2
    5692:	2e00      	cmp	r6, #0
    5694:	f340 8150 	ble.w	5938 <_svfprintf_r+0x4ec>
    5698:	2e10      	cmp	r6, #16
    569a:	f24b 1764 	movw	r7, #45412	; 0xb164
    569e:	bfd8      	it	le
    56a0:	f2c0 0700 	movtle	r7, #0
    56a4:	f340 83de 	ble.w	5e64 <_svfprintf_r+0xa18>
    56a8:	2410      	movs	r4, #16
    56aa:	f2c0 0700 	movt	r7, #0
    56ae:	f10d 08dc 	add.w	r8, sp, #220	; 0xdc
    56b2:	f8dd a024 	ldr.w	sl, [sp, #36]	; 0x24
    56b6:	e003      	b.n	56c0 <_svfprintf_r+0x274>
    56b8:	3e10      	subs	r6, #16
    56ba:	2e10      	cmp	r6, #16
    56bc:	f340 83d2 	ble.w	5e64 <_svfprintf_r+0xa18>
    56c0:	605c      	str	r4, [r3, #4]
    56c2:	9a38      	ldr	r2, [sp, #224]	; 0xe0
    56c4:	9939      	ldr	r1, [sp, #228]	; 0xe4
    56c6:	3201      	adds	r2, #1
    56c8:	601f      	str	r7, [r3, #0]
    56ca:	3110      	adds	r1, #16
    56cc:	2a07      	cmp	r2, #7
    56ce:	9139      	str	r1, [sp, #228]	; 0xe4
    56d0:	f103 0308 	add.w	r3, r3, #8
    56d4:	9238      	str	r2, [sp, #224]	; 0xe0
    56d6:	ddef      	ble.n	56b8 <_svfprintf_r+0x26c>
    56d8:	4650      	mov	r0, sl
    56da:	4659      	mov	r1, fp
    56dc:	4642      	mov	r2, r8
    56de:	f7ff fe27 	bl	5330 <__sprint_r>
    56e2:	464b      	mov	r3, r9
    56e4:	2800      	cmp	r0, #0
    56e6:	d0e7      	beq.n	56b8 <_svfprintf_r+0x26c>
    56e8:	465e      	mov	r6, fp
    56ea:	89b3      	ldrh	r3, [r6, #12]
    56ec:	980d      	ldr	r0, [sp, #52]	; 0x34
    56ee:	f013 0f40 	tst.w	r3, #64	; 0x40
    56f2:	bf18      	it	ne
    56f4:	f04f 30ff 	movne.w	r0, #4294967295
    56f8:	900d      	str	r0, [sp, #52]	; 0x34
    56fa:	980d      	ldr	r0, [sp, #52]	; 0x34
    56fc:	b045      	add	sp, #276	; 0x114
    56fe:	e8bd 8ff0 	ldmia.w	sp!, {r4, r5, r6, r7, r8, r9, sl, fp, pc}
    5702:	f01a 0f20 	tst.w	sl, #32
    5706:	f24b 10a8 	movw	r0, #45480	; 0xb1a8
    570a:	f2c0 0000 	movt	r0, #0
    570e:	9214      	str	r2, [sp, #80]	; 0x50
    5710:	9017      	str	r0, [sp, #92]	; 0x5c
    5712:	f000 82c3 	beq.w	5c9c <_svfprintf_r+0x850>
    5716:	990a      	ldr	r1, [sp, #40]	; 0x28
    5718:	1dcb      	adds	r3, r1, #7
    571a:	f023 0307 	bic.w	r3, r3, #7
    571e:	f103 0208 	add.w	r2, r3, #8
    5722:	920a      	str	r2, [sp, #40]	; 0x28
    5724:	e9d3 6700 	ldrd	r6, r7, [r3]
    5728:	ea56 0107 	orrs.w	r1, r6, r7
    572c:	bf0c      	ite	eq
    572e:	2200      	moveq	r2, #0
    5730:	2201      	movne	r2, #1
    5732:	ea1a 0f02 	tst.w	sl, r2
    5736:	f040 84bc 	bne.w	60b2 <_svfprintf_r+0xc66>
    573a:	2302      	movs	r3, #2
    573c:	f04f 0100 	mov.w	r1, #0
    5740:	f88d 110f 	strb.w	r1, [sp, #271]	; 0x10f
    5744:	f1b8 0f00 	cmp.w	r8, #0
    5748:	bfa8      	it	ge
    574a:	f02a 0a80 	bicge.w	sl, sl, #128	; 0x80
    574e:	f1b8 0f00 	cmp.w	r8, #0
    5752:	bf18      	it	ne
    5754:	f042 0201 	orrne.w	r2, r2, #1
    5758:	2a00      	cmp	r2, #0
    575a:	f000 8160 	beq.w	5a1e <_svfprintf_r+0x5d2>
    575e:	2b01      	cmp	r3, #1
    5760:	f000 8434 	beq.w	5fcc <_svfprintf_r+0xb80>
    5764:	2b02      	cmp	r3, #2
    5766:	f000 8417 	beq.w	5f98 <_svfprintf_r+0xb4c>
    576a:	9916      	ldr	r1, [sp, #88]	; 0x58
    576c:	f8cd 802c 	str.w	r8, [sp, #44]	; 0x2c
    5770:	9111      	str	r1, [sp, #68]	; 0x44
    5772:	ea4f 08d6 	mov.w	r8, r6, lsr #3
    5776:	ea4f 0cd7 	mov.w	ip, r7, lsr #3
    577a:	ea48 7847 	orr.w	r8, r8, r7, lsl #29
    577e:	f006 0007 	and.w	r0, r6, #7
    5782:	4667      	mov	r7, ip
    5784:	4646      	mov	r6, r8
    5786:	3030      	adds	r0, #48	; 0x30
    5788:	ea56 0207 	orrs.w	r2, r6, r7
    578c:	f801 0d01 	strb.w	r0, [r1, #-1]!
    5790:	d1ef      	bne.n	5772 <_svfprintf_r+0x326>
    5792:	f01a 0f01 	tst.w	sl, #1
    5796:	f8dd 802c 	ldr.w	r8, [sp, #44]	; 0x2c
    579a:	9111      	str	r1, [sp, #68]	; 0x44
    579c:	f040 84db 	bne.w	6156 <_svfprintf_r+0xd0a>
    57a0:	9b16      	ldr	r3, [sp, #88]	; 0x58
    57a2:	1a5b      	subs	r3, r3, r1
    57a4:	930e      	str	r3, [sp, #56]	; 0x38
    57a6:	9b0e      	ldr	r3, [sp, #56]	; 0x38
    57a8:	f8cd 8054 	str.w	r8, [sp, #84]	; 0x54
    57ac:	4543      	cmp	r3, r8
    57ae:	bfb8      	it	lt
    57b0:	4643      	movlt	r3, r8
    57b2:	930b      	str	r3, [sp, #44]	; 0x2c
    57b4:	f89d 310f 	ldrb.w	r3, [sp, #271]	; 0x10f
    57b8:	b113      	cbz	r3, 57c0 <_svfprintf_r+0x374>
    57ba:	990b      	ldr	r1, [sp, #44]	; 0x2c
    57bc:	3101      	adds	r1, #1
    57be:	910b      	str	r1, [sp, #44]	; 0x2c
    57c0:	f01a 0202 	ands.w	r2, sl, #2
    57c4:	9213      	str	r2, [sp, #76]	; 0x4c
    57c6:	d002      	beq.n	57ce <_svfprintf_r+0x382>
    57c8:	9b0b      	ldr	r3, [sp, #44]	; 0x2c
    57ca:	3302      	adds	r3, #2
    57cc:	930b      	str	r3, [sp, #44]	; 0x2c
    57ce:	f01a 0084 	ands.w	r0, sl, #132	; 0x84
    57d2:	9012      	str	r0, [sp, #72]	; 0x48
    57d4:	d138      	bne.n	5848 <_svfprintf_r+0x3fc>
    57d6:	990c      	ldr	r1, [sp, #48]	; 0x30
    57d8:	9a0b      	ldr	r2, [sp, #44]	; 0x2c
    57da:	1a8e      	subs	r6, r1, r2
    57dc:	2e00      	cmp	r6, #0
    57de:	dd33      	ble.n	5848 <_svfprintf_r+0x3fc>
    57e0:	2e10      	cmp	r6, #16
    57e2:	f24b 1764 	movw	r7, #45412	; 0xb164
    57e6:	bfd8      	it	le
    57e8:	f2c0 0700 	movtle	r7, #0
    57ec:	dd20      	ble.n	5830 <_svfprintf_r+0x3e4>
    57ee:	f04f 0810 	mov.w	r8, #16
    57f2:	f2c0 0700 	movt	r7, #0
    57f6:	e002      	b.n	57fe <_svfprintf_r+0x3b2>
    57f8:	3e10      	subs	r6, #16
    57fa:	2e10      	cmp	r6, #16
    57fc:	dd18      	ble.n	5830 <_svfprintf_r+0x3e4>
    57fe:	f8c4 8004 	str.w	r8, [r4, #4]
    5802:	9b38      	ldr	r3, [sp, #224]	; 0xe0
    5804:	9a39      	ldr	r2, [sp, #228]	; 0xe4
    5806:	3301      	adds	r3, #1
    5808:	6027      	str	r7, [r4, #0]
    580a:	3210      	adds	r2, #16
    580c:	2b07      	cmp	r3, #7
    580e:	9239      	str	r2, [sp, #228]	; 0xe4
    5810:	f104 0408 	add.w	r4, r4, #8
    5814:	9338      	str	r3, [sp, #224]	; 0xe0
    5816:	ddef      	ble.n	57f8 <_svfprintf_r+0x3ac>
    5818:	9809      	ldr	r0, [sp, #36]	; 0x24
    581a:	4659      	mov	r1, fp
    581c:	aa37      	add	r2, sp, #220	; 0xdc
    581e:	464c      	mov	r4, r9
    5820:	f7ff fd86 	bl	5330 <__sprint_r>
    5824:	2800      	cmp	r0, #0
    5826:	f47f af5f 	bne.w	56e8 <_svfprintf_r+0x29c>
    582a:	3e10      	subs	r6, #16
    582c:	2e10      	cmp	r6, #16
    582e:	dce6      	bgt.n	57fe <_svfprintf_r+0x3b2>
    5830:	6066      	str	r6, [r4, #4]
    5832:	9b38      	ldr	r3, [sp, #224]	; 0xe0
    5834:	6027      	str	r7, [r4, #0]
    5836:	1c5a      	adds	r2, r3, #1
    5838:	9b39      	ldr	r3, [sp, #228]	; 0xe4
    583a:	9238      	str	r2, [sp, #224]	; 0xe0
    583c:	199b      	adds	r3, r3, r6
    583e:	2a07      	cmp	r2, #7
    5840:	9339      	str	r3, [sp, #228]	; 0xe4
    5842:	f300 83f7 	bgt.w	6034 <_svfprintf_r+0xbe8>
    5846:	3408      	adds	r4, #8
    5848:	f89d 310f 	ldrb.w	r3, [sp, #271]	; 0x10f
    584c:	b173      	cbz	r3, 586c <_svfprintf_r+0x420>
    584e:	2301      	movs	r3, #1
    5850:	6063      	str	r3, [r4, #4]
    5852:	9b38      	ldr	r3, [sp, #224]	; 0xe0
    5854:	aa43      	add	r2, sp, #268	; 0x10c
    5856:	3203      	adds	r2, #3
    5858:	6022      	str	r2, [r4, #0]
    585a:	9a39      	ldr	r2, [sp, #228]	; 0xe4
    585c:	3301      	adds	r3, #1
    585e:	9338      	str	r3, [sp, #224]	; 0xe0
    5860:	3201      	adds	r2, #1
    5862:	2b07      	cmp	r3, #7
    5864:	9239      	str	r2, [sp, #228]	; 0xe4
    5866:	f300 8340 	bgt.w	5eea <_svfprintf_r+0xa9e>
    586a:	3408      	adds	r4, #8
    586c:	9b13      	ldr	r3, [sp, #76]	; 0x4c
    586e:	b16b      	cbz	r3, 588c <_svfprintf_r+0x440>
    5870:	2302      	movs	r3, #2
    5872:	6063      	str	r3, [r4, #4]
    5874:	9b38      	ldr	r3, [sp, #224]	; 0xe0
    5876:	aa43      	add	r2, sp, #268	; 0x10c
    5878:	6022      	str	r2, [r4, #0]
    587a:	9a39      	ldr	r2, [sp, #228]	; 0xe4
    587c:	3301      	adds	r3, #1
    587e:	9338      	str	r3, [sp, #224]	; 0xe0
    5880:	3202      	adds	r2, #2
    5882:	2b07      	cmp	r3, #7
    5884:	9239      	str	r2, [sp, #228]	; 0xe4
    5886:	f300 833a 	bgt.w	5efe <_svfprintf_r+0xab2>
    588a:	3408      	adds	r4, #8
    588c:	9812      	ldr	r0, [sp, #72]	; 0x48
    588e:	2880      	cmp	r0, #128	; 0x80
    5890:	f000 82b2 	beq.w	5df8 <_svfprintf_r+0x9ac>
    5894:	9815      	ldr	r0, [sp, #84]	; 0x54
    5896:	9b0e      	ldr	r3, [sp, #56]	; 0x38
    5898:	1ac6      	subs	r6, r0, r3
    589a:	2e00      	cmp	r6, #0
    589c:	dd2e      	ble.n	58fc <_svfprintf_r+0x4b0>
    589e:	2e10      	cmp	r6, #16
    58a0:	4fa7      	ldr	r7, [pc, #668]	; (5b40 <_svfprintf_r+0x6f4>)
    58a2:	bfc8      	it	gt
    58a4:	f04f 0810 	movgt.w	r8, #16
    58a8:	dc03      	bgt.n	58b2 <_svfprintf_r+0x466>
    58aa:	e01b      	b.n	58e4 <_svfprintf_r+0x498>
    58ac:	3e10      	subs	r6, #16
    58ae:	2e10      	cmp	r6, #16
    58b0:	dd18      	ble.n	58e4 <_svfprintf_r+0x498>
    58b2:	f8c4 8004 	str.w	r8, [r4, #4]
    58b6:	9b38      	ldr	r3, [sp, #224]	; 0xe0
    58b8:	9a39      	ldr	r2, [sp, #228]	; 0xe4
    58ba:	3301      	adds	r3, #1
    58bc:	6027      	str	r7, [r4, #0]
    58be:	3210      	adds	r2, #16
    58c0:	2b07      	cmp	r3, #7
    58c2:	9239      	str	r2, [sp, #228]	; 0xe4
    58c4:	f104 0408 	add.w	r4, r4, #8
    58c8:	9338      	str	r3, [sp, #224]	; 0xe0
    58ca:	ddef      	ble.n	58ac <_svfprintf_r+0x460>
    58cc:	9809      	ldr	r0, [sp, #36]	; 0x24
    58ce:	4659      	mov	r1, fp
    58d0:	aa37      	add	r2, sp, #220	; 0xdc
    58d2:	464c      	mov	r4, r9
    58d4:	f7ff fd2c 	bl	5330 <__sprint_r>
    58d8:	2800      	cmp	r0, #0
    58da:	f47f af05 	bne.w	56e8 <_svfprintf_r+0x29c>
    58de:	3e10      	subs	r6, #16
    58e0:	2e10      	cmp	r6, #16
    58e2:	dce6      	bgt.n	58b2 <_svfprintf_r+0x466>
    58e4:	6066      	str	r6, [r4, #4]
    58e6:	9b38      	ldr	r3, [sp, #224]	; 0xe0
    58e8:	6027      	str	r7, [r4, #0]
    58ea:	1c5a      	adds	r2, r3, #1
    58ec:	9b39      	ldr	r3, [sp, #228]	; 0xe4
    58ee:	9238      	str	r2, [sp, #224]	; 0xe0
    58f0:	199b      	adds	r3, r3, r6
    58f2:	2a07      	cmp	r2, #7
    58f4:	9339      	str	r3, [sp, #228]	; 0xe4
    58f6:	f300 82ee 	bgt.w	5ed6 <_svfprintf_r+0xa8a>
    58fa:	3408      	adds	r4, #8
    58fc:	f41a 7f80 	tst.w	sl, #256	; 0x100
    5900:	f040 8219 	bne.w	5d36 <_svfprintf_r+0x8ea>
    5904:	990e      	ldr	r1, [sp, #56]	; 0x38
    5906:	9a11      	ldr	r2, [sp, #68]	; 0x44
    5908:	6061      	str	r1, [r4, #4]
    590a:	9b38      	ldr	r3, [sp, #224]	; 0xe0
    590c:	6022      	str	r2, [r4, #0]
    590e:	9a39      	ldr	r2, [sp, #228]	; 0xe4
    5910:	3301      	adds	r3, #1
    5912:	9338      	str	r3, [sp, #224]	; 0xe0
    5914:	1852      	adds	r2, r2, r1
    5916:	2b07      	cmp	r3, #7
    5918:	9239      	str	r2, [sp, #228]	; 0xe4
    591a:	f77f aeb1 	ble.w	5680 <_svfprintf_r+0x234>
    591e:	9809      	ldr	r0, [sp, #36]	; 0x24
    5920:	4659      	mov	r1, fp
    5922:	aa37      	add	r2, sp, #220	; 0xdc
    5924:	f7ff fd04 	bl	5330 <__sprint_r>
    5928:	2800      	cmp	r0, #0
    592a:	f47f aedd 	bne.w	56e8 <_svfprintf_r+0x29c>
    592e:	f01a 0f04 	tst.w	sl, #4
    5932:	464b      	mov	r3, r9
    5934:	f47f aeaa 	bne.w	568c <_svfprintf_r+0x240>
    5938:	9b39      	ldr	r3, [sp, #228]	; 0xe4
    593a:	980d      	ldr	r0, [sp, #52]	; 0x34
    593c:	9a0b      	ldr	r2, [sp, #44]	; 0x2c
    593e:	990c      	ldr	r1, [sp, #48]	; 0x30
    5940:	428a      	cmp	r2, r1
    5942:	bfac      	ite	ge
    5944:	1880      	addge	r0, r0, r2
    5946:	1840      	addlt	r0, r0, r1
    5948:	900d      	str	r0, [sp, #52]	; 0x34
    594a:	2b00      	cmp	r3, #0
    594c:	f040 829e 	bne.w	5e8c <_svfprintf_r+0xa40>
    5950:	2300      	movs	r3, #0
    5952:	f8dd a028 	ldr.w	sl, [sp, #40]	; 0x28
    5956:	9338      	str	r3, [sp, #224]	; 0xe0
    5958:	464c      	mov	r4, r9
    595a:	e5a1      	b.n	54a0 <_svfprintf_r+0x54>
    595c:	9214      	str	r2, [sp, #80]	; 0x50
    595e:	2a00      	cmp	r2, #0
    5960:	f000 8504 	beq.w	636c <_svfprintf_r+0xf20>
    5964:	2001      	movs	r0, #1
    5966:	f88d 20b4 	strb.w	r2, [sp, #180]	; 0xb4
    596a:	f04f 0100 	mov.w	r1, #0
    596e:	aa2d      	add	r2, sp, #180	; 0xb4
    5970:	900b      	str	r0, [sp, #44]	; 0x2c
    5972:	f88d 110f 	strb.w	r1, [sp, #271]	; 0x10f
    5976:	9211      	str	r2, [sp, #68]	; 0x44
    5978:	900e      	str	r0, [sp, #56]	; 0x38
    597a:	2100      	movs	r1, #0
    597c:	9115      	str	r1, [sp, #84]	; 0x54
    597e:	e71f      	b.n	57c0 <_svfprintf_r+0x374>
    5980:	f89d 310f 	ldrb.w	r3, [sp, #271]	; 0x10f
    5984:	2b00      	cmp	r3, #0
    5986:	f040 840c 	bne.w	61a2 <_svfprintf_r+0xd56>
    598a:	990a      	ldr	r1, [sp, #40]	; 0x28
    598c:	462b      	mov	r3, r5
    598e:	f88d c10f 	strb.w	ip, [sp, #271]	; 0x10f
    5992:	782a      	ldrb	r2, [r5, #0]
    5994:	910a      	str	r1, [sp, #40]	; 0x28
    5996:	e5c2      	b.n	551e <_svfprintf_r+0xd2>
    5998:	990a      	ldr	r1, [sp, #40]	; 0x28
    599a:	f04a 0a01 	orr.w	sl, sl, #1
    599e:	782a      	ldrb	r2, [r5, #0]
    59a0:	462b      	mov	r3, r5
    59a2:	910a      	str	r1, [sp, #40]	; 0x28
    59a4:	e5bb      	b.n	551e <_svfprintf_r+0xd2>
    59a6:	9b0a      	ldr	r3, [sp, #40]	; 0x28
    59a8:	9a0a      	ldr	r2, [sp, #40]	; 0x28
    59aa:	681b      	ldr	r3, [r3, #0]
    59ac:	1d11      	adds	r1, r2, #4
    59ae:	2b00      	cmp	r3, #0
    59b0:	930c      	str	r3, [sp, #48]	; 0x30
    59b2:	f2c0 85b2 	blt.w	651a <_svfprintf_r+0x10ce>
    59b6:	782a      	ldrb	r2, [r5, #0]
    59b8:	462b      	mov	r3, r5
    59ba:	910a      	str	r1, [sp, #40]	; 0x28
    59bc:	e5af      	b.n	551e <_svfprintf_r+0xd2>
    59be:	990a      	ldr	r1, [sp, #40]	; 0x28
    59c0:	462b      	mov	r3, r5
    59c2:	f88d 010f 	strb.w	r0, [sp, #271]	; 0x10f
    59c6:	782a      	ldrb	r2, [r5, #0]
    59c8:	910a      	str	r1, [sp, #40]	; 0x28
    59ca:	e5a8      	b.n	551e <_svfprintf_r+0xd2>
    59cc:	f04a 0a10 	orr.w	sl, sl, #16
    59d0:	9214      	str	r2, [sp, #80]	; 0x50
    59d2:	f01a 0f20 	tst.w	sl, #32
    59d6:	f000 8187 	beq.w	5ce8 <_svfprintf_r+0x89c>
    59da:	980a      	ldr	r0, [sp, #40]	; 0x28
    59dc:	1dc3      	adds	r3, r0, #7
    59de:	f023 0307 	bic.w	r3, r3, #7
    59e2:	f103 0108 	add.w	r1, r3, #8
    59e6:	910a      	str	r1, [sp, #40]	; 0x28
    59e8:	e9d3 6700 	ldrd	r6, r7, [r3]
    59ec:	2e00      	cmp	r6, #0
    59ee:	f177 0000 	sbcs.w	r0, r7, #0
    59f2:	f2c0 8376 	blt.w	60e2 <_svfprintf_r+0xc96>
    59f6:	ea56 0107 	orrs.w	r1, r6, r7
    59fa:	f04f 0301 	mov.w	r3, #1
    59fe:	bf0c      	ite	eq
    5a00:	2200      	moveq	r2, #0
    5a02:	2201      	movne	r2, #1
    5a04:	f1b8 0f00 	cmp.w	r8, #0
    5a08:	bfa8      	it	ge
    5a0a:	f02a 0a80 	bicge.w	sl, sl, #128	; 0x80
    5a0e:	f1b8 0f00 	cmp.w	r8, #0
    5a12:	bf18      	it	ne
    5a14:	f042 0201 	orrne.w	r2, r2, #1
    5a18:	2a00      	cmp	r2, #0
    5a1a:	f47f aea0 	bne.w	575e <_svfprintf_r+0x312>
    5a1e:	2b00      	cmp	r3, #0
    5a20:	f040 81e5 	bne.w	5dee <_svfprintf_r+0x9a2>
    5a24:	f01a 0f01 	tst.w	sl, #1
    5a28:	f000 81e1 	beq.w	5dee <_svfprintf_r+0x9a2>
    5a2c:	2330      	movs	r3, #48	; 0x30
    5a2e:	f88d 30db 	strb.w	r3, [sp, #219]	; 0xdb
    5a32:	ab2d      	add	r3, sp, #180	; 0xb4
    5a34:	2001      	movs	r0, #1
    5a36:	3327      	adds	r3, #39	; 0x27
    5a38:	900e      	str	r0, [sp, #56]	; 0x38
    5a3a:	9311      	str	r3, [sp, #68]	; 0x44
    5a3c:	e6b3      	b.n	57a6 <_svfprintf_r+0x35a>
    5a3e:	f01a 0f08 	tst.w	sl, #8
    5a42:	9214      	str	r2, [sp, #80]	; 0x50
    5a44:	f000 83bf 	beq.w	61c6 <_svfprintf_r+0xd7a>
    5a48:	980a      	ldr	r0, [sp, #40]	; 0x28
    5a4a:	1dc3      	adds	r3, r0, #7
    5a4c:	f023 0307 	bic.w	r3, r3, #7
    5a50:	f103 0108 	add.w	r1, r3, #8
    5a54:	910a      	str	r1, [sp, #40]	; 0x28
    5a56:	685e      	ldr	r6, [r3, #4]
    5a58:	681f      	ldr	r7, [r3, #0]
    5a5a:	9619      	str	r6, [sp, #100]	; 0x64
    5a5c:	9710      	str	r7, [sp, #64]	; 0x40
    5a5e:	4638      	mov	r0, r7
    5a60:	4631      	mov	r1, r6
    5a62:	f003 fa85 	bl	8f70 <__isinfd>
    5a66:	4603      	mov	r3, r0
    5a68:	2800      	cmp	r0, #0
    5a6a:	f000 8493 	beq.w	6394 <_svfprintf_r+0xf48>
    5a6e:	4638      	mov	r0, r7
    5a70:	2200      	movs	r2, #0
    5a72:	2300      	movs	r3, #0
    5a74:	4631      	mov	r1, r6
    5a76:	f004 f9cf 	bl	9e18 <__aeabi_dcmplt>
    5a7a:	2800      	cmp	r0, #0
    5a7c:	f040 8415 	bne.w	62aa <_svfprintf_r+0xe5e>
    5a80:	f89d 310f 	ldrb.w	r3, [sp, #271]	; 0x10f
    5a84:	2003      	movs	r0, #3
    5a86:	f24b 129c 	movw	r2, #45468	; 0xb19c
    5a8a:	f24b 1198 	movw	r1, #45464	; 0xb198
    5a8e:	900b      	str	r0, [sp, #44]	; 0x2c
    5a90:	9814      	ldr	r0, [sp, #80]	; 0x50
    5a92:	f2c0 0100 	movt	r1, #0
    5a96:	f2c0 0200 	movt	r2, #0
    5a9a:	f02a 0a80 	bic.w	sl, sl, #128	; 0x80
    5a9e:	2847      	cmp	r0, #71	; 0x47
    5aa0:	bfd8      	it	le
    5aa2:	460a      	movle	r2, r1
    5aa4:	2103      	movs	r1, #3
    5aa6:	9211      	str	r2, [sp, #68]	; 0x44
    5aa8:	2200      	movs	r2, #0
    5aaa:	910e      	str	r1, [sp, #56]	; 0x38
    5aac:	9215      	str	r2, [sp, #84]	; 0x54
    5aae:	e683      	b.n	57b8 <_svfprintf_r+0x36c>
    5ab0:	990a      	ldr	r1, [sp, #40]	; 0x28
    5ab2:	f04a 0a08 	orr.w	sl, sl, #8
    5ab6:	782a      	ldrb	r2, [r5, #0]
    5ab8:	462b      	mov	r3, r5
    5aba:	910a      	str	r1, [sp, #40]	; 0x28
    5abc:	e52f      	b.n	551e <_svfprintf_r+0xd2>
    5abe:	990a      	ldr	r1, [sp, #40]	; 0x28
    5ac0:	782a      	ldrb	r2, [r5, #0]
    5ac2:	f04a 0a04 	orr.w	sl, sl, #4
    5ac6:	462b      	mov	r3, r5
    5ac8:	910a      	str	r1, [sp, #40]	; 0x28
    5aca:	e528      	b.n	551e <_svfprintf_r+0xd2>
    5acc:	462b      	mov	r3, r5
    5ace:	f813 2b01 	ldrb.w	r2, [r3], #1
    5ad2:	2a2a      	cmp	r2, #42	; 0x2a
    5ad4:	f000 86cf 	beq.w	6876 <_svfprintf_r+0x142a>
    5ad8:	f1a2 0130 	sub.w	r1, r2, #48	; 0x30
    5adc:	2909      	cmp	r1, #9
    5ade:	bf88      	it	hi
    5ae0:	f04f 0800 	movhi.w	r8, #0
    5ae4:	d810      	bhi.n	5b08 <_svfprintf_r+0x6bc>
    5ae6:	3502      	adds	r5, #2
    5ae8:	f04f 0800 	mov.w	r8, #0
    5aec:	f815 2c01 	ldrb.w	r2, [r5, #-1]
    5af0:	eb08 0888 	add.w	r8, r8, r8, lsl #2
    5af4:	462b      	mov	r3, r5
    5af6:	3501      	adds	r5, #1
    5af8:	eb01 0848 	add.w	r8, r1, r8, lsl #1
    5afc:	f1a2 0130 	sub.w	r1, r2, #48	; 0x30
    5b00:	2909      	cmp	r1, #9
    5b02:	d9f3      	bls.n	5aec <_svfprintf_r+0x6a0>
    5b04:	ea48 78e8 	orr.w	r8, r8, r8, asr #31
    5b08:	461d      	mov	r5, r3
    5b0a:	e509      	b.n	5520 <_svfprintf_r+0xd4>
    5b0c:	990a      	ldr	r1, [sp, #40]	; 0x28
    5b0e:	f04a 0a80 	orr.w	sl, sl, #128	; 0x80
    5b12:	782a      	ldrb	r2, [r5, #0]
    5b14:	462b      	mov	r3, r5
    5b16:	910a      	str	r1, [sp, #40]	; 0x28
    5b18:	e501      	b.n	551e <_svfprintf_r+0xd2>
    5b1a:	f1a2 0130 	sub.w	r1, r2, #48	; 0x30
    5b1e:	2600      	movs	r6, #0
    5b20:	462b      	mov	r3, r5
    5b22:	eb06 0686 	add.w	r6, r6, r6, lsl #2
    5b26:	f813 2b01 	ldrb.w	r2, [r3], #1
    5b2a:	eb01 0646 	add.w	r6, r1, r6, lsl #1
    5b2e:	f1a2 0130 	sub.w	r1, r2, #48	; 0x30
    5b32:	461d      	mov	r5, r3
    5b34:	2909      	cmp	r1, #9
    5b36:	d9f3      	bls.n	5b20 <_svfprintf_r+0x6d4>
    5b38:	960c      	str	r6, [sp, #48]	; 0x30
    5b3a:	461d      	mov	r5, r3
    5b3c:	e4f0      	b.n	5520 <_svfprintf_r+0xd4>
    5b3e:	bf00      	nop
    5b40:	0000b174 	.word	0x0000b174
    5b44:	f04a 0a40 	orr.w	sl, sl, #64	; 0x40
    5b48:	990a      	ldr	r1, [sp, #40]	; 0x28
    5b4a:	e734      	b.n	59b6 <_svfprintf_r+0x56a>
    5b4c:	782a      	ldrb	r2, [r5, #0]
    5b4e:	2a6c      	cmp	r2, #108	; 0x6c
    5b50:	f000 8418 	beq.w	6384 <_svfprintf_r+0xf38>
    5b54:	990a      	ldr	r1, [sp, #40]	; 0x28
    5b56:	f04a 0a10 	orr.w	sl, sl, #16
    5b5a:	462b      	mov	r3, r5
    5b5c:	910a      	str	r1, [sp, #40]	; 0x28
    5b5e:	e4de      	b.n	551e <_svfprintf_r+0xd2>
    5b60:	f01a 0f20 	tst.w	sl, #32
    5b64:	f000 8323 	beq.w	61ae <_svfprintf_r+0xd62>
    5b68:	990a      	ldr	r1, [sp, #40]	; 0x28
    5b6a:	9a0d      	ldr	r2, [sp, #52]	; 0x34
    5b6c:	680b      	ldr	r3, [r1, #0]
    5b6e:	4610      	mov	r0, r2
    5b70:	ea4f 71e0 	mov.w	r1, r0, asr #31
    5b74:	9a0a      	ldr	r2, [sp, #40]	; 0x28
    5b76:	e9c3 0100 	strd	r0, r1, [r3]
    5b7a:	f102 0a04 	add.w	sl, r2, #4
    5b7e:	e48f      	b.n	54a0 <_svfprintf_r+0x54>
    5b80:	f01a 0320 	ands.w	r3, sl, #32
    5b84:	9214      	str	r2, [sp, #80]	; 0x50
    5b86:	f000 80c7 	beq.w	5d18 <_svfprintf_r+0x8cc>
    5b8a:	9b0a      	ldr	r3, [sp, #40]	; 0x28
    5b8c:	1dda      	adds	r2, r3, #7
    5b8e:	2300      	movs	r3, #0
    5b90:	f022 0207 	bic.w	r2, r2, #7
    5b94:	f102 0008 	add.w	r0, r2, #8
    5b98:	900a      	str	r0, [sp, #40]	; 0x28
    5b9a:	e9d2 6700 	ldrd	r6, r7, [r2]
    5b9e:	ea56 0107 	orrs.w	r1, r6, r7
    5ba2:	bf0c      	ite	eq
    5ba4:	2200      	moveq	r2, #0
    5ba6:	2201      	movne	r2, #1
    5ba8:	e5c8      	b.n	573c <_svfprintf_r+0x2f0>
    5baa:	9a0a      	ldr	r2, [sp, #40]	; 0x28
    5bac:	f24b 10a8 	movw	r0, #45480	; 0xb1a8
    5bb0:	990a      	ldr	r1, [sp, #40]	; 0x28
    5bb2:	2378      	movs	r3, #120	; 0x78
    5bb4:	f2c0 0000 	movt	r0, #0
    5bb8:	9314      	str	r3, [sp, #80]	; 0x50
    5bba:	6816      	ldr	r6, [r2, #0]
    5bbc:	3104      	adds	r1, #4
    5bbe:	f88d 310d 	strb.w	r3, [sp, #269]	; 0x10d
    5bc2:	f04a 0a02 	orr.w	sl, sl, #2
    5bc6:	2330      	movs	r3, #48	; 0x30
    5bc8:	1e32      	subs	r2, r6, #0
    5bca:	bf18      	it	ne
    5bcc:	2201      	movne	r2, #1
    5bce:	f88d 310c 	strb.w	r3, [sp, #268]	; 0x10c
    5bd2:	4636      	mov	r6, r6
    5bd4:	f04f 0700 	mov.w	r7, #0
    5bd8:	9017      	str	r0, [sp, #92]	; 0x5c
    5bda:	2302      	movs	r3, #2
    5bdc:	910a      	str	r1, [sp, #40]	; 0x28
    5bde:	e5ad      	b.n	573c <_svfprintf_r+0x2f0>
    5be0:	9b0a      	ldr	r3, [sp, #40]	; 0x28
    5be2:	9214      	str	r2, [sp, #80]	; 0x50
    5be4:	f04f 0200 	mov.w	r2, #0
    5be8:	1d18      	adds	r0, r3, #4
    5bea:	f88d 210f 	strb.w	r2, [sp, #271]	; 0x10f
    5bee:	681b      	ldr	r3, [r3, #0]
    5bf0:	900a      	str	r0, [sp, #40]	; 0x28
    5bf2:	9311      	str	r3, [sp, #68]	; 0x44
    5bf4:	2b00      	cmp	r3, #0
    5bf6:	f000 854d 	beq.w	6694 <_svfprintf_r+0x1248>
    5bfa:	f1b8 0f00 	cmp.w	r8, #0
    5bfe:	9811      	ldr	r0, [sp, #68]	; 0x44
    5c00:	f2c0 852a 	blt.w	6658 <_svfprintf_r+0x120c>
    5c04:	2100      	movs	r1, #0
    5c06:	4642      	mov	r2, r8
    5c08:	f002 fa92 	bl	8130 <memchr>
    5c0c:	4603      	mov	r3, r0
    5c0e:	2800      	cmp	r0, #0
    5c10:	f000 856e 	beq.w	66f0 <_svfprintf_r+0x12a4>
    5c14:	9811      	ldr	r0, [sp, #68]	; 0x44
    5c16:	1a1b      	subs	r3, r3, r0
    5c18:	930e      	str	r3, [sp, #56]	; 0x38
    5c1a:	4543      	cmp	r3, r8
    5c1c:	f340 8482 	ble.w	6524 <_svfprintf_r+0x10d8>
    5c20:	f8cd 8038 	str.w	r8, [sp, #56]	; 0x38
    5c24:	2100      	movs	r1, #0
    5c26:	ea28 78e8 	bic.w	r8, r8, r8, asr #31
    5c2a:	f89d 310f 	ldrb.w	r3, [sp, #271]	; 0x10f
    5c2e:	f8cd 802c 	str.w	r8, [sp, #44]	; 0x2c
    5c32:	9115      	str	r1, [sp, #84]	; 0x54
    5c34:	e5c0      	b.n	57b8 <_svfprintf_r+0x36c>
    5c36:	f01a 0f20 	tst.w	sl, #32
    5c3a:	9214      	str	r2, [sp, #80]	; 0x50
    5c3c:	d010      	beq.n	5c60 <_svfprintf_r+0x814>
    5c3e:	9b0a      	ldr	r3, [sp, #40]	; 0x28
    5c40:	1dda      	adds	r2, r3, #7
    5c42:	2301      	movs	r3, #1
    5c44:	e7a4      	b.n	5b90 <_svfprintf_r+0x744>
    5c46:	990a      	ldr	r1, [sp, #40]	; 0x28
    5c48:	f04a 0a20 	orr.w	sl, sl, #32
    5c4c:	782a      	ldrb	r2, [r5, #0]
    5c4e:	462b      	mov	r3, r5
    5c50:	910a      	str	r1, [sp, #40]	; 0x28
    5c52:	e464      	b.n	551e <_svfprintf_r+0xd2>
    5c54:	f04a 0a10 	orr.w	sl, sl, #16
    5c58:	9214      	str	r2, [sp, #80]	; 0x50
    5c5a:	f01a 0f20 	tst.w	sl, #32
    5c5e:	d1ee      	bne.n	5c3e <_svfprintf_r+0x7f2>
    5c60:	f01a 0f10 	tst.w	sl, #16
    5c64:	f040 8254 	bne.w	6110 <_svfprintf_r+0xcc4>
    5c68:	f01a 0f40 	tst.w	sl, #64	; 0x40
    5c6c:	f000 8250 	beq.w	6110 <_svfprintf_r+0xcc4>
    5c70:	980a      	ldr	r0, [sp, #40]	; 0x28
    5c72:	2301      	movs	r3, #1
    5c74:	1d01      	adds	r1, r0, #4
    5c76:	910a      	str	r1, [sp, #40]	; 0x28
    5c78:	8806      	ldrh	r6, [r0, #0]
    5c7a:	1e32      	subs	r2, r6, #0
    5c7c:	bf18      	it	ne
    5c7e:	2201      	movne	r2, #1
    5c80:	4636      	mov	r6, r6
    5c82:	f04f 0700 	mov.w	r7, #0
    5c86:	e559      	b.n	573c <_svfprintf_r+0x2f0>
    5c88:	f01a 0f20 	tst.w	sl, #32
    5c8c:	9214      	str	r2, [sp, #80]	; 0x50
    5c8e:	f24b 1284 	movw	r2, #45444	; 0xb184
    5c92:	f2c0 0200 	movt	r2, #0
    5c96:	9217      	str	r2, [sp, #92]	; 0x5c
    5c98:	f47f ad3d 	bne.w	5716 <_svfprintf_r+0x2ca>
    5c9c:	f01a 0f10 	tst.w	sl, #16
    5ca0:	f040 822d 	bne.w	60fe <_svfprintf_r+0xcb2>
    5ca4:	f01a 0f40 	tst.w	sl, #64	; 0x40
    5ca8:	f000 8229 	beq.w	60fe <_svfprintf_r+0xcb2>
    5cac:	990a      	ldr	r1, [sp, #40]	; 0x28
    5cae:	1d0a      	adds	r2, r1, #4
    5cb0:	920a      	str	r2, [sp, #40]	; 0x28
    5cb2:	880e      	ldrh	r6, [r1, #0]
    5cb4:	4636      	mov	r6, r6
    5cb6:	f04f 0700 	mov.w	r7, #0
    5cba:	e535      	b.n	5728 <_svfprintf_r+0x2dc>
    5cbc:	9214      	str	r2, [sp, #80]	; 0x50
    5cbe:	2001      	movs	r0, #1
    5cc0:	9a0a      	ldr	r2, [sp, #40]	; 0x28
    5cc2:	f04f 0100 	mov.w	r1, #0
    5cc6:	900b      	str	r0, [sp, #44]	; 0x2c
    5cc8:	900e      	str	r0, [sp, #56]	; 0x38
    5cca:	6813      	ldr	r3, [r2, #0]
    5ccc:	3204      	adds	r2, #4
    5cce:	f88d 110f 	strb.w	r1, [sp, #271]	; 0x10f
    5cd2:	920a      	str	r2, [sp, #40]	; 0x28
    5cd4:	aa2d      	add	r2, sp, #180	; 0xb4
    5cd6:	f88d 30b4 	strb.w	r3, [sp, #180]	; 0xb4
    5cda:	9211      	str	r2, [sp, #68]	; 0x44
    5cdc:	e64d      	b.n	597a <_svfprintf_r+0x52e>
    5cde:	f01a 0f20 	tst.w	sl, #32
    5ce2:	9214      	str	r2, [sp, #80]	; 0x50
    5ce4:	f47f ae79 	bne.w	59da <_svfprintf_r+0x58e>
    5ce8:	f01a 0f10 	tst.w	sl, #16
    5cec:	f040 81ed 	bne.w	60ca <_svfprintf_r+0xc7e>
    5cf0:	f01a 0f40 	tst.w	sl, #64	; 0x40
    5cf4:	f000 81e9 	beq.w	60ca <_svfprintf_r+0xc7e>
    5cf8:	980a      	ldr	r0, [sp, #40]	; 0x28
    5cfa:	1d01      	adds	r1, r0, #4
    5cfc:	910a      	str	r1, [sp, #40]	; 0x28
    5cfe:	f9b0 6000 	ldrsh.w	r6, [r0]
    5d02:	4636      	mov	r6, r6
    5d04:	ea4f 77e6 	mov.w	r7, r6, asr #31
    5d08:	e670      	b.n	59ec <_svfprintf_r+0x5a0>
    5d0a:	f04a 0a10 	orr.w	sl, sl, #16
    5d0e:	9214      	str	r2, [sp, #80]	; 0x50
    5d10:	f01a 0320 	ands.w	r3, sl, #32
    5d14:	f47f af39 	bne.w	5b8a <_svfprintf_r+0x73e>
    5d18:	f01a 0210 	ands.w	r2, sl, #16
    5d1c:	f000 825f 	beq.w	61de <_svfprintf_r+0xd92>
    5d20:	9a0a      	ldr	r2, [sp, #40]	; 0x28
    5d22:	1d10      	adds	r0, r2, #4
    5d24:	900a      	str	r0, [sp, #40]	; 0x28
    5d26:	6816      	ldr	r6, [r2, #0]
    5d28:	1e32      	subs	r2, r6, #0
    5d2a:	bf18      	it	ne
    5d2c:	2201      	movne	r2, #1
    5d2e:	4636      	mov	r6, r6
    5d30:	f04f 0700 	mov.w	r7, #0
    5d34:	e502      	b.n	573c <_svfprintf_r+0x2f0>
    5d36:	9b14      	ldr	r3, [sp, #80]	; 0x50
    5d38:	2b65      	cmp	r3, #101	; 0x65
    5d3a:	f77f ac5a 	ble.w	55f2 <_svfprintf_r+0x1a6>
    5d3e:	9810      	ldr	r0, [sp, #64]	; 0x40
    5d40:	2200      	movs	r2, #0
    5d42:	2300      	movs	r3, #0
    5d44:	9919      	ldr	r1, [sp, #100]	; 0x64
    5d46:	f004 f85d 	bl	9e04 <__aeabi_dcmpeq>
    5d4a:	2800      	cmp	r0, #0
    5d4c:	f000 80e1 	beq.w	5f12 <_svfprintf_r+0xac6>
    5d50:	2301      	movs	r3, #1
    5d52:	6063      	str	r3, [r4, #4]
    5d54:	9a38      	ldr	r2, [sp, #224]	; 0xe0
    5d56:	f24b 13c4 	movw	r3, #45508	; 0xb1c4
    5d5a:	f2c0 0300 	movt	r3, #0
    5d5e:	6023      	str	r3, [r4, #0]
    5d60:	9b39      	ldr	r3, [sp, #228]	; 0xe4
    5d62:	3201      	adds	r2, #1
    5d64:	9238      	str	r2, [sp, #224]	; 0xe0
    5d66:	3301      	adds	r3, #1
    5d68:	2a07      	cmp	r2, #7
    5d6a:	9339      	str	r3, [sp, #228]	; 0xe4
    5d6c:	bfd8      	it	le
    5d6e:	f104 0308 	addle.w	r3, r4, #8
    5d72:	f300 829f 	bgt.w	62b4 <_svfprintf_r+0xe68>
    5d76:	9a42      	ldr	r2, [sp, #264]	; 0x108
    5d78:	9818      	ldr	r0, [sp, #96]	; 0x60
    5d7a:	4282      	cmp	r2, r0
    5d7c:	db03      	blt.n	5d86 <_svfprintf_r+0x93a>
    5d7e:	f01a 0f01 	tst.w	sl, #1
    5d82:	f43f ac7f 	beq.w	5684 <_svfprintf_r+0x238>
    5d86:	991b      	ldr	r1, [sp, #108]	; 0x6c
    5d88:	2201      	movs	r2, #1
    5d8a:	605a      	str	r2, [r3, #4]
    5d8c:	9a38      	ldr	r2, [sp, #224]	; 0xe0
    5d8e:	6019      	str	r1, [r3, #0]
    5d90:	9939      	ldr	r1, [sp, #228]	; 0xe4
    5d92:	3201      	adds	r2, #1
    5d94:	9238      	str	r2, [sp, #224]	; 0xe0
    5d96:	3101      	adds	r1, #1
    5d98:	2a07      	cmp	r2, #7
    5d9a:	9139      	str	r1, [sp, #228]	; 0xe4
    5d9c:	f300 83eb 	bgt.w	6576 <_svfprintf_r+0x112a>
    5da0:	3308      	adds	r3, #8
    5da2:	9a18      	ldr	r2, [sp, #96]	; 0x60
    5da4:	1e56      	subs	r6, r2, #1
    5da6:	2e00      	cmp	r6, #0
    5da8:	f77f ac6c 	ble.w	5684 <_svfprintf_r+0x238>
    5dac:	2e10      	cmp	r6, #16
    5dae:	4fa0      	ldr	r7, [pc, #640]	; (6030 <_svfprintf_r+0xbe4>)
    5db0:	f340 81e9 	ble.w	6186 <_svfprintf_r+0xd3a>
    5db4:	2410      	movs	r4, #16
    5db6:	f10d 08dc 	add.w	r8, sp, #220	; 0xdc
    5dba:	e003      	b.n	5dc4 <_svfprintf_r+0x978>
    5dbc:	3e10      	subs	r6, #16
    5dbe:	2e10      	cmp	r6, #16
    5dc0:	f340 81e1 	ble.w	6186 <_svfprintf_r+0xd3a>
    5dc4:	605c      	str	r4, [r3, #4]
    5dc6:	9a38      	ldr	r2, [sp, #224]	; 0xe0
    5dc8:	9939      	ldr	r1, [sp, #228]	; 0xe4
    5dca:	3201      	adds	r2, #1
    5dcc:	601f      	str	r7, [r3, #0]
    5dce:	3110      	adds	r1, #16
    5dd0:	2a07      	cmp	r2, #7
    5dd2:	9139      	str	r1, [sp, #228]	; 0xe4
    5dd4:	f103 0308 	add.w	r3, r3, #8
    5dd8:	9238      	str	r2, [sp, #224]	; 0xe0
    5dda:	ddef      	ble.n	5dbc <_svfprintf_r+0x970>
    5ddc:	9809      	ldr	r0, [sp, #36]	; 0x24
    5dde:	4659      	mov	r1, fp
    5de0:	4642      	mov	r2, r8
    5de2:	f7ff faa5 	bl	5330 <__sprint_r>
    5de6:	464b      	mov	r3, r9
    5de8:	2800      	cmp	r0, #0
    5dea:	d0e7      	beq.n	5dbc <_svfprintf_r+0x970>
    5dec:	e47c      	b.n	56e8 <_svfprintf_r+0x29c>
    5dee:	9916      	ldr	r1, [sp, #88]	; 0x58
    5df0:	2200      	movs	r2, #0
    5df2:	920e      	str	r2, [sp, #56]	; 0x38
    5df4:	9111      	str	r1, [sp, #68]	; 0x44
    5df6:	e4d6      	b.n	57a6 <_svfprintf_r+0x35a>
    5df8:	990c      	ldr	r1, [sp, #48]	; 0x30
    5dfa:	9a0b      	ldr	r2, [sp, #44]	; 0x2c
    5dfc:	1a8e      	subs	r6, r1, r2
    5dfe:	2e00      	cmp	r6, #0
    5e00:	f77f ad48 	ble.w	5894 <_svfprintf_r+0x448>
    5e04:	2e10      	cmp	r6, #16
    5e06:	4f8a      	ldr	r7, [pc, #552]	; (6030 <_svfprintf_r+0xbe4>)
    5e08:	bfc8      	it	gt
    5e0a:	f04f 0810 	movgt.w	r8, #16
    5e0e:	dc03      	bgt.n	5e18 <_svfprintf_r+0x9cc>
    5e10:	e01b      	b.n	5e4a <_svfprintf_r+0x9fe>
    5e12:	3e10      	subs	r6, #16
    5e14:	2e10      	cmp	r6, #16
    5e16:	dd18      	ble.n	5e4a <_svfprintf_r+0x9fe>
    5e18:	f8c4 8004 	str.w	r8, [r4, #4]
    5e1c:	9b38      	ldr	r3, [sp, #224]	; 0xe0
    5e1e:	9a39      	ldr	r2, [sp, #228]	; 0xe4
    5e20:	3301      	adds	r3, #1
    5e22:	6027      	str	r7, [r4, #0]
    5e24:	3210      	adds	r2, #16
    5e26:	2b07      	cmp	r3, #7
    5e28:	9239      	str	r2, [sp, #228]	; 0xe4
    5e2a:	f104 0408 	add.w	r4, r4, #8
    5e2e:	9338      	str	r3, [sp, #224]	; 0xe0
    5e30:	ddef      	ble.n	5e12 <_svfprintf_r+0x9c6>
    5e32:	9809      	ldr	r0, [sp, #36]	; 0x24
    5e34:	4659      	mov	r1, fp
    5e36:	aa37      	add	r2, sp, #220	; 0xdc
    5e38:	464c      	mov	r4, r9
    5e3a:	f7ff fa79 	bl	5330 <__sprint_r>
    5e3e:	2800      	cmp	r0, #0
    5e40:	f47f ac52 	bne.w	56e8 <_svfprintf_r+0x29c>
    5e44:	3e10      	subs	r6, #16
    5e46:	2e10      	cmp	r6, #16
    5e48:	dce6      	bgt.n	5e18 <_svfprintf_r+0x9cc>
    5e4a:	6066      	str	r6, [r4, #4]
    5e4c:	9b38      	ldr	r3, [sp, #224]	; 0xe0
    5e4e:	6027      	str	r7, [r4, #0]
    5e50:	1c5a      	adds	r2, r3, #1
    5e52:	9b39      	ldr	r3, [sp, #228]	; 0xe4
    5e54:	9238      	str	r2, [sp, #224]	; 0xe0
    5e56:	199b      	adds	r3, r3, r6
    5e58:	2a07      	cmp	r2, #7
    5e5a:	9339      	str	r3, [sp, #228]	; 0xe4
    5e5c:	f300 8188 	bgt.w	6170 <_svfprintf_r+0xd24>
    5e60:	3408      	adds	r4, #8
    5e62:	e517      	b.n	5894 <_svfprintf_r+0x448>
    5e64:	605e      	str	r6, [r3, #4]
    5e66:	9a38      	ldr	r2, [sp, #224]	; 0xe0
    5e68:	601f      	str	r7, [r3, #0]
    5e6a:	9b39      	ldr	r3, [sp, #228]	; 0xe4
    5e6c:	3201      	adds	r2, #1
    5e6e:	9238      	str	r2, [sp, #224]	; 0xe0
    5e70:	18f3      	adds	r3, r6, r3
    5e72:	2a07      	cmp	r2, #7
    5e74:	9339      	str	r3, [sp, #228]	; 0xe4
    5e76:	f77f ad60 	ble.w	593a <_svfprintf_r+0x4ee>
    5e7a:	9809      	ldr	r0, [sp, #36]	; 0x24
    5e7c:	4659      	mov	r1, fp
    5e7e:	aa37      	add	r2, sp, #220	; 0xdc
    5e80:	f7ff fa56 	bl	5330 <__sprint_r>
    5e84:	2800      	cmp	r0, #0
    5e86:	f43f ad57 	beq.w	5938 <_svfprintf_r+0x4ec>
    5e8a:	e42d      	b.n	56e8 <_svfprintf_r+0x29c>
    5e8c:	9809      	ldr	r0, [sp, #36]	; 0x24
    5e8e:	4659      	mov	r1, fp
    5e90:	aa37      	add	r2, sp, #220	; 0xdc
    5e92:	f7ff fa4d 	bl	5330 <__sprint_r>
    5e96:	2800      	cmp	r0, #0
    5e98:	f43f ad5a 	beq.w	5950 <_svfprintf_r+0x504>
    5e9c:	e424      	b.n	56e8 <_svfprintf_r+0x29c>
    5e9e:	f01a 0f01 	tst.w	sl, #1
    5ea2:	f47f abaa 	bne.w	55fa <_svfprintf_r+0x1ae>
    5ea6:	2301      	movs	r3, #1
    5ea8:	6063      	str	r3, [r4, #4]
    5eaa:	9b38      	ldr	r3, [sp, #224]	; 0xe0
    5eac:	9a39      	ldr	r2, [sp, #228]	; 0xe4
    5eae:	3301      	adds	r3, #1
    5eb0:	9911      	ldr	r1, [sp, #68]	; 0x44
    5eb2:	3201      	adds	r2, #1
    5eb4:	2b07      	cmp	r3, #7
    5eb6:	9239      	str	r2, [sp, #228]	; 0xe4
    5eb8:	6021      	str	r1, [r4, #0]
    5eba:	9338      	str	r3, [sp, #224]	; 0xe0
    5ebc:	f77f abd1 	ble.w	5662 <_svfprintf_r+0x216>
    5ec0:	9809      	ldr	r0, [sp, #36]	; 0x24
    5ec2:	4659      	mov	r1, fp
    5ec4:	aa37      	add	r2, sp, #220	; 0xdc
    5ec6:	f7ff fa33 	bl	5330 <__sprint_r>
    5eca:	2800      	cmp	r0, #0
    5ecc:	f47f ac0c 	bne.w	56e8 <_svfprintf_r+0x29c>
    5ed0:	464c      	mov	r4, r9
    5ed2:	f7ff bbc7 	b.w	5664 <_svfprintf_r+0x218>
    5ed6:	9809      	ldr	r0, [sp, #36]	; 0x24
    5ed8:	4659      	mov	r1, fp
    5eda:	aa37      	add	r2, sp, #220	; 0xdc
    5edc:	f7ff fa28 	bl	5330 <__sprint_r>
    5ee0:	2800      	cmp	r0, #0
    5ee2:	f47f ac01 	bne.w	56e8 <_svfprintf_r+0x29c>
    5ee6:	464c      	mov	r4, r9
    5ee8:	e508      	b.n	58fc <_svfprintf_r+0x4b0>
    5eea:	9809      	ldr	r0, [sp, #36]	; 0x24
    5eec:	4659      	mov	r1, fp
    5eee:	aa37      	add	r2, sp, #220	; 0xdc
    5ef0:	f7ff fa1e 	bl	5330 <__sprint_r>
    5ef4:	2800      	cmp	r0, #0
    5ef6:	f47f abf7 	bne.w	56e8 <_svfprintf_r+0x29c>
    5efa:	464c      	mov	r4, r9
    5efc:	e4b6      	b.n	586c <_svfprintf_r+0x420>
    5efe:	9809      	ldr	r0, [sp, #36]	; 0x24
    5f00:	4659      	mov	r1, fp
    5f02:	aa37      	add	r2, sp, #220	; 0xdc
    5f04:	f7ff fa14 	bl	5330 <__sprint_r>
    5f08:	2800      	cmp	r0, #0
    5f0a:	f47f abed 	bne.w	56e8 <_svfprintf_r+0x29c>
    5f0e:	464c      	mov	r4, r9
    5f10:	e4bc      	b.n	588c <_svfprintf_r+0x440>
    5f12:	9b42      	ldr	r3, [sp, #264]	; 0x108
    5f14:	2b00      	cmp	r3, #0
    5f16:	f340 81d9 	ble.w	62cc <_svfprintf_r+0xe80>
    5f1a:	9918      	ldr	r1, [sp, #96]	; 0x60
    5f1c:	428b      	cmp	r3, r1
    5f1e:	f2c0 816f 	blt.w	6200 <_svfprintf_r+0xdb4>
    5f22:	9a11      	ldr	r2, [sp, #68]	; 0x44
    5f24:	6061      	str	r1, [r4, #4]
    5f26:	9b38      	ldr	r3, [sp, #224]	; 0xe0
    5f28:	6022      	str	r2, [r4, #0]
    5f2a:	9a39      	ldr	r2, [sp, #228]	; 0xe4
    5f2c:	3301      	adds	r3, #1
    5f2e:	9338      	str	r3, [sp, #224]	; 0xe0
    5f30:	1852      	adds	r2, r2, r1
    5f32:	2b07      	cmp	r3, #7
    5f34:	9239      	str	r2, [sp, #228]	; 0xe4
    5f36:	bfd8      	it	le
    5f38:	f104 0308 	addle.w	r3, r4, #8
    5f3c:	f300 83ba 	bgt.w	66b4 <_svfprintf_r+0x1268>
    5f40:	9c42      	ldr	r4, [sp, #264]	; 0x108
    5f42:	9818      	ldr	r0, [sp, #96]	; 0x60
    5f44:	1a24      	subs	r4, r4, r0
    5f46:	2c00      	cmp	r4, #0
    5f48:	f340 819b 	ble.w	6282 <_svfprintf_r+0xe36>
    5f4c:	2c10      	cmp	r4, #16
    5f4e:	4f38      	ldr	r7, [pc, #224]	; (6030 <_svfprintf_r+0xbe4>)
    5f50:	f340 818b 	ble.w	626a <_svfprintf_r+0xe1e>
    5f54:	f8cd a038 	str.w	sl, [sp, #56]	; 0x38
    5f58:	2610      	movs	r6, #16
    5f5a:	46aa      	mov	sl, r5
    5f5c:	f10d 08dc 	add.w	r8, sp, #220	; 0xdc
    5f60:	9d09      	ldr	r5, [sp, #36]	; 0x24
    5f62:	e003      	b.n	5f6c <_svfprintf_r+0xb20>
    5f64:	3c10      	subs	r4, #16
    5f66:	2c10      	cmp	r4, #16
    5f68:	f340 817c 	ble.w	6264 <_svfprintf_r+0xe18>
    5f6c:	605e      	str	r6, [r3, #4]
    5f6e:	9a38      	ldr	r2, [sp, #224]	; 0xe0
    5f70:	9939      	ldr	r1, [sp, #228]	; 0xe4
    5f72:	3201      	adds	r2, #1
    5f74:	601f      	str	r7, [r3, #0]
    5f76:	3110      	adds	r1, #16
    5f78:	2a07      	cmp	r2, #7
    5f7a:	9139      	str	r1, [sp, #228]	; 0xe4
    5f7c:	f103 0308 	add.w	r3, r3, #8
    5f80:	9238      	str	r2, [sp, #224]	; 0xe0
    5f82:	ddef      	ble.n	5f64 <_svfprintf_r+0xb18>
    5f84:	4628      	mov	r0, r5
    5f86:	4659      	mov	r1, fp
    5f88:	4642      	mov	r2, r8
    5f8a:	f7ff f9d1 	bl	5330 <__sprint_r>
    5f8e:	464b      	mov	r3, r9
    5f90:	2800      	cmp	r0, #0
    5f92:	d0e7      	beq.n	5f64 <_svfprintf_r+0xb18>
    5f94:	f7ff bba8 	b.w	56e8 <_svfprintf_r+0x29c>
    5f98:	9816      	ldr	r0, [sp, #88]	; 0x58
    5f9a:	f8dd c05c 	ldr.w	ip, [sp, #92]	; 0x5c
    5f9e:	4603      	mov	r3, r0
    5fa0:	9011      	str	r0, [sp, #68]	; 0x44
    5fa2:	0931      	lsrs	r1, r6, #4
    5fa4:	f006 020f 	and.w	r2, r6, #15
    5fa8:	ea41 7107 	orr.w	r1, r1, r7, lsl #28
    5fac:	0938      	lsrs	r0, r7, #4
    5fae:	f81c 2002 	ldrb.w	r2, [ip, r2]
    5fb2:	460e      	mov	r6, r1
    5fb4:	4607      	mov	r7, r0
    5fb6:	ea56 0107 	orrs.w	r1, r6, r7
    5fba:	f803 2d01 	strb.w	r2, [r3, #-1]!
    5fbe:	d1f0      	bne.n	5fa2 <_svfprintf_r+0xb56>
    5fc0:	9a16      	ldr	r2, [sp, #88]	; 0x58
    5fc2:	9311      	str	r3, [sp, #68]	; 0x44
    5fc4:	1ad2      	subs	r2, r2, r3
    5fc6:	920e      	str	r2, [sp, #56]	; 0x38
    5fc8:	f7ff bbed 	b.w	57a6 <_svfprintf_r+0x35a>
    5fcc:	2300      	movs	r3, #0
    5fce:	2209      	movs	r2, #9
    5fd0:	42b2      	cmp	r2, r6
    5fd2:	eb73 0007 	sbcs.w	r0, r3, r7
    5fd6:	9b16      	ldr	r3, [sp, #88]	; 0x58
    5fd8:	bf3e      	ittt	cc
    5fda:	f8cd 802c 	strcc.w	r8, [sp, #44]	; 0x2c
    5fde:	46a0      	movcc	r8, r4
    5fe0:	461c      	movcc	r4, r3
    5fe2:	d21a      	bcs.n	601a <_svfprintf_r+0xbce>
    5fe4:	4630      	mov	r0, r6
    5fe6:	4639      	mov	r1, r7
    5fe8:	220a      	movs	r2, #10
    5fea:	2300      	movs	r3, #0
    5fec:	f003 ff64 	bl	9eb8 <__aeabi_uldivmod>
    5ff0:	4630      	mov	r0, r6
    5ff2:	4639      	mov	r1, r7
    5ff4:	2300      	movs	r3, #0
    5ff6:	f102 0c30 	add.w	ip, r2, #48	; 0x30
    5ffa:	220a      	movs	r2, #10
    5ffc:	f804 cd01 	strb.w	ip, [r4, #-1]!
    6000:	f003 ff5a 	bl	9eb8 <__aeabi_uldivmod>
    6004:	4606      	mov	r6, r0
    6006:	460f      	mov	r7, r1
    6008:	2009      	movs	r0, #9
    600a:	2100      	movs	r1, #0
    600c:	42b0      	cmp	r0, r6
    600e:	41b9      	sbcs	r1, r7
    6010:	d3e8      	bcc.n	5fe4 <_svfprintf_r+0xb98>
    6012:	4623      	mov	r3, r4
    6014:	4644      	mov	r4, r8
    6016:	f8dd 802c 	ldr.w	r8, [sp, #44]	; 0x2c
    601a:	1e5a      	subs	r2, r3, #1
    601c:	3630      	adds	r6, #48	; 0x30
    601e:	9211      	str	r2, [sp, #68]	; 0x44
    6020:	f803 6c01 	strb.w	r6, [r3, #-1]
    6024:	9b16      	ldr	r3, [sp, #88]	; 0x58
    6026:	1a9b      	subs	r3, r3, r2
    6028:	930e      	str	r3, [sp, #56]	; 0x38
    602a:	f7ff bbbc 	b.w	57a6 <_svfprintf_r+0x35a>
    602e:	bf00      	nop
    6030:	0000b174 	.word	0x0000b174
    6034:	9809      	ldr	r0, [sp, #36]	; 0x24
    6036:	4659      	mov	r1, fp
    6038:	aa37      	add	r2, sp, #220	; 0xdc
    603a:	f7ff f979 	bl	5330 <__sprint_r>
    603e:	2800      	cmp	r0, #0
    6040:	f47f ab52 	bne.w	56e8 <_svfprintf_r+0x29c>
    6044:	464c      	mov	r4, r9
    6046:	f7ff bbff 	b.w	5848 <_svfprintf_r+0x3fc>
    604a:	9818      	ldr	r0, [sp, #96]	; 0x60
    604c:	1e46      	subs	r6, r0, #1
    604e:	2e00      	cmp	r6, #0
    6050:	f77f ab08 	ble.w	5664 <_svfprintf_r+0x218>
    6054:	2e10      	cmp	r6, #16
    6056:	4f9c      	ldr	r7, [pc, #624]	; (62c8 <_svfprintf_r+0xe7c>)
    6058:	bfc8      	it	gt
    605a:	f04f 0810 	movgt.w	r8, #16
    605e:	dc03      	bgt.n	6068 <_svfprintf_r+0xc1c>
    6060:	e01b      	b.n	609a <_svfprintf_r+0xc4e>
    6062:	3e10      	subs	r6, #16
    6064:	2e10      	cmp	r6, #16
    6066:	dd18      	ble.n	609a <_svfprintf_r+0xc4e>
    6068:	f8c4 8004 	str.w	r8, [r4, #4]
    606c:	9b38      	ldr	r3, [sp, #224]	; 0xe0
    606e:	9a39      	ldr	r2, [sp, #228]	; 0xe4
    6070:	3301      	adds	r3, #1
    6072:	6027      	str	r7, [r4, #0]
    6074:	3210      	adds	r2, #16
    6076:	2b07      	cmp	r3, #7
    6078:	9239      	str	r2, [sp, #228]	; 0xe4
    607a:	f104 0408 	add.w	r4, r4, #8
    607e:	9338      	str	r3, [sp, #224]	; 0xe0
    6080:	ddef      	ble.n	6062 <_svfprintf_r+0xc16>
    6082:	9809      	ldr	r0, [sp, #36]	; 0x24
    6084:	4659      	mov	r1, fp
    6086:	aa37      	add	r2, sp, #220	; 0xdc
    6088:	464c      	mov	r4, r9
    608a:	f7ff f951 	bl	5330 <__sprint_r>
    608e:	2800      	cmp	r0, #0
    6090:	f47f ab2a 	bne.w	56e8 <_svfprintf_r+0x29c>
    6094:	3e10      	subs	r6, #16
    6096:	2e10      	cmp	r6, #16
    6098:	dce6      	bgt.n	6068 <_svfprintf_r+0xc1c>
    609a:	6066      	str	r6, [r4, #4]
    609c:	9b38      	ldr	r3, [sp, #224]	; 0xe0
    609e:	9a39      	ldr	r2, [sp, #228]	; 0xe4
    60a0:	3301      	adds	r3, #1
    60a2:	6027      	str	r7, [r4, #0]
    60a4:	1992      	adds	r2, r2, r6
    60a6:	2b07      	cmp	r3, #7
    60a8:	9239      	str	r2, [sp, #228]	; 0xe4
    60aa:	9338      	str	r3, [sp, #224]	; 0xe0
    60ac:	f77f aad9 	ble.w	5662 <_svfprintf_r+0x216>
    60b0:	e706      	b.n	5ec0 <_svfprintf_r+0xa74>
    60b2:	9814      	ldr	r0, [sp, #80]	; 0x50
    60b4:	2130      	movs	r1, #48	; 0x30
    60b6:	f04a 0a02 	orr.w	sl, sl, #2
    60ba:	2201      	movs	r2, #1
    60bc:	2302      	movs	r3, #2
    60be:	f88d 110c 	strb.w	r1, [sp, #268]	; 0x10c
    60c2:	f88d 010d 	strb.w	r0, [sp, #269]	; 0x10d
    60c6:	f7ff bb39 	b.w	573c <_svfprintf_r+0x2f0>
    60ca:	9a0a      	ldr	r2, [sp, #40]	; 0x28
    60cc:	1d13      	adds	r3, r2, #4
    60ce:	6816      	ldr	r6, [r2, #0]
    60d0:	930a      	str	r3, [sp, #40]	; 0x28
    60d2:	4636      	mov	r6, r6
    60d4:	ea4f 77e6 	mov.w	r7, r6, asr #31
    60d8:	2e00      	cmp	r6, #0
    60da:	f177 0000 	sbcs.w	r0, r7, #0
    60de:	f6bf ac8a 	bge.w	59f6 <_svfprintf_r+0x5aa>
    60e2:	4276      	negs	r6, r6
    60e4:	eb67 0747 	sbc.w	r7, r7, r7, lsl #1
    60e8:	232d      	movs	r3, #45	; 0x2d
    60ea:	ea56 0207 	orrs.w	r2, r6, r7
    60ee:	f88d 310f 	strb.w	r3, [sp, #271]	; 0x10f
    60f2:	bf0c      	ite	eq
    60f4:	2200      	moveq	r2, #0
    60f6:	2201      	movne	r2, #1
    60f8:	2301      	movs	r3, #1
    60fa:	f7ff bb23 	b.w	5744 <_svfprintf_r+0x2f8>
    60fe:	9b0a      	ldr	r3, [sp, #40]	; 0x28
    6100:	1d18      	adds	r0, r3, #4
    6102:	681e      	ldr	r6, [r3, #0]
    6104:	900a      	str	r0, [sp, #40]	; 0x28
    6106:	4636      	mov	r6, r6
    6108:	f04f 0700 	mov.w	r7, #0
    610c:	f7ff bb0c 	b.w	5728 <_svfprintf_r+0x2dc>
    6110:	9a0a      	ldr	r2, [sp, #40]	; 0x28
    6112:	1d13      	adds	r3, r2, #4
    6114:	6816      	ldr	r6, [r2, #0]
    6116:	930a      	str	r3, [sp, #40]	; 0x28
    6118:	2301      	movs	r3, #1
    611a:	1e32      	subs	r2, r6, #0
    611c:	bf18      	it	ne
    611e:	2201      	movne	r2, #1
    6120:	4636      	mov	r6, r6
    6122:	f04f 0700 	mov.w	r7, #0
    6126:	f7ff bb09 	b.w	573c <_svfprintf_r+0x2f0>
    612a:	9809      	ldr	r0, [sp, #36]	; 0x24
    612c:	4659      	mov	r1, fp
    612e:	aa37      	add	r2, sp, #220	; 0xdc
    6130:	f7ff f8fe 	bl	5330 <__sprint_r>
    6134:	2800      	cmp	r0, #0
    6136:	f47f aad7 	bne.w	56e8 <_svfprintf_r+0x29c>
    613a:	464c      	mov	r4, r9
    613c:	f7ff ba79 	b.w	5632 <_svfprintf_r+0x1e6>
    6140:	9809      	ldr	r0, [sp, #36]	; 0x24
    6142:	4659      	mov	r1, fp
    6144:	aa37      	add	r2, sp, #220	; 0xdc
    6146:	f7ff f8f3 	bl	5330 <__sprint_r>
    614a:	2800      	cmp	r0, #0
    614c:	f47f aacc 	bne.w	56e8 <_svfprintf_r+0x29c>
    6150:	464c      	mov	r4, r9
    6152:	f7ff ba60 	b.w	5616 <_svfprintf_r+0x1ca>
    6156:	2830      	cmp	r0, #48	; 0x30
    6158:	f000 8296 	beq.w	6688 <_svfprintf_r+0x123c>
    615c:	9a11      	ldr	r2, [sp, #68]	; 0x44
    615e:	2330      	movs	r3, #48	; 0x30
    6160:	f802 3d01 	strb.w	r3, [r2, #-1]!
    6164:	9b16      	ldr	r3, [sp, #88]	; 0x58
    6166:	9211      	str	r2, [sp, #68]	; 0x44
    6168:	1a9b      	subs	r3, r3, r2
    616a:	930e      	str	r3, [sp, #56]	; 0x38
    616c:	f7ff bb1b 	b.w	57a6 <_svfprintf_r+0x35a>
    6170:	9809      	ldr	r0, [sp, #36]	; 0x24
    6172:	4659      	mov	r1, fp
    6174:	aa37      	add	r2, sp, #220	; 0xdc
    6176:	f7ff f8db 	bl	5330 <__sprint_r>
    617a:	2800      	cmp	r0, #0
    617c:	f47f aab4 	bne.w	56e8 <_svfprintf_r+0x29c>
    6180:	464c      	mov	r4, r9
    6182:	f7ff bb87 	b.w	5894 <_svfprintf_r+0x448>
    6186:	605e      	str	r6, [r3, #4]
    6188:	9a38      	ldr	r2, [sp, #224]	; 0xe0
    618a:	9939      	ldr	r1, [sp, #228]	; 0xe4
    618c:	3201      	adds	r2, #1
    618e:	601f      	str	r7, [r3, #0]
    6190:	1989      	adds	r1, r1, r6
    6192:	2a07      	cmp	r2, #7
    6194:	9139      	str	r1, [sp, #228]	; 0xe4
    6196:	9238      	str	r2, [sp, #224]	; 0xe0
    6198:	f73f abc1 	bgt.w	591e <_svfprintf_r+0x4d2>
    619c:	3308      	adds	r3, #8
    619e:	f7ff ba71 	b.w	5684 <_svfprintf_r+0x238>
    61a2:	990a      	ldr	r1, [sp, #40]	; 0x28
    61a4:	462b      	mov	r3, r5
    61a6:	782a      	ldrb	r2, [r5, #0]
    61a8:	910a      	str	r1, [sp, #40]	; 0x28
    61aa:	f7ff b9b8 	b.w	551e <_svfprintf_r+0xd2>
    61ae:	f01a 0f10 	tst.w	sl, #16
    61b2:	f000 81cd 	beq.w	6550 <_svfprintf_r+0x1104>
    61b6:	980a      	ldr	r0, [sp, #40]	; 0x28
    61b8:	990d      	ldr	r1, [sp, #52]	; 0x34
    61ba:	f100 0a04 	add.w	sl, r0, #4
    61be:	6803      	ldr	r3, [r0, #0]
    61c0:	6019      	str	r1, [r3, #0]
    61c2:	f7ff b96d 	b.w	54a0 <_svfprintf_r+0x54>
    61c6:	9a0a      	ldr	r2, [sp, #40]	; 0x28
    61c8:	1dd3      	adds	r3, r2, #7
    61ca:	f023 0307 	bic.w	r3, r3, #7
    61ce:	f103 0008 	add.w	r0, r3, #8
    61d2:	900a      	str	r0, [sp, #40]	; 0x28
    61d4:	685e      	ldr	r6, [r3, #4]
    61d6:	681f      	ldr	r7, [r3, #0]
    61d8:	9619      	str	r6, [sp, #100]	; 0x64
    61da:	9710      	str	r7, [sp, #64]	; 0x40
    61dc:	e43f      	b.n	5a5e <_svfprintf_r+0x612>
    61de:	f01a 0340 	ands.w	r3, sl, #64	; 0x40
    61e2:	f000 81a9 	beq.w	6538 <_svfprintf_r+0x10ec>
    61e6:	990a      	ldr	r1, [sp, #40]	; 0x28
    61e8:	4613      	mov	r3, r2
    61ea:	1d0a      	adds	r2, r1, #4
    61ec:	920a      	str	r2, [sp, #40]	; 0x28
    61ee:	880e      	ldrh	r6, [r1, #0]
    61f0:	1e32      	subs	r2, r6, #0
    61f2:	bf18      	it	ne
    61f4:	2201      	movne	r2, #1
    61f6:	4636      	mov	r6, r6
    61f8:	f04f 0700 	mov.w	r7, #0
    61fc:	f7ff ba9e 	b.w	573c <_svfprintf_r+0x2f0>
    6200:	9a11      	ldr	r2, [sp, #68]	; 0x44
    6202:	6063      	str	r3, [r4, #4]
    6204:	9938      	ldr	r1, [sp, #224]	; 0xe0
    6206:	6022      	str	r2, [r4, #0]
    6208:	9a39      	ldr	r2, [sp, #228]	; 0xe4
    620a:	3101      	adds	r1, #1
    620c:	9138      	str	r1, [sp, #224]	; 0xe0
    620e:	18d3      	adds	r3, r2, r3
    6210:	2907      	cmp	r1, #7
    6212:	9339      	str	r3, [sp, #228]	; 0xe4
    6214:	f300 8262 	bgt.w	66dc <_svfprintf_r+0x1290>
    6218:	3408      	adds	r4, #8
    621a:	2301      	movs	r3, #1
    621c:	9e42      	ldr	r6, [sp, #264]	; 0x108
    621e:	6063      	str	r3, [r4, #4]
    6220:	9b38      	ldr	r3, [sp, #224]	; 0xe0
    6222:	9a39      	ldr	r2, [sp, #228]	; 0xe4
    6224:	3301      	adds	r3, #1
    6226:	981b      	ldr	r0, [sp, #108]	; 0x6c
    6228:	3201      	adds	r2, #1
    622a:	2b07      	cmp	r3, #7
    622c:	9338      	str	r3, [sp, #224]	; 0xe0
    622e:	bfd8      	it	le
    6230:	f104 0308 	addle.w	r3, r4, #8
    6234:	6020      	str	r0, [r4, #0]
    6236:	9239      	str	r2, [sp, #228]	; 0xe4
    6238:	f300 8246 	bgt.w	66c8 <_svfprintf_r+0x127c>
    623c:	9a42      	ldr	r2, [sp, #264]	; 0x108
    623e:	9911      	ldr	r1, [sp, #68]	; 0x44
    6240:	9818      	ldr	r0, [sp, #96]	; 0x60
    6242:	198e      	adds	r6, r1, r6
    6244:	601e      	str	r6, [r3, #0]
    6246:	1a81      	subs	r1, r0, r2
    6248:	6059      	str	r1, [r3, #4]
    624a:	9939      	ldr	r1, [sp, #228]	; 0xe4
    624c:	1a8a      	subs	r2, r1, r2
    624e:	9938      	ldr	r1, [sp, #224]	; 0xe0
    6250:	1812      	adds	r2, r2, r0
    6252:	9239      	str	r2, [sp, #228]	; 0xe4
    6254:	3101      	adds	r1, #1
    6256:	9138      	str	r1, [sp, #224]	; 0xe0
    6258:	2907      	cmp	r1, #7
    625a:	f73f ab60 	bgt.w	591e <_svfprintf_r+0x4d2>
    625e:	3308      	adds	r3, #8
    6260:	f7ff ba10 	b.w	5684 <_svfprintf_r+0x238>
    6264:	4655      	mov	r5, sl
    6266:	f8dd a038 	ldr.w	sl, [sp, #56]	; 0x38
    626a:	605c      	str	r4, [r3, #4]
    626c:	9a38      	ldr	r2, [sp, #224]	; 0xe0
    626e:	9939      	ldr	r1, [sp, #228]	; 0xe4
    6270:	3201      	adds	r2, #1
    6272:	601f      	str	r7, [r3, #0]
    6274:	1909      	adds	r1, r1, r4
    6276:	2a07      	cmp	r2, #7
    6278:	9139      	str	r1, [sp, #228]	; 0xe4
    627a:	9238      	str	r2, [sp, #224]	; 0xe0
    627c:	f300 827f 	bgt.w	677e <_svfprintf_r+0x1332>
    6280:	3308      	adds	r3, #8
    6282:	f01a 0f01 	tst.w	sl, #1
    6286:	f43f a9fd 	beq.w	5684 <_svfprintf_r+0x238>
    628a:	991b      	ldr	r1, [sp, #108]	; 0x6c
    628c:	2201      	movs	r2, #1
    628e:	605a      	str	r2, [r3, #4]
    6290:	9a38      	ldr	r2, [sp, #224]	; 0xe0
    6292:	6019      	str	r1, [r3, #0]
    6294:	9939      	ldr	r1, [sp, #228]	; 0xe4
    6296:	3201      	adds	r2, #1
    6298:	9238      	str	r2, [sp, #224]	; 0xe0
    629a:	3101      	adds	r1, #1
    629c:	2a07      	cmp	r2, #7
    629e:	9139      	str	r1, [sp, #228]	; 0xe4
    62a0:	f73f ab3d 	bgt.w	591e <_svfprintf_r+0x4d2>
    62a4:	3308      	adds	r3, #8
    62a6:	f7ff b9ed 	b.w	5684 <_svfprintf_r+0x238>
    62aa:	232d      	movs	r3, #45	; 0x2d
    62ac:	f88d 310f 	strb.w	r3, [sp, #271]	; 0x10f
    62b0:	f7ff bbe8 	b.w	5a84 <_svfprintf_r+0x638>
    62b4:	9809      	ldr	r0, [sp, #36]	; 0x24
    62b6:	4659      	mov	r1, fp
    62b8:	aa37      	add	r2, sp, #220	; 0xdc
    62ba:	f7ff f839 	bl	5330 <__sprint_r>
    62be:	2800      	cmp	r0, #0
    62c0:	f47f aa12 	bne.w	56e8 <_svfprintf_r+0x29c>
    62c4:	464b      	mov	r3, r9
    62c6:	e556      	b.n	5d76 <_svfprintf_r+0x92a>
    62c8:	0000b174 	.word	0x0000b174
    62cc:	2301      	movs	r3, #1
    62ce:	6063      	str	r3, [r4, #4]
    62d0:	9a38      	ldr	r2, [sp, #224]	; 0xe0
    62d2:	f24b 13c4 	movw	r3, #45508	; 0xb1c4
    62d6:	f2c0 0300 	movt	r3, #0
    62da:	6023      	str	r3, [r4, #0]
    62dc:	9b39      	ldr	r3, [sp, #228]	; 0xe4
    62de:	3201      	adds	r2, #1
    62e0:	9238      	str	r2, [sp, #224]	; 0xe0
    62e2:	3301      	adds	r3, #1
    62e4:	2a07      	cmp	r2, #7
    62e6:	9339      	str	r3, [sp, #228]	; 0xe4
    62e8:	bfd8      	it	le
    62ea:	f104 0308 	addle.w	r3, r4, #8
    62ee:	f300 8173 	bgt.w	65d8 <_svfprintf_r+0x118c>
    62f2:	9a42      	ldr	r2, [sp, #264]	; 0x108
    62f4:	b92a      	cbnz	r2, 6302 <_svfprintf_r+0xeb6>
    62f6:	9818      	ldr	r0, [sp, #96]	; 0x60
    62f8:	b918      	cbnz	r0, 6302 <_svfprintf_r+0xeb6>
    62fa:	f01a 0f01 	tst.w	sl, #1
    62fe:	f43f a9c1 	beq.w	5684 <_svfprintf_r+0x238>
    6302:	991b      	ldr	r1, [sp, #108]	; 0x6c
    6304:	2201      	movs	r2, #1
    6306:	605a      	str	r2, [r3, #4]
    6308:	9a38      	ldr	r2, [sp, #224]	; 0xe0
    630a:	6019      	str	r1, [r3, #0]
    630c:	9939      	ldr	r1, [sp, #228]	; 0xe4
    630e:	3201      	adds	r2, #1
    6310:	9238      	str	r2, [sp, #224]	; 0xe0
    6312:	3101      	adds	r1, #1
    6314:	2a07      	cmp	r2, #7
    6316:	9139      	str	r1, [sp, #228]	; 0xe4
    6318:	f300 8168 	bgt.w	65ec <_svfprintf_r+0x11a0>
    631c:	3308      	adds	r3, #8
    631e:	9c42      	ldr	r4, [sp, #264]	; 0x108
    6320:	4264      	negs	r4, r4
    6322:	2c00      	cmp	r4, #0
    6324:	f340 8187 	ble.w	6636 <_svfprintf_r+0x11ea>
    6328:	2c10      	cmp	r4, #16
    632a:	4f9e      	ldr	r7, [pc, #632]	; (65a4 <_svfprintf_r+0x1158>)
    632c:	f340 81a0 	ble.w	6670 <_svfprintf_r+0x1224>
    6330:	2610      	movs	r6, #16
    6332:	f10d 08dc 	add.w	r8, sp, #220	; 0xdc
    6336:	e003      	b.n	6340 <_svfprintf_r+0xef4>
    6338:	3c10      	subs	r4, #16
    633a:	2c10      	cmp	r4, #16
    633c:	f340 8198 	ble.w	6670 <_svfprintf_r+0x1224>
    6340:	605e      	str	r6, [r3, #4]
    6342:	9a38      	ldr	r2, [sp, #224]	; 0xe0
    6344:	9939      	ldr	r1, [sp, #228]	; 0xe4
    6346:	3201      	adds	r2, #1
    6348:	601f      	str	r7, [r3, #0]
    634a:	3110      	adds	r1, #16
    634c:	2a07      	cmp	r2, #7
    634e:	9139      	str	r1, [sp, #228]	; 0xe4
    6350:	f103 0308 	add.w	r3, r3, #8
    6354:	9238      	str	r2, [sp, #224]	; 0xe0
    6356:	ddef      	ble.n	6338 <_svfprintf_r+0xeec>
    6358:	9809      	ldr	r0, [sp, #36]	; 0x24
    635a:	4659      	mov	r1, fp
    635c:	4642      	mov	r2, r8
    635e:	f7fe ffe7 	bl	5330 <__sprint_r>
    6362:	464b      	mov	r3, r9
    6364:	2800      	cmp	r0, #0
    6366:	d0e7      	beq.n	6338 <_svfprintf_r+0xeec>
    6368:	f7ff b9be 	b.w	56e8 <_svfprintf_r+0x29c>
    636c:	9b39      	ldr	r3, [sp, #228]	; 0xe4
    636e:	465e      	mov	r6, fp
    6370:	2b00      	cmp	r3, #0
    6372:	f43f a9ba 	beq.w	56ea <_svfprintf_r+0x29e>
    6376:	9809      	ldr	r0, [sp, #36]	; 0x24
    6378:	4659      	mov	r1, fp
    637a:	aa37      	add	r2, sp, #220	; 0xdc
    637c:	f7fe ffd8 	bl	5330 <__sprint_r>
    6380:	f7ff b9b3 	b.w	56ea <_svfprintf_r+0x29e>
    6384:	990a      	ldr	r1, [sp, #40]	; 0x28
    6386:	f04a 0a20 	orr.w	sl, sl, #32
    638a:	786a      	ldrb	r2, [r5, #1]
    638c:	1c6b      	adds	r3, r5, #1
    638e:	910a      	str	r1, [sp, #40]	; 0x28
    6390:	f7ff b8c5 	b.w	551e <_svfprintf_r+0xd2>
    6394:	4638      	mov	r0, r7
    6396:	4631      	mov	r1, r6
    6398:	9308      	str	r3, [sp, #32]
    639a:	f002 fdfb 	bl	8f94 <__isnand>
    639e:	9b08      	ldr	r3, [sp, #32]
    63a0:	2800      	cmp	r0, #0
    63a2:	f040 8101 	bne.w	65a8 <_svfprintf_r+0x115c>
    63a6:	f1b8 3fff 	cmp.w	r8, #4294967295
    63aa:	bf08      	it	eq
    63ac:	f108 0807 	addeq.w	r8, r8, #7
    63b0:	d00e      	beq.n	63d0 <_svfprintf_r+0xf84>
    63b2:	9a14      	ldr	r2, [sp, #80]	; 0x50
    63b4:	2a67      	cmp	r2, #103	; 0x67
    63b6:	bf14      	ite	ne
    63b8:	2300      	movne	r3, #0
    63ba:	2301      	moveq	r3, #1
    63bc:	2a47      	cmp	r2, #71	; 0x47
    63be:	bf08      	it	eq
    63c0:	f043 0301 	orreq.w	r3, r3, #1
    63c4:	b123      	cbz	r3, 63d0 <_svfprintf_r+0xf84>
    63c6:	f1b8 0f00 	cmp.w	r8, #0
    63ca:	bf08      	it	eq
    63cc:	f04f 0801 	moveq.w	r8, #1
    63d0:	4633      	mov	r3, r6
    63d2:	463a      	mov	r2, r7
    63d4:	e9cd 233a 	strd	r2, r3, [sp, #232]	; 0xe8
    63d8:	f44a 7a80 	orr.w	sl, sl, #256	; 0x100
    63dc:	9b3b      	ldr	r3, [sp, #236]	; 0xec
    63de:	2b00      	cmp	r3, #0
    63e0:	f2c0 820a 	blt.w	67f8 <_svfprintf_r+0x13ac>
    63e4:	2300      	movs	r3, #0
    63e6:	9315      	str	r3, [sp, #84]	; 0x54
    63e8:	9914      	ldr	r1, [sp, #80]	; 0x50
    63ea:	2966      	cmp	r1, #102	; 0x66
    63ec:	bf14      	ite	ne
    63ee:	2300      	movne	r3, #0
    63f0:	2301      	moveq	r3, #1
    63f2:	2946      	cmp	r1, #70	; 0x46
    63f4:	bf08      	it	eq
    63f6:	f043 0301 	orreq.w	r3, r3, #1
    63fa:	9312      	str	r3, [sp, #72]	; 0x48
    63fc:	2b00      	cmp	r3, #0
    63fe:	f000 818a 	beq.w	6716 <_svfprintf_r+0x12ca>
    6402:	2303      	movs	r3, #3
    6404:	f8cd 802c 	str.w	r8, [sp, #44]	; 0x2c
    6408:	990b      	ldr	r1, [sp, #44]	; 0x2c
    640a:	970e      	str	r7, [sp, #56]	; 0x38
    640c:	960f      	str	r6, [sp, #60]	; 0x3c
    640e:	9300      	str	r3, [sp, #0]
    6410:	9809      	ldr	r0, [sp, #36]	; 0x24
    6412:	e9dd 230e 	ldrd	r2, r3, [sp, #56]	; 0x38
    6416:	9101      	str	r1, [sp, #4]
    6418:	a942      	add	r1, sp, #264	; 0x108
    641a:	9102      	str	r1, [sp, #8]
    641c:	a941      	add	r1, sp, #260	; 0x104
    641e:	9103      	str	r1, [sp, #12]
    6420:	a940      	add	r1, sp, #256	; 0x100
    6422:	9104      	str	r1, [sp, #16]
    6424:	f000 fae8 	bl	69f8 <_dtoa_r>
    6428:	9a14      	ldr	r2, [sp, #80]	; 0x50
    642a:	f1b2 0367 	subs.w	r3, r2, #103	; 0x67
    642e:	bf18      	it	ne
    6430:	2301      	movne	r3, #1
    6432:	2a47      	cmp	r2, #71	; 0x47
    6434:	bf0c      	ite	eq
    6436:	2300      	moveq	r3, #0
    6438:	f003 0301 	andne.w	r3, r3, #1
    643c:	9011      	str	r0, [sp, #68]	; 0x44
    643e:	b92b      	cbnz	r3, 644c <_svfprintf_r+0x1000>
    6440:	f01a 0f01 	tst.w	sl, #1
    6444:	bf08      	it	eq
    6446:	f8dd c100 	ldreq.w	ip, [sp, #256]	; 0x100
    644a:	d01a      	beq.n	6482 <_svfprintf_r+0x1036>
    644c:	9b11      	ldr	r3, [sp, #68]	; 0x44
    644e:	980b      	ldr	r0, [sp, #44]	; 0x2c
    6450:	9912      	ldr	r1, [sp, #72]	; 0x48
    6452:	eb03 0c00 	add.w	ip, r3, r0
    6456:	b129      	cbz	r1, 6464 <_svfprintf_r+0x1018>
    6458:	781b      	ldrb	r3, [r3, #0]
    645a:	2b30      	cmp	r3, #48	; 0x30
    645c:	f000 80d0 	beq.w	6600 <_svfprintf_r+0x11b4>
    6460:	9b42      	ldr	r3, [sp, #264]	; 0x108
    6462:	449c      	add	ip, r3
    6464:	4638      	mov	r0, r7
    6466:	2200      	movs	r2, #0
    6468:	2300      	movs	r3, #0
    646a:	4631      	mov	r1, r6
    646c:	f8cd c020 	str.w	ip, [sp, #32]
    6470:	f003 fcc8 	bl	9e04 <__aeabi_dcmpeq>
    6474:	f8dd c020 	ldr.w	ip, [sp, #32]
    6478:	2800      	cmp	r0, #0
    647a:	f000 8173 	beq.w	6764 <_svfprintf_r+0x1318>
    647e:	f8cd c100 	str.w	ip, [sp, #256]	; 0x100
    6482:	9814      	ldr	r0, [sp, #80]	; 0x50
    6484:	9911      	ldr	r1, [sp, #68]	; 0x44
    6486:	2867      	cmp	r0, #103	; 0x67
    6488:	bf14      	ite	ne
    648a:	2300      	movne	r3, #0
    648c:	2301      	moveq	r3, #1
    648e:	2847      	cmp	r0, #71	; 0x47
    6490:	bf08      	it	eq
    6492:	f043 0301 	orreq.w	r3, r3, #1
    6496:	ebc1 010c 	rsb	r1, r1, ip
    649a:	9118      	str	r1, [sp, #96]	; 0x60
    649c:	2b00      	cmp	r3, #0
    649e:	f000 814a 	beq.w	6736 <_svfprintf_r+0x12ea>
    64a2:	9a42      	ldr	r2, [sp, #264]	; 0x108
    64a4:	f112 0f03 	cmn.w	r2, #3
    64a8:	920e      	str	r2, [sp, #56]	; 0x38
    64aa:	db02      	blt.n	64b2 <_svfprintf_r+0x1066>
    64ac:	4590      	cmp	r8, r2
    64ae:	f280 814b 	bge.w	6748 <_svfprintf_r+0x12fc>
    64b2:	9b14      	ldr	r3, [sp, #80]	; 0x50
    64b4:	3b02      	subs	r3, #2
    64b6:	9314      	str	r3, [sp, #80]	; 0x50
    64b8:	9a0e      	ldr	r2, [sp, #56]	; 0x38
    64ba:	9814      	ldr	r0, [sp, #80]	; 0x50
    64bc:	1e53      	subs	r3, r2, #1
    64be:	9342      	str	r3, [sp, #264]	; 0x108
    64c0:	2b00      	cmp	r3, #0
    64c2:	f88d 00f8 	strb.w	r0, [sp, #248]	; 0xf8
    64c6:	f2c0 81d1 	blt.w	686c <_svfprintf_r+0x1420>
    64ca:	222b      	movs	r2, #43	; 0x2b
    64cc:	f88d 20f9 	strb.w	r2, [sp, #249]	; 0xf9
    64d0:	2b09      	cmp	r3, #9
    64d2:	f300 8162 	bgt.w	679a <_svfprintf_r+0x134e>
    64d6:	a93f      	add	r1, sp, #252	; 0xfc
    64d8:	3330      	adds	r3, #48	; 0x30
    64da:	f88d 30fb 	strb.w	r3, [sp, #251]	; 0xfb
    64de:	2330      	movs	r3, #48	; 0x30
    64e0:	f88d 30fa 	strb.w	r3, [sp, #250]	; 0xfa
    64e4:	ab3e      	add	r3, sp, #248	; 0xf8
    64e6:	9a18      	ldr	r2, [sp, #96]	; 0x60
    64e8:	1acb      	subs	r3, r1, r3
    64ea:	9918      	ldr	r1, [sp, #96]	; 0x60
    64ec:	931a      	str	r3, [sp, #104]	; 0x68
    64ee:	1859      	adds	r1, r3, r1
    64f0:	2a01      	cmp	r2, #1
    64f2:	910e      	str	r1, [sp, #56]	; 0x38
    64f4:	f340 81cc 	ble.w	6890 <_svfprintf_r+0x1444>
    64f8:	980e      	ldr	r0, [sp, #56]	; 0x38
    64fa:	3001      	adds	r0, #1
    64fc:	900e      	str	r0, [sp, #56]	; 0x38
    64fe:	ea20 71e0 	bic.w	r1, r0, r0, asr #31
    6502:	910b      	str	r1, [sp, #44]	; 0x2c
    6504:	9b15      	ldr	r3, [sp, #84]	; 0x54
    6506:	2b00      	cmp	r3, #0
    6508:	f000 80fd 	beq.w	6706 <_svfprintf_r+0x12ba>
    650c:	232d      	movs	r3, #45	; 0x2d
    650e:	2000      	movs	r0, #0
    6510:	f88d 310f 	strb.w	r3, [sp, #271]	; 0x10f
    6514:	9015      	str	r0, [sp, #84]	; 0x54
    6516:	f7ff b950 	b.w	57ba <_svfprintf_r+0x36e>
    651a:	9b0c      	ldr	r3, [sp, #48]	; 0x30
    651c:	425b      	negs	r3, r3
    651e:	930c      	str	r3, [sp, #48]	; 0x30
    6520:	f7ff bace 	b.w	5ac0 <_svfprintf_r+0x674>
    6524:	9a0e      	ldr	r2, [sp, #56]	; 0x38
    6526:	2000      	movs	r0, #0
    6528:	f89d 310f 	ldrb.w	r3, [sp, #271]	; 0x10f
    652c:	ea22 72e2 	bic.w	r2, r2, r2, asr #31
    6530:	9015      	str	r0, [sp, #84]	; 0x54
    6532:	920b      	str	r2, [sp, #44]	; 0x2c
    6534:	f7ff b940 	b.w	57b8 <_svfprintf_r+0x36c>
    6538:	980a      	ldr	r0, [sp, #40]	; 0x28
    653a:	1d01      	adds	r1, r0, #4
    653c:	910a      	str	r1, [sp, #40]	; 0x28
    653e:	6806      	ldr	r6, [r0, #0]
    6540:	1e32      	subs	r2, r6, #0
    6542:	bf18      	it	ne
    6544:	2201      	movne	r2, #1
    6546:	4636      	mov	r6, r6
    6548:	f04f 0700 	mov.w	r7, #0
    654c:	f7ff b8f6 	b.w	573c <_svfprintf_r+0x2f0>
    6550:	f01a 0f40 	tst.w	sl, #64	; 0x40
    6554:	bf17      	itett	ne
    6556:	9a0a      	ldrne	r2, [sp, #40]	; 0x28
    6558:	990a      	ldreq	r1, [sp, #40]	; 0x28
    655a:	980d      	ldrne	r0, [sp, #52]	; 0x34
    655c:	f102 0a04 	addne.w	sl, r2, #4
    6560:	bf11      	iteee	ne
    6562:	6813      	ldrne	r3, [r2, #0]
    6564:	f101 0a04 	addeq.w	sl, r1, #4
    6568:	680b      	ldreq	r3, [r1, #0]
    656a:	9a0d      	ldreq	r2, [sp, #52]	; 0x34
    656c:	bf14      	ite	ne
    656e:	8018      	strhne	r0, [r3, #0]
    6570:	601a      	streq	r2, [r3, #0]
    6572:	f7fe bf95 	b.w	54a0 <_svfprintf_r+0x54>
    6576:	9809      	ldr	r0, [sp, #36]	; 0x24
    6578:	4659      	mov	r1, fp
    657a:	aa37      	add	r2, sp, #220	; 0xdc
    657c:	f7fe fed8 	bl	5330 <__sprint_r>
    6580:	2800      	cmp	r0, #0
    6582:	f47f a8b1 	bne.w	56e8 <_svfprintf_r+0x29c>
    6586:	464b      	mov	r3, r9
    6588:	e40b      	b.n	5da2 <_svfprintf_r+0x956>
    658a:	9809      	ldr	r0, [sp, #36]	; 0x24
    658c:	2140      	movs	r1, #64	; 0x40
    658e:	f001 fafd 	bl	7b8c <_malloc_r>
    6592:	6030      	str	r0, [r6, #0]
    6594:	6130      	str	r0, [r6, #16]
    6596:	2800      	cmp	r0, #0
    6598:	f000 818d 	beq.w	68b6 <_svfprintf_r+0x146a>
    659c:	2340      	movs	r3, #64	; 0x40
    659e:	6173      	str	r3, [r6, #20]
    65a0:	f7fe bf67 	b.w	5472 <_svfprintf_r+0x26>
    65a4:	0000b174 	.word	0x0000b174
    65a8:	2003      	movs	r0, #3
    65aa:	f24b 12a4 	movw	r2, #45476	; 0xb1a4
    65ae:	f24b 11a0 	movw	r1, #45472	; 0xb1a0
    65b2:	900b      	str	r0, [sp, #44]	; 0x2c
    65b4:	9814      	ldr	r0, [sp, #80]	; 0x50
    65b6:	f2c0 0100 	movt	r1, #0
    65ba:	f2c0 0200 	movt	r2, #0
    65be:	9315      	str	r3, [sp, #84]	; 0x54
    65c0:	2847      	cmp	r0, #71	; 0x47
    65c2:	bfd8      	it	le
    65c4:	460a      	movle	r2, r1
    65c6:	f02a 0a80 	bic.w	sl, sl, #128	; 0x80
    65ca:	2103      	movs	r1, #3
    65cc:	9211      	str	r2, [sp, #68]	; 0x44
    65ce:	f89d 310f 	ldrb.w	r3, [sp, #271]	; 0x10f
    65d2:	910e      	str	r1, [sp, #56]	; 0x38
    65d4:	f7ff b8f0 	b.w	57b8 <_svfprintf_r+0x36c>
    65d8:	9809      	ldr	r0, [sp, #36]	; 0x24
    65da:	4659      	mov	r1, fp
    65dc:	aa37      	add	r2, sp, #220	; 0xdc
    65de:	f7fe fea7 	bl	5330 <__sprint_r>
    65e2:	2800      	cmp	r0, #0
    65e4:	f47f a880 	bne.w	56e8 <_svfprintf_r+0x29c>
    65e8:	464b      	mov	r3, r9
    65ea:	e682      	b.n	62f2 <_svfprintf_r+0xea6>
    65ec:	9809      	ldr	r0, [sp, #36]	; 0x24
    65ee:	4659      	mov	r1, fp
    65f0:	aa37      	add	r2, sp, #220	; 0xdc
    65f2:	f7fe fe9d 	bl	5330 <__sprint_r>
    65f6:	2800      	cmp	r0, #0
    65f8:	f47f a876 	bne.w	56e8 <_svfprintf_r+0x29c>
    65fc:	464b      	mov	r3, r9
    65fe:	e68e      	b.n	631e <_svfprintf_r+0xed2>
    6600:	4638      	mov	r0, r7
    6602:	2200      	movs	r2, #0
    6604:	2300      	movs	r3, #0
    6606:	4631      	mov	r1, r6
    6608:	f8cd c020 	str.w	ip, [sp, #32]
    660c:	f003 fbfa 	bl	9e04 <__aeabi_dcmpeq>
    6610:	f8dd c020 	ldr.w	ip, [sp, #32]
    6614:	2800      	cmp	r0, #0
    6616:	f47f af23 	bne.w	6460 <_svfprintf_r+0x1014>
    661a:	9a0b      	ldr	r2, [sp, #44]	; 0x2c
    661c:	f1c2 0301 	rsb	r3, r2, #1
    6620:	9342      	str	r3, [sp, #264]	; 0x108
    6622:	e71e      	b.n	6462 <_svfprintf_r+0x1016>
    6624:	9809      	ldr	r0, [sp, #36]	; 0x24
    6626:	4659      	mov	r1, fp
    6628:	aa37      	add	r2, sp, #220	; 0xdc
    662a:	f7fe fe81 	bl	5330 <__sprint_r>
    662e:	2800      	cmp	r0, #0
    6630:	f47f a85a 	bne.w	56e8 <_svfprintf_r+0x29c>
    6634:	464b      	mov	r3, r9
    6636:	9a18      	ldr	r2, [sp, #96]	; 0x60
    6638:	9811      	ldr	r0, [sp, #68]	; 0x44
    663a:	605a      	str	r2, [r3, #4]
    663c:	9a38      	ldr	r2, [sp, #224]	; 0xe0
    663e:	9939      	ldr	r1, [sp, #228]	; 0xe4
    6640:	6018      	str	r0, [r3, #0]
    6642:	3201      	adds	r2, #1
    6644:	9818      	ldr	r0, [sp, #96]	; 0x60
    6646:	9238      	str	r2, [sp, #224]	; 0xe0
    6648:	1809      	adds	r1, r1, r0
    664a:	2a07      	cmp	r2, #7
    664c:	9139      	str	r1, [sp, #228]	; 0xe4
    664e:	f73f a966 	bgt.w	591e <_svfprintf_r+0x4d2>
    6652:	3308      	adds	r3, #8
    6654:	f7ff b816 	b.w	5684 <_svfprintf_r+0x238>
    6658:	2100      	movs	r1, #0
    665a:	9115      	str	r1, [sp, #84]	; 0x54
    665c:	f002 fdaa 	bl	91b4 <strlen>
    6660:	f89d 310f 	ldrb.w	r3, [sp, #271]	; 0x10f
    6664:	ea20 72e0 	bic.w	r2, r0, r0, asr #31
    6668:	900e      	str	r0, [sp, #56]	; 0x38
    666a:	920b      	str	r2, [sp, #44]	; 0x2c
    666c:	f7ff b8a4 	b.w	57b8 <_svfprintf_r+0x36c>
    6670:	605c      	str	r4, [r3, #4]
    6672:	9a38      	ldr	r2, [sp, #224]	; 0xe0
    6674:	601f      	str	r7, [r3, #0]
    6676:	1c51      	adds	r1, r2, #1
    6678:	9a39      	ldr	r2, [sp, #228]	; 0xe4
    667a:	9138      	str	r1, [sp, #224]	; 0xe0
    667c:	1912      	adds	r2, r2, r4
    667e:	2907      	cmp	r1, #7
    6680:	9239      	str	r2, [sp, #228]	; 0xe4
    6682:	dccf      	bgt.n	6624 <_svfprintf_r+0x11d8>
    6684:	3308      	adds	r3, #8
    6686:	e7d6      	b.n	6636 <_svfprintf_r+0x11ea>
    6688:	9916      	ldr	r1, [sp, #88]	; 0x58
    668a:	9811      	ldr	r0, [sp, #68]	; 0x44
    668c:	1a08      	subs	r0, r1, r0
    668e:	900e      	str	r0, [sp, #56]	; 0x38
    6690:	f7ff b889 	b.w	57a6 <_svfprintf_r+0x35a>
    6694:	f1b8 0f06 	cmp.w	r8, #6
    6698:	bf34      	ite	cc
    669a:	4641      	movcc	r1, r8
    669c:	2106      	movcs	r1, #6
    669e:	f24b 12bc 	movw	r2, #45500	; 0xb1bc
    66a2:	f2c0 0200 	movt	r2, #0
    66a6:	ea21 73e1 	bic.w	r3, r1, r1, asr #31
    66aa:	910e      	str	r1, [sp, #56]	; 0x38
    66ac:	9211      	str	r2, [sp, #68]	; 0x44
    66ae:	930b      	str	r3, [sp, #44]	; 0x2c
    66b0:	f7ff b963 	b.w	597a <_svfprintf_r+0x52e>
    66b4:	9809      	ldr	r0, [sp, #36]	; 0x24
    66b6:	4659      	mov	r1, fp
    66b8:	aa37      	add	r2, sp, #220	; 0xdc
    66ba:	f7fe fe39 	bl	5330 <__sprint_r>
    66be:	2800      	cmp	r0, #0
    66c0:	f47f a812 	bne.w	56e8 <_svfprintf_r+0x29c>
    66c4:	464b      	mov	r3, r9
    66c6:	e43b      	b.n	5f40 <_svfprintf_r+0xaf4>
    66c8:	9809      	ldr	r0, [sp, #36]	; 0x24
    66ca:	4659      	mov	r1, fp
    66cc:	aa37      	add	r2, sp, #220	; 0xdc
    66ce:	f7fe fe2f 	bl	5330 <__sprint_r>
    66d2:	2800      	cmp	r0, #0
    66d4:	f47f a808 	bne.w	56e8 <_svfprintf_r+0x29c>
    66d8:	464b      	mov	r3, r9
    66da:	e5af      	b.n	623c <_svfprintf_r+0xdf0>
    66dc:	9809      	ldr	r0, [sp, #36]	; 0x24
    66de:	4659      	mov	r1, fp
    66e0:	aa37      	add	r2, sp, #220	; 0xdc
    66e2:	f7fe fe25 	bl	5330 <__sprint_r>
    66e6:	2800      	cmp	r0, #0
    66e8:	f47e affe 	bne.w	56e8 <_svfprintf_r+0x29c>
    66ec:	464c      	mov	r4, r9
    66ee:	e594      	b.n	621a <_svfprintf_r+0xdce>
    66f0:	f8cd 8038 	str.w	r8, [sp, #56]	; 0x38
    66f4:	ea28 78e8 	bic.w	r8, r8, r8, asr #31
    66f8:	9015      	str	r0, [sp, #84]	; 0x54
    66fa:	f8cd 802c 	str.w	r8, [sp, #44]	; 0x2c
    66fe:	f89d 310f 	ldrb.w	r3, [sp, #271]	; 0x10f
    6702:	f7ff b859 	b.w	57b8 <_svfprintf_r+0x36c>
    6706:	980e      	ldr	r0, [sp, #56]	; 0x38
    6708:	f89d 310f 	ldrb.w	r3, [sp, #271]	; 0x10f
    670c:	ea20 70e0 	bic.w	r0, r0, r0, asr #31
    6710:	900b      	str	r0, [sp, #44]	; 0x2c
    6712:	f7ff b851 	b.w	57b8 <_svfprintf_r+0x36c>
    6716:	9a14      	ldr	r2, [sp, #80]	; 0x50
    6718:	2a65      	cmp	r2, #101	; 0x65
    671a:	bf14      	ite	ne
    671c:	2300      	movne	r3, #0
    671e:	2301      	moveq	r3, #1
    6720:	2a45      	cmp	r2, #69	; 0x45
    6722:	bf08      	it	eq
    6724:	f043 0301 	orreq.w	r3, r3, #1
    6728:	2b00      	cmp	r3, #0
    672a:	d032      	beq.n	6792 <_svfprintf_r+0x1346>
    672c:	f108 0301 	add.w	r3, r8, #1
    6730:	930b      	str	r3, [sp, #44]	; 0x2c
    6732:	2302      	movs	r3, #2
    6734:	e668      	b.n	6408 <_svfprintf_r+0xfbc>
    6736:	9814      	ldr	r0, [sp, #80]	; 0x50
    6738:	2865      	cmp	r0, #101	; 0x65
    673a:	dd62      	ble.n	6802 <_svfprintf_r+0x13b6>
    673c:	9a14      	ldr	r2, [sp, #80]	; 0x50
    673e:	2a66      	cmp	r2, #102	; 0x66
    6740:	bf1c      	itt	ne
    6742:	9b42      	ldrne	r3, [sp, #264]	; 0x108
    6744:	930e      	strne	r3, [sp, #56]	; 0x38
    6746:	d06f      	beq.n	6828 <_svfprintf_r+0x13dc>
    6748:	9a18      	ldr	r2, [sp, #96]	; 0x60
    674a:	9b0e      	ldr	r3, [sp, #56]	; 0x38
    674c:	429a      	cmp	r2, r3
    674e:	dc5b      	bgt.n	6808 <_svfprintf_r+0x13bc>
    6750:	f01a 0f01 	tst.w	sl, #1
    6754:	f040 8081 	bne.w	685a <_svfprintf_r+0x140e>
    6758:	ea23 70e3 	bic.w	r0, r3, r3, asr #31
    675c:	2167      	movs	r1, #103	; 0x67
    675e:	900b      	str	r0, [sp, #44]	; 0x2c
    6760:	9114      	str	r1, [sp, #80]	; 0x50
    6762:	e6cf      	b.n	6504 <_svfprintf_r+0x10b8>
    6764:	9b40      	ldr	r3, [sp, #256]	; 0x100
    6766:	459c      	cmp	ip, r3
    6768:	bf98      	it	ls
    676a:	469c      	movls	ip, r3
    676c:	f67f ae89 	bls.w	6482 <_svfprintf_r+0x1036>
    6770:	2230      	movs	r2, #48	; 0x30
    6772:	f803 2b01 	strb.w	r2, [r3], #1
    6776:	459c      	cmp	ip, r3
    6778:	9340      	str	r3, [sp, #256]	; 0x100
    677a:	d8fa      	bhi.n	6772 <_svfprintf_r+0x1326>
    677c:	e681      	b.n	6482 <_svfprintf_r+0x1036>
    677e:	9809      	ldr	r0, [sp, #36]	; 0x24
    6780:	4659      	mov	r1, fp
    6782:	aa37      	add	r2, sp, #220	; 0xdc
    6784:	f7fe fdd4 	bl	5330 <__sprint_r>
    6788:	2800      	cmp	r0, #0
    678a:	f47e afad 	bne.w	56e8 <_svfprintf_r+0x29c>
    678e:	464b      	mov	r3, r9
    6790:	e577      	b.n	6282 <_svfprintf_r+0xe36>
    6792:	f8cd 802c 	str.w	r8, [sp, #44]	; 0x2c
    6796:	3302      	adds	r3, #2
    6798:	e636      	b.n	6408 <_svfprintf_r+0xfbc>
    679a:	f246 6c67 	movw	ip, #26215	; 0x6667
    679e:	f10d 00f7 	add.w	r0, sp, #247	; 0xf7
    67a2:	f2c6 6c66 	movt	ip, #26214	; 0x6666
    67a6:	fb8c 2103 	smull	r2, r1, ip, r3
    67aa:	17da      	asrs	r2, r3, #31
    67ac:	ebc2 02a1 	rsb	r2, r2, r1, asr #2
    67b0:	eb02 0182 	add.w	r1, r2, r2, lsl #2
    67b4:	eba3 0141 	sub.w	r1, r3, r1, lsl #1
    67b8:	4613      	mov	r3, r2
    67ba:	3130      	adds	r1, #48	; 0x30
    67bc:	2a09      	cmp	r2, #9
    67be:	f800 1d01 	strb.w	r1, [r0, #-1]!
    67c2:	dcf0      	bgt.n	67a6 <_svfprintf_r+0x135a>
    67c4:	3330      	adds	r3, #48	; 0x30
    67c6:	1e42      	subs	r2, r0, #1
    67c8:	b2d9      	uxtb	r1, r3
    67ca:	f800 1c01 	strb.w	r1, [r0, #-1]
    67ce:	9b07      	ldr	r3, [sp, #28]
    67d0:	4293      	cmp	r3, r2
    67d2:	bf98      	it	ls
    67d4:	f10d 01fa 	addls.w	r1, sp, #250	; 0xfa
    67d8:	f67f ae84 	bls.w	64e4 <_svfprintf_r+0x1098>
    67dc:	4602      	mov	r2, r0
    67de:	f10d 03fb 	add.w	r3, sp, #251	; 0xfb
    67e2:	e001      	b.n	67e8 <_svfprintf_r+0x139c>
    67e4:	f812 1b01 	ldrb.w	r1, [r2], #1
    67e8:	f803 1c01 	strb.w	r1, [r3, #-1]
    67ec:	4619      	mov	r1, r3
    67ee:	9807      	ldr	r0, [sp, #28]
    67f0:	3301      	adds	r3, #1
    67f2:	4290      	cmp	r0, r2
    67f4:	d8f6      	bhi.n	67e4 <_svfprintf_r+0x1398>
    67f6:	e675      	b.n	64e4 <_svfprintf_r+0x1098>
    67f8:	202d      	movs	r0, #45	; 0x2d
    67fa:	f106 4600 	add.w	r6, r6, #2147483648	; 0x80000000
    67fe:	9015      	str	r0, [sp, #84]	; 0x54
    6800:	e5f2      	b.n	63e8 <_svfprintf_r+0xf9c>
    6802:	9942      	ldr	r1, [sp, #264]	; 0x108
    6804:	910e      	str	r1, [sp, #56]	; 0x38
    6806:	e657      	b.n	64b8 <_svfprintf_r+0x106c>
    6808:	990e      	ldr	r1, [sp, #56]	; 0x38
    680a:	9818      	ldr	r0, [sp, #96]	; 0x60
    680c:	2900      	cmp	r1, #0
    680e:	bfda      	itte	le
    6810:	9a0e      	ldrle	r2, [sp, #56]	; 0x38
    6812:	f1c2 0302 	rsble	r3, r2, #2
    6816:	2301      	movgt	r3, #1
    6818:	181b      	adds	r3, r3, r0
    681a:	2167      	movs	r1, #103	; 0x67
    681c:	ea23 72e3 	bic.w	r2, r3, r3, asr #31
    6820:	930e      	str	r3, [sp, #56]	; 0x38
    6822:	9114      	str	r1, [sp, #80]	; 0x50
    6824:	920b      	str	r2, [sp, #44]	; 0x2c
    6826:	e66d      	b.n	6504 <_svfprintf_r+0x10b8>
    6828:	9842      	ldr	r0, [sp, #264]	; 0x108
    682a:	2800      	cmp	r0, #0
    682c:	900e      	str	r0, [sp, #56]	; 0x38
    682e:	dd38      	ble.n	68a2 <_svfprintf_r+0x1456>
    6830:	f1b8 0f00 	cmp.w	r8, #0
    6834:	d107      	bne.n	6846 <_svfprintf_r+0x13fa>
    6836:	f01a 0f01 	tst.w	sl, #1
    683a:	bf04      	itt	eq
    683c:	ea20 71e0 	biceq.w	r1, r0, r0, asr #31
    6840:	910b      	streq	r1, [sp, #44]	; 0x2c
    6842:	f43f ae5f 	beq.w	6504 <_svfprintf_r+0x10b8>
    6846:	9a0e      	ldr	r2, [sp, #56]	; 0x38
    6848:	2066      	movs	r0, #102	; 0x66
    684a:	9014      	str	r0, [sp, #80]	; 0x50
    684c:	1c53      	adds	r3, r2, #1
    684e:	4443      	add	r3, r8
    6850:	930e      	str	r3, [sp, #56]	; 0x38
    6852:	ea23 71e3 	bic.w	r1, r3, r3, asr #31
    6856:	910b      	str	r1, [sp, #44]	; 0x2c
    6858:	e654      	b.n	6504 <_svfprintf_r+0x10b8>
    685a:	9a0e      	ldr	r2, [sp, #56]	; 0x38
    685c:	2367      	movs	r3, #103	; 0x67
    685e:	9314      	str	r3, [sp, #80]	; 0x50
    6860:	3201      	adds	r2, #1
    6862:	920e      	str	r2, [sp, #56]	; 0x38
    6864:	ea22 70e2 	bic.w	r0, r2, r2, asr #31
    6868:	900b      	str	r0, [sp, #44]	; 0x2c
    686a:	e64b      	b.n	6504 <_svfprintf_r+0x10b8>
    686c:	222d      	movs	r2, #45	; 0x2d
    686e:	425b      	negs	r3, r3
    6870:	f88d 20f9 	strb.w	r2, [sp, #249]	; 0xf9
    6874:	e62c      	b.n	64d0 <_svfprintf_r+0x1084>
    6876:	990a      	ldr	r1, [sp, #40]	; 0x28
    6878:	781a      	ldrb	r2, [r3, #0]
    687a:	f8d1 8000 	ldr.w	r8, [r1]
    687e:	3104      	adds	r1, #4
    6880:	910a      	str	r1, [sp, #40]	; 0x28
    6882:	f1b8 0f00 	cmp.w	r8, #0
    6886:	bfb8      	it	lt
    6888:	f04f 38ff 	movlt.w	r8, #4294967295
    688c:	f7fe be47 	b.w	551e <_svfprintf_r+0xd2>
    6890:	f01a 0f01 	tst.w	sl, #1
    6894:	bf04      	itt	eq
    6896:	ea21 73e1 	biceq.w	r3, r1, r1, asr #31
    689a:	930b      	streq	r3, [sp, #44]	; 0x2c
    689c:	f43f ae32 	beq.w	6504 <_svfprintf_r+0x10b8>
    68a0:	e62a      	b.n	64f8 <_svfprintf_r+0x10ac>
    68a2:	f1b8 0f00 	cmp.w	r8, #0
    68a6:	d10e      	bne.n	68c6 <_svfprintf_r+0x147a>
    68a8:	f01a 0f01 	tst.w	sl, #1
    68ac:	d10b      	bne.n	68c6 <_svfprintf_r+0x147a>
    68ae:	2201      	movs	r2, #1
    68b0:	920b      	str	r2, [sp, #44]	; 0x2c
    68b2:	920e      	str	r2, [sp, #56]	; 0x38
    68b4:	e626      	b.n	6504 <_svfprintf_r+0x10b8>
    68b6:	9809      	ldr	r0, [sp, #36]	; 0x24
    68b8:	230c      	movs	r3, #12
    68ba:	f04f 31ff 	mov.w	r1, #4294967295
    68be:	910d      	str	r1, [sp, #52]	; 0x34
    68c0:	6003      	str	r3, [r0, #0]
    68c2:	f7fe bf1a 	b.w	56fa <_svfprintf_r+0x2ae>
    68c6:	f108 0302 	add.w	r3, r8, #2
    68ca:	2066      	movs	r0, #102	; 0x66
    68cc:	ea23 71e3 	bic.w	r1, r3, r3, asr #31
    68d0:	930e      	str	r3, [sp, #56]	; 0x38
    68d2:	9014      	str	r0, [sp, #80]	; 0x50
    68d4:	910b      	str	r1, [sp, #44]	; 0x2c
    68d6:	e615      	b.n	6504 <_svfprintf_r+0x10b8>

000068d8 <quorem>:
    68d8:	e92d 4ff8 	stmdb	sp!, {r3, r4, r5, r6, r7, r8, r9, sl, fp, lr}
    68dc:	6903      	ldr	r3, [r0, #16]
    68de:	690e      	ldr	r6, [r1, #16]
    68e0:	4682      	mov	sl, r0
    68e2:	4689      	mov	r9, r1
    68e4:	429e      	cmp	r6, r3
    68e6:	f300 8083 	bgt.w	69f0 <quorem+0x118>
    68ea:	1cf2      	adds	r2, r6, #3
    68ec:	f101 0514 	add.w	r5, r1, #20
    68f0:	f100 0414 	add.w	r4, r0, #20
    68f4:	3e01      	subs	r6, #1
    68f6:	0092      	lsls	r2, r2, #2
    68f8:	188b      	adds	r3, r1, r2
    68fa:	1812      	adds	r2, r2, r0
    68fc:	f103 0804 	add.w	r8, r3, #4
    6900:	6859      	ldr	r1, [r3, #4]
    6902:	6850      	ldr	r0, [r2, #4]
    6904:	3101      	adds	r1, #1
    6906:	f002 fd1f 	bl	9348 <__aeabi_uidiv>
    690a:	4607      	mov	r7, r0
    690c:	2800      	cmp	r0, #0
    690e:	d039      	beq.n	6984 <quorem+0xac>
    6910:	2300      	movs	r3, #0
    6912:	469c      	mov	ip, r3
    6914:	461a      	mov	r2, r3
    6916:	58e9      	ldr	r1, [r5, r3]
    6918:	58e0      	ldr	r0, [r4, r3]
    691a:	fa1f fe81 	uxth.w	lr, r1
    691e:	ea4f 4b11 	mov.w	fp, r1, lsr #16
    6922:	b281      	uxth	r1, r0
    6924:	fb0e ce07 	mla	lr, lr, r7, ip
    6928:	1851      	adds	r1, r2, r1
    692a:	fb0b fc07 	mul.w	ip, fp, r7
    692e:	eb0c 4c1e 	add.w	ip, ip, lr, lsr #16
    6932:	fa1f fe8e 	uxth.w	lr, lr
    6936:	ebce 0101 	rsb	r1, lr, r1
    693a:	fa1f f28c 	uxth.w	r2, ip
    693e:	ea4f 4c1c 	mov.w	ip, ip, lsr #16
    6942:	ebc2 4210 	rsb	r2, r2, r0, lsr #16
    6946:	fa1f fe81 	uxth.w	lr, r1
    694a:	eb02 4221 	add.w	r2, r2, r1, asr #16
    694e:	ea4e 4102 	orr.w	r1, lr, r2, lsl #16
    6952:	50e1      	str	r1, [r4, r3]
    6954:	3304      	adds	r3, #4
    6956:	1412      	asrs	r2, r2, #16
    6958:	1959      	adds	r1, r3, r5
    695a:	4588      	cmp	r8, r1
    695c:	d2db      	bcs.n	6916 <quorem+0x3e>
    695e:	1d32      	adds	r2, r6, #4
    6960:	eb0a 0382 	add.w	r3, sl, r2, lsl #2
    6964:	6859      	ldr	r1, [r3, #4]
    6966:	b969      	cbnz	r1, 6984 <quorem+0xac>
    6968:	429c      	cmp	r4, r3
    696a:	d209      	bcs.n	6980 <quorem+0xa8>
    696c:	f85a 2022 	ldr.w	r2, [sl, r2, lsl #2]
    6970:	b112      	cbz	r2, 6978 <quorem+0xa0>
    6972:	e005      	b.n	6980 <quorem+0xa8>
    6974:	681a      	ldr	r2, [r3, #0]
    6976:	b91a      	cbnz	r2, 6980 <quorem+0xa8>
    6978:	3b04      	subs	r3, #4
    697a:	3e01      	subs	r6, #1
    697c:	429c      	cmp	r4, r3
    697e:	d3f9      	bcc.n	6974 <quorem+0x9c>
    6980:	f8ca 6010 	str.w	r6, [sl, #16]
    6984:	4649      	mov	r1, r9
    6986:	4650      	mov	r0, sl
    6988:	f001 fcbe 	bl	8308 <__mcmp>
    698c:	2800      	cmp	r0, #0
    698e:	db2c      	blt.n	69ea <quorem+0x112>
    6990:	2300      	movs	r3, #0
    6992:	3701      	adds	r7, #1
    6994:	469c      	mov	ip, r3
    6996:	58ea      	ldr	r2, [r5, r3]
    6998:	58e0      	ldr	r0, [r4, r3]
    699a:	b291      	uxth	r1, r2
    699c:	0c12      	lsrs	r2, r2, #16
    699e:	fa1f f980 	uxth.w	r9, r0
    69a2:	ebc2 4210 	rsb	r2, r2, r0, lsr #16
    69a6:	ebc1 0109 	rsb	r1, r1, r9
    69aa:	4461      	add	r1, ip
    69ac:	eb02 4221 	add.w	r2, r2, r1, asr #16
    69b0:	b289      	uxth	r1, r1
    69b2:	ea41 4102 	orr.w	r1, r1, r2, lsl #16
    69b6:	50e1      	str	r1, [r4, r3]
    69b8:	3304      	adds	r3, #4
    69ba:	ea4f 4c22 	mov.w	ip, r2, asr #16
    69be:	195a      	adds	r2, r3, r5
    69c0:	4590      	cmp	r8, r2
    69c2:	d2e8      	bcs.n	6996 <quorem+0xbe>
    69c4:	1d32      	adds	r2, r6, #4
    69c6:	eb0a 0382 	add.w	r3, sl, r2, lsl #2
    69ca:	6859      	ldr	r1, [r3, #4]
    69cc:	b969      	cbnz	r1, 69ea <quorem+0x112>
    69ce:	429c      	cmp	r4, r3
    69d0:	d209      	bcs.n	69e6 <quorem+0x10e>
    69d2:	f85a 2022 	ldr.w	r2, [sl, r2, lsl #2]
    69d6:	b112      	cbz	r2, 69de <quorem+0x106>
    69d8:	e005      	b.n	69e6 <quorem+0x10e>
    69da:	681a      	ldr	r2, [r3, #0]
    69dc:	b91a      	cbnz	r2, 69e6 <quorem+0x10e>
    69de:	3b04      	subs	r3, #4
    69e0:	3e01      	subs	r6, #1
    69e2:	429c      	cmp	r4, r3
    69e4:	d3f9      	bcc.n	69da <quorem+0x102>
    69e6:	f8ca 6010 	str.w	r6, [sl, #16]
    69ea:	4638      	mov	r0, r7
    69ec:	e8bd 8ff8 	ldmia.w	sp!, {r3, r4, r5, r6, r7, r8, r9, sl, fp, pc}
    69f0:	2000      	movs	r0, #0
    69f2:	e8bd 8ff8 	ldmia.w	sp!, {r3, r4, r5, r6, r7, r8, r9, sl, fp, pc}
    69f6:	bf00      	nop

000069f8 <_dtoa_r>:
    69f8:	e92d 4ff0 	stmdb	sp!, {r4, r5, r6, r7, r8, r9, sl, fp, lr}
    69fc:	6a46      	ldr	r6, [r0, #36]	; 0x24
    69fe:	b0a1      	sub	sp, #132	; 0x84
    6a00:	4604      	mov	r4, r0
    6a02:	4690      	mov	r8, r2
    6a04:	4699      	mov	r9, r3
    6a06:	9d2d      	ldr	r5, [sp, #180]	; 0xb4
    6a08:	2e00      	cmp	r6, #0
    6a0a:	f000 8423 	beq.w	7254 <_dtoa_r+0x85c>
    6a0e:	6832      	ldr	r2, [r6, #0]
    6a10:	b182      	cbz	r2, 6a34 <_dtoa_r+0x3c>
    6a12:	6a61      	ldr	r1, [r4, #36]	; 0x24
    6a14:	f04f 0c01 	mov.w	ip, #1
    6a18:	6876      	ldr	r6, [r6, #4]
    6a1a:	4620      	mov	r0, r4
    6a1c:	680b      	ldr	r3, [r1, #0]
    6a1e:	6056      	str	r6, [r2, #4]
    6a20:	684a      	ldr	r2, [r1, #4]
    6a22:	4619      	mov	r1, r3
    6a24:	fa0c f202 	lsl.w	r2, ip, r2
    6a28:	609a      	str	r2, [r3, #8]
    6a2a:	f001 fda7 	bl	857c <_Bfree>
    6a2e:	6a63      	ldr	r3, [r4, #36]	; 0x24
    6a30:	2200      	movs	r2, #0
    6a32:	601a      	str	r2, [r3, #0]
    6a34:	f1b9 0600 	subs.w	r6, r9, #0
    6a38:	db38      	blt.n	6aac <_dtoa_r+0xb4>
    6a3a:	2300      	movs	r3, #0
    6a3c:	602b      	str	r3, [r5, #0]
    6a3e:	f240 0300 	movw	r3, #0
    6a42:	f6c7 73f0 	movt	r3, #32752	; 0x7ff0
    6a46:	461a      	mov	r2, r3
    6a48:	ea06 0303 	and.w	r3, r6, r3
    6a4c:	4293      	cmp	r3, r2
    6a4e:	d017      	beq.n	6a80 <_dtoa_r+0x88>
    6a50:	2200      	movs	r2, #0
    6a52:	2300      	movs	r3, #0
    6a54:	4640      	mov	r0, r8
    6a56:	4649      	mov	r1, r9
    6a58:	e9cd 8906 	strd	r8, r9, [sp, #24]
    6a5c:	f003 f9d2 	bl	9e04 <__aeabi_dcmpeq>
    6a60:	2800      	cmp	r0, #0
    6a62:	d029      	beq.n	6ab8 <_dtoa_r+0xc0>
    6a64:	982c      	ldr	r0, [sp, #176]	; 0xb0
    6a66:	2301      	movs	r3, #1
    6a68:	992e      	ldr	r1, [sp, #184]	; 0xb8
    6a6a:	6003      	str	r3, [r0, #0]
    6a6c:	2900      	cmp	r1, #0
    6a6e:	f000 80d0 	beq.w	6c12 <_dtoa_r+0x21a>
    6a72:	4b79      	ldr	r3, [pc, #484]	; (6c58 <_dtoa_r+0x260>)
    6a74:	1e58      	subs	r0, r3, #1
    6a76:	9a2e      	ldr	r2, [sp, #184]	; 0xb8
    6a78:	6013      	str	r3, [r2, #0]
    6a7a:	b021      	add	sp, #132	; 0x84
    6a7c:	e8bd 8ff0 	ldmia.w	sp!, {r4, r5, r6, r7, r8, r9, sl, fp, pc}
    6a80:	982c      	ldr	r0, [sp, #176]	; 0xb0
    6a82:	f242 730f 	movw	r3, #9999	; 0x270f
    6a86:	6003      	str	r3, [r0, #0]
    6a88:	f1b8 0f00 	cmp.w	r8, #0
    6a8c:	f000 8095 	beq.w	6bba <_dtoa_r+0x1c2>
    6a90:	f24b 10d4 	movw	r0, #45524	; 0xb1d4
    6a94:	f2c0 0000 	movt	r0, #0
    6a98:	992e      	ldr	r1, [sp, #184]	; 0xb8
    6a9a:	2900      	cmp	r1, #0
    6a9c:	d0ed      	beq.n	6a7a <_dtoa_r+0x82>
    6a9e:	78c2      	ldrb	r2, [r0, #3]
    6aa0:	1cc3      	adds	r3, r0, #3
    6aa2:	2a00      	cmp	r2, #0
    6aa4:	d0e7      	beq.n	6a76 <_dtoa_r+0x7e>
    6aa6:	f100 0308 	add.w	r3, r0, #8
    6aaa:	e7e4      	b.n	6a76 <_dtoa_r+0x7e>
    6aac:	f026 4600 	bic.w	r6, r6, #2147483648	; 0x80000000
    6ab0:	2301      	movs	r3, #1
    6ab2:	46b1      	mov	r9, r6
    6ab4:	602b      	str	r3, [r5, #0]
    6ab6:	e7c2      	b.n	6a3e <_dtoa_r+0x46>
    6ab8:	4620      	mov	r0, r4
    6aba:	e9dd 2306 	ldrd	r2, r3, [sp, #24]
    6abe:	a91e      	add	r1, sp, #120	; 0x78
    6ac0:	9100      	str	r1, [sp, #0]
    6ac2:	a91f      	add	r1, sp, #124	; 0x7c
    6ac4:	9101      	str	r1, [sp, #4]
    6ac6:	f001 fdab 	bl	8620 <__d2b>
    6aca:	f3c6 550a 	ubfx	r5, r6, #20, #11
    6ace:	4683      	mov	fp, r0
    6ad0:	2d00      	cmp	r5, #0
    6ad2:	d07e      	beq.n	6bd2 <_dtoa_r+0x1da>
    6ad4:	e9dd 0106 	ldrd	r0, r1, [sp, #24]
    6ad8:	f5a5 757e 	sub.w	r5, r5, #1016	; 0x3f8
    6adc:	9f1f      	ldr	r7, [sp, #124]	; 0x7c
    6ade:	3d07      	subs	r5, #7
    6ae0:	f021 437f 	bic.w	r3, r1, #4278190080	; 0xff000000
    6ae4:	f423 0370 	bic.w	r3, r3, #15728640	; 0xf00000
    6ae8:	f043 517e 	orr.w	r1, r3, #1065353216	; 0x3f800000
    6aec:	2300      	movs	r3, #0
    6aee:	f441 01e0 	orr.w	r1, r1, #7340032	; 0x700000
    6af2:	9319      	str	r3, [sp, #100]	; 0x64
    6af4:	f240 0300 	movw	r3, #0
    6af8:	2200      	movs	r2, #0
    6afa:	f6c3 73f8 	movt	r3, #16376	; 0x3ff8
    6afe:	f002 fd65 	bl	95cc <__aeabi_dsub>
    6b02:	a34f      	add	r3, pc, #316	; (adr r3, 6c40 <_dtoa_r+0x248>)
    6b04:	e9d3 2300 	ldrd	r2, r3, [r3]
    6b08:	f002 ff14 	bl	9934 <__aeabi_dmul>
    6b0c:	a34e      	add	r3, pc, #312	; (adr r3, 6c48 <_dtoa_r+0x250>)
    6b0e:	e9d3 2300 	ldrd	r2, r3, [r3]
    6b12:	f002 fd5d 	bl	95d0 <__adddf3>
    6b16:	e9cd 0108 	strd	r0, r1, [sp, #32]
    6b1a:	4628      	mov	r0, r5
    6b1c:	f002 fea4 	bl	9868 <__aeabi_i2d>
    6b20:	a34b      	add	r3, pc, #300	; (adr r3, 6c50 <_dtoa_r+0x258>)
    6b22:	e9d3 2300 	ldrd	r2, r3, [r3]
    6b26:	f002 ff05 	bl	9934 <__aeabi_dmul>
    6b2a:	4602      	mov	r2, r0
    6b2c:	460b      	mov	r3, r1
    6b2e:	e9dd 0108 	ldrd	r0, r1, [sp, #32]
    6b32:	f002 fd4d 	bl	95d0 <__adddf3>
    6b36:	e9cd 0108 	strd	r0, r1, [sp, #32]
    6b3a:	f003 f995 	bl	9e68 <__aeabi_d2iz>
    6b3e:	2200      	movs	r2, #0
    6b40:	2300      	movs	r3, #0
    6b42:	4606      	mov	r6, r0
    6b44:	e9dd 0108 	ldrd	r0, r1, [sp, #32]
    6b48:	f003 f966 	bl	9e18 <__aeabi_dcmplt>
    6b4c:	b140      	cbz	r0, 6b60 <_dtoa_r+0x168>
    6b4e:	4630      	mov	r0, r6
    6b50:	f002 fe8a 	bl	9868 <__aeabi_i2d>
    6b54:	e9dd 2308 	ldrd	r2, r3, [sp, #32]
    6b58:	f003 f954 	bl	9e04 <__aeabi_dcmpeq>
    6b5c:	b900      	cbnz	r0, 6b60 <_dtoa_r+0x168>
    6b5e:	3e01      	subs	r6, #1
    6b60:	2e16      	cmp	r6, #22
    6b62:	d95b      	bls.n	6c1c <_dtoa_r+0x224>
    6b64:	2301      	movs	r3, #1
    6b66:	9318      	str	r3, [sp, #96]	; 0x60
    6b68:	3f01      	subs	r7, #1
    6b6a:	ebb7 0a05 	subs.w	sl, r7, r5
    6b6e:	bf42      	ittt	mi
    6b70:	f1ca 0a00 	rsbmi	sl, sl, #0
    6b74:	f8cd a03c 	strmi.w	sl, [sp, #60]	; 0x3c
    6b78:	f04f 0a00 	movmi.w	sl, #0
    6b7c:	d401      	bmi.n	6b82 <_dtoa_r+0x18a>
    6b7e:	2200      	movs	r2, #0
    6b80:	920f      	str	r2, [sp, #60]	; 0x3c
    6b82:	2e00      	cmp	r6, #0
    6b84:	f2c0 8371 	blt.w	726a <_dtoa_r+0x872>
    6b88:	44b2      	add	sl, r6
    6b8a:	2300      	movs	r3, #0
    6b8c:	9617      	str	r6, [sp, #92]	; 0x5c
    6b8e:	9315      	str	r3, [sp, #84]	; 0x54
    6b90:	9b2a      	ldr	r3, [sp, #168]	; 0xa8
    6b92:	2b09      	cmp	r3, #9
    6b94:	d862      	bhi.n	6c5c <_dtoa_r+0x264>
    6b96:	2b05      	cmp	r3, #5
    6b98:	f340 8677 	ble.w	788a <_dtoa_r+0xe92>
    6b9c:	982a      	ldr	r0, [sp, #168]	; 0xa8
    6b9e:	2700      	movs	r7, #0
    6ba0:	3804      	subs	r0, #4
    6ba2:	902a      	str	r0, [sp, #168]	; 0xa8
    6ba4:	992a      	ldr	r1, [sp, #168]	; 0xa8
    6ba6:	1e8b      	subs	r3, r1, #2
    6ba8:	2b03      	cmp	r3, #3
    6baa:	f200 83dd 	bhi.w	7368 <_dtoa_r+0x970>
    6bae:	e8df f013 	tbh	[pc, r3, lsl #1]
    6bb2:	03a5      	.short	0x03a5
    6bb4:	03d503d8 	.word	0x03d503d8
    6bb8:	03c4      	.short	0x03c4
    6bba:	f026 467f 	bic.w	r6, r6, #4278190080	; 0xff000000
    6bbe:	f426 0670 	bic.w	r6, r6, #15728640	; 0xf00000
    6bc2:	2e00      	cmp	r6, #0
    6bc4:	f47f af64 	bne.w	6a90 <_dtoa_r+0x98>
    6bc8:	f24b 10c8 	movw	r0, #45512	; 0xb1c8
    6bcc:	f2c0 0000 	movt	r0, #0
    6bd0:	e762      	b.n	6a98 <_dtoa_r+0xa0>
    6bd2:	9f1f      	ldr	r7, [sp, #124]	; 0x7c
    6bd4:	9b1e      	ldr	r3, [sp, #120]	; 0x78
    6bd6:	18fb      	adds	r3, r7, r3
    6bd8:	f503 6386 	add.w	r3, r3, #1072	; 0x430
    6bdc:	1c9d      	adds	r5, r3, #2
    6bde:	2d20      	cmp	r5, #32
    6be0:	bfdc      	itt	le
    6be2:	f1c5 0020 	rsble	r0, r5, #32
    6be6:	fa08 f000 	lslle.w	r0, r8, r0
    6bea:	dd08      	ble.n	6bfe <_dtoa_r+0x206>
    6bec:	3b1e      	subs	r3, #30
    6bee:	f1c5 0240 	rsb	r2, r5, #64	; 0x40
    6bf2:	fa16 f202 	lsls.w	r2, r6, r2
    6bf6:	fa28 f303 	lsr.w	r3, r8, r3
    6bfa:	ea42 0003 	orr.w	r0, r2, r3
    6bfe:	f002 fe23 	bl	9848 <__aeabi_ui2d>
    6c02:	f5a5 6586 	sub.w	r5, r5, #1072	; 0x430
    6c06:	2201      	movs	r2, #1
    6c08:	3d03      	subs	r5, #3
    6c0a:	9219      	str	r2, [sp, #100]	; 0x64
    6c0c:	f1a1 71f8 	sub.w	r1, r1, #32505856	; 0x1f00000
    6c10:	e770      	b.n	6af4 <_dtoa_r+0xfc>
    6c12:	f24b 10c4 	movw	r0, #45508	; 0xb1c4
    6c16:	f2c0 0000 	movt	r0, #0
    6c1a:	e72e      	b.n	6a7a <_dtoa_r+0x82>
    6c1c:	f24b 2318 	movw	r3, #45592	; 0xb218
    6c20:	e9dd 0106 	ldrd	r0, r1, [sp, #24]
    6c24:	f2c0 0300 	movt	r3, #0
    6c28:	eb03 03c6 	add.w	r3, r3, r6, lsl #3
    6c2c:	e9d3 2300 	ldrd	r2, r3, [r3]
    6c30:	f003 f8f2 	bl	9e18 <__aeabi_dcmplt>
    6c34:	2800      	cmp	r0, #0
    6c36:	f040 8320 	bne.w	727a <_dtoa_r+0x882>
    6c3a:	9018      	str	r0, [sp, #96]	; 0x60
    6c3c:	e794      	b.n	6b68 <_dtoa_r+0x170>
    6c3e:	bf00      	nop
    6c40:	636f4361 	.word	0x636f4361
    6c44:	3fd287a7 	.word	0x3fd287a7
    6c48:	8b60c8b3 	.word	0x8b60c8b3
    6c4c:	3fc68a28 	.word	0x3fc68a28
    6c50:	509f79fb 	.word	0x509f79fb
    6c54:	3fd34413 	.word	0x3fd34413
    6c58:	0000b1c5 	.word	0x0000b1c5
    6c5c:	2300      	movs	r3, #0
    6c5e:	f04f 30ff 	mov.w	r0, #4294967295
    6c62:	461f      	mov	r7, r3
    6c64:	2101      	movs	r1, #1
    6c66:	932a      	str	r3, [sp, #168]	; 0xa8
    6c68:	9011      	str	r0, [sp, #68]	; 0x44
    6c6a:	9116      	str	r1, [sp, #88]	; 0x58
    6c6c:	9008      	str	r0, [sp, #32]
    6c6e:	932b      	str	r3, [sp, #172]	; 0xac
    6c70:	6a65      	ldr	r5, [r4, #36]	; 0x24
    6c72:	2300      	movs	r3, #0
    6c74:	606b      	str	r3, [r5, #4]
    6c76:	4620      	mov	r0, r4
    6c78:	6869      	ldr	r1, [r5, #4]
    6c7a:	f001 fc9b 	bl	85b4 <_Balloc>
    6c7e:	6a63      	ldr	r3, [r4, #36]	; 0x24
    6c80:	6028      	str	r0, [r5, #0]
    6c82:	681b      	ldr	r3, [r3, #0]
    6c84:	9310      	str	r3, [sp, #64]	; 0x40
    6c86:	2f00      	cmp	r7, #0
    6c88:	f000 815b 	beq.w	6f42 <_dtoa_r+0x54a>
    6c8c:	2e00      	cmp	r6, #0
    6c8e:	f340 842a 	ble.w	74e6 <_dtoa_r+0xaee>
    6c92:	f24b 2318 	movw	r3, #45592	; 0xb218
    6c96:	f006 020f 	and.w	r2, r6, #15
    6c9a:	f2c0 0300 	movt	r3, #0
    6c9e:	1135      	asrs	r5, r6, #4
    6ca0:	eb03 03c2 	add.w	r3, r3, r2, lsl #3
    6ca4:	f015 0f10 	tst.w	r5, #16
    6ca8:	e9d3 0100 	ldrd	r0, r1, [r3]
    6cac:	e9cd 010c 	strd	r0, r1, [sp, #48]	; 0x30
    6cb0:	f000 82e7 	beq.w	7282 <_dtoa_r+0x88a>
    6cb4:	f24b 23f0 	movw	r3, #45808	; 0xb2f0
    6cb8:	e9dd 0106 	ldrd	r0, r1, [sp, #24]
    6cbc:	f2c0 0300 	movt	r3, #0
    6cc0:	f005 050f 	and.w	r5, r5, #15
    6cc4:	f04f 0803 	mov.w	r8, #3
    6cc8:	e9d3 2308 	ldrd	r2, r3, [r3, #32]
    6ccc:	f002 ff5c 	bl	9b88 <__aeabi_ddiv>
    6cd0:	e9cd 0112 	strd	r0, r1, [sp, #72]	; 0x48
    6cd4:	b1bd      	cbz	r5, 6d06 <_dtoa_r+0x30e>
    6cd6:	f24b 27f0 	movw	r7, #45808	; 0xb2f0
    6cda:	e9dd 230c 	ldrd	r2, r3, [sp, #48]	; 0x30
    6cde:	f2c0 0700 	movt	r7, #0
    6ce2:	f015 0f01 	tst.w	r5, #1
    6ce6:	4610      	mov	r0, r2
    6ce8:	4619      	mov	r1, r3
    6cea:	d007      	beq.n	6cfc <_dtoa_r+0x304>
    6cec:	e9d7 2300 	ldrd	r2, r3, [r7]
    6cf0:	f108 0801 	add.w	r8, r8, #1
    6cf4:	f002 fe1e 	bl	9934 <__aeabi_dmul>
    6cf8:	4602      	mov	r2, r0
    6cfa:	460b      	mov	r3, r1
    6cfc:	3708      	adds	r7, #8
    6cfe:	106d      	asrs	r5, r5, #1
    6d00:	d1ef      	bne.n	6ce2 <_dtoa_r+0x2ea>
    6d02:	e9cd 230c 	strd	r2, r3, [sp, #48]	; 0x30
    6d06:	e9dd 230c 	ldrd	r2, r3, [sp, #48]	; 0x30
    6d0a:	e9dd 0112 	ldrd	r0, r1, [sp, #72]	; 0x48
    6d0e:	f002 ff3b 	bl	9b88 <__aeabi_ddiv>
    6d12:	e9cd 010c 	strd	r0, r1, [sp, #48]	; 0x30
    6d16:	9918      	ldr	r1, [sp, #96]	; 0x60
    6d18:	2900      	cmp	r1, #0
    6d1a:	f000 80de 	beq.w	6eda <_dtoa_r+0x4e2>
    6d1e:	f240 0300 	movw	r3, #0
    6d22:	e9dd 010c 	ldrd	r0, r1, [sp, #48]	; 0x30
    6d26:	2200      	movs	r2, #0
    6d28:	f6c3 73f0 	movt	r3, #16368	; 0x3ff0
    6d2c:	f04f 0500 	mov.w	r5, #0
    6d30:	f003 f872 	bl	9e18 <__aeabi_dcmplt>
    6d34:	b108      	cbz	r0, 6d3a <_dtoa_r+0x342>
    6d36:	f04f 0501 	mov.w	r5, #1
    6d3a:	9a08      	ldr	r2, [sp, #32]
    6d3c:	2a00      	cmp	r2, #0
    6d3e:	bfd4      	ite	le
    6d40:	2500      	movle	r5, #0
    6d42:	f005 0501 	andgt.w	r5, r5, #1
    6d46:	2d00      	cmp	r5, #0
    6d48:	f000 80c7 	beq.w	6eda <_dtoa_r+0x4e2>
    6d4c:	9b11      	ldr	r3, [sp, #68]	; 0x44
    6d4e:	2b00      	cmp	r3, #0
    6d50:	f340 80f5 	ble.w	6f3e <_dtoa_r+0x546>
    6d54:	f240 0300 	movw	r3, #0
    6d58:	2200      	movs	r2, #0
    6d5a:	f2c4 0324 	movt	r3, #16420	; 0x4024
    6d5e:	e9dd 010c 	ldrd	r0, r1, [sp, #48]	; 0x30
    6d62:	f002 fde7 	bl	9934 <__aeabi_dmul>
    6d66:	e9cd 010c 	strd	r0, r1, [sp, #48]	; 0x30
    6d6a:	f108 0001 	add.w	r0, r8, #1
    6d6e:	1e71      	subs	r1, r6, #1
    6d70:	9112      	str	r1, [sp, #72]	; 0x48
    6d72:	f002 fd79 	bl	9868 <__aeabi_i2d>
    6d76:	4602      	mov	r2, r0
    6d78:	460b      	mov	r3, r1
    6d7a:	e9dd 010c 	ldrd	r0, r1, [sp, #48]	; 0x30
    6d7e:	f002 fdd9 	bl	9934 <__aeabi_dmul>
    6d82:	f240 0300 	movw	r3, #0
    6d86:	2200      	movs	r2, #0
    6d88:	f2c4 031c 	movt	r3, #16412	; 0x401c
    6d8c:	f002 fc20 	bl	95d0 <__adddf3>
    6d90:	f8dd c044 	ldr.w	ip, [sp, #68]	; 0x44
    6d94:	4680      	mov	r8, r0
    6d96:	f1a1 7950 	sub.w	r9, r1, #54525952	; 0x3400000
    6d9a:	9b16      	ldr	r3, [sp, #88]	; 0x58
    6d9c:	2b00      	cmp	r3, #0
    6d9e:	f000 83ad 	beq.w	74fc <_dtoa_r+0xb04>
    6da2:	f24b 2318 	movw	r3, #45592	; 0xb218
    6da6:	f240 0100 	movw	r1, #0
    6daa:	f2c0 0300 	movt	r3, #0
    6dae:	2000      	movs	r0, #0
    6db0:	eb03 03cc 	add.w	r3, r3, ip, lsl #3
    6db4:	f6c3 71e0 	movt	r1, #16352	; 0x3fe0
    6db8:	f8cd c00c 	str.w	ip, [sp, #12]
    6dbc:	e953 2302 	ldrd	r2, r3, [r3, #-8]
    6dc0:	f002 fee2 	bl	9b88 <__aeabi_ddiv>
    6dc4:	4642      	mov	r2, r8
    6dc6:	464b      	mov	r3, r9
    6dc8:	9d10      	ldr	r5, [sp, #64]	; 0x40
    6dca:	f002 fbff 	bl	95cc <__aeabi_dsub>
    6dce:	4680      	mov	r8, r0
    6dd0:	4689      	mov	r9, r1
    6dd2:	e9dd 010c 	ldrd	r0, r1, [sp, #48]	; 0x30
    6dd6:	f003 f847 	bl	9e68 <__aeabi_d2iz>
    6dda:	4607      	mov	r7, r0
    6ddc:	f002 fd44 	bl	9868 <__aeabi_i2d>
    6de0:	4602      	mov	r2, r0
    6de2:	460b      	mov	r3, r1
    6de4:	e9dd 010c 	ldrd	r0, r1, [sp, #48]	; 0x30
    6de8:	f002 fbf0 	bl	95cc <__aeabi_dsub>
    6dec:	f107 0330 	add.w	r3, r7, #48	; 0x30
    6df0:	e9cd 010c 	strd	r0, r1, [sp, #48]	; 0x30
    6df4:	4640      	mov	r0, r8
    6df6:	f805 3b01 	strb.w	r3, [r5], #1
    6dfa:	4649      	mov	r1, r9
    6dfc:	e9dd 230c 	ldrd	r2, r3, [sp, #48]	; 0x30
    6e00:	f003 f828 	bl	9e54 <__aeabi_dcmpgt>
    6e04:	2800      	cmp	r0, #0
    6e06:	f040 8213 	bne.w	7230 <_dtoa_r+0x838>
    6e0a:	f240 0100 	movw	r1, #0
    6e0e:	e9dd 230c 	ldrd	r2, r3, [sp, #48]	; 0x30
    6e12:	2000      	movs	r0, #0
    6e14:	f6c3 71f0 	movt	r1, #16368	; 0x3ff0
    6e18:	f002 fbd8 	bl	95cc <__aeabi_dsub>
    6e1c:	4602      	mov	r2, r0
    6e1e:	460b      	mov	r3, r1
    6e20:	4640      	mov	r0, r8
    6e22:	4649      	mov	r1, r9
    6e24:	f003 f816 	bl	9e54 <__aeabi_dcmpgt>
    6e28:	f8dd c00c 	ldr.w	ip, [sp, #12]
    6e2c:	2800      	cmp	r0, #0
    6e2e:	f040 83e7 	bne.w	7600 <_dtoa_r+0xc08>
    6e32:	f1bc 0f01 	cmp.w	ip, #1
    6e36:	f340 8082 	ble.w	6f3e <_dtoa_r+0x546>
    6e3a:	f8cd b068 	str.w	fp, [sp, #104]	; 0x68
    6e3e:	2701      	movs	r7, #1
    6e40:	f8cd a070 	str.w	sl, [sp, #112]	; 0x70
    6e44:	961d      	str	r6, [sp, #116]	; 0x74
    6e46:	4666      	mov	r6, ip
    6e48:	e9dd ab0c 	ldrd	sl, fp, [sp, #48]	; 0x30
    6e4c:	940c      	str	r4, [sp, #48]	; 0x30
    6e4e:	e010      	b.n	6e72 <_dtoa_r+0x47a>
    6e50:	f240 0100 	movw	r1, #0
    6e54:	2000      	movs	r0, #0
    6e56:	f6c3 71f0 	movt	r1, #16368	; 0x3ff0
    6e5a:	f002 fbb7 	bl	95cc <__aeabi_dsub>
    6e5e:	4642      	mov	r2, r8
    6e60:	464b      	mov	r3, r9
    6e62:	f002 ffd9 	bl	9e18 <__aeabi_dcmplt>
    6e66:	2800      	cmp	r0, #0
    6e68:	f040 83c7 	bne.w	75fa <_dtoa_r+0xc02>
    6e6c:	42b7      	cmp	r7, r6
    6e6e:	f280 848b 	bge.w	7788 <_dtoa_r+0xd90>
    6e72:	f240 0300 	movw	r3, #0
    6e76:	4640      	mov	r0, r8
    6e78:	4649      	mov	r1, r9
    6e7a:	2200      	movs	r2, #0
    6e7c:	f2c4 0324 	movt	r3, #16420	; 0x4024
    6e80:	3501      	adds	r5, #1
    6e82:	f002 fd57 	bl	9934 <__aeabi_dmul>
    6e86:	f240 0300 	movw	r3, #0
    6e8a:	2200      	movs	r2, #0
    6e8c:	f2c4 0324 	movt	r3, #16420	; 0x4024
    6e90:	4680      	mov	r8, r0
    6e92:	4689      	mov	r9, r1
    6e94:	4650      	mov	r0, sl
    6e96:	4659      	mov	r1, fp
    6e98:	f002 fd4c 	bl	9934 <__aeabi_dmul>
    6e9c:	468b      	mov	fp, r1
    6e9e:	4682      	mov	sl, r0
    6ea0:	f002 ffe2 	bl	9e68 <__aeabi_d2iz>
    6ea4:	4604      	mov	r4, r0
    6ea6:	f002 fcdf 	bl	9868 <__aeabi_i2d>
    6eaa:	3430      	adds	r4, #48	; 0x30
    6eac:	4602      	mov	r2, r0
    6eae:	460b      	mov	r3, r1
    6eb0:	4650      	mov	r0, sl
    6eb2:	4659      	mov	r1, fp
    6eb4:	f002 fb8a 	bl	95cc <__aeabi_dsub>
    6eb8:	9a10      	ldr	r2, [sp, #64]	; 0x40
    6eba:	464b      	mov	r3, r9
    6ebc:	55d4      	strb	r4, [r2, r7]
    6ebe:	4642      	mov	r2, r8
    6ec0:	3701      	adds	r7, #1
    6ec2:	4682      	mov	sl, r0
    6ec4:	468b      	mov	fp, r1
    6ec6:	f002 ffa7 	bl	9e18 <__aeabi_dcmplt>
    6eca:	4652      	mov	r2, sl
    6ecc:	465b      	mov	r3, fp
    6ece:	2800      	cmp	r0, #0
    6ed0:	d0be      	beq.n	6e50 <_dtoa_r+0x458>
    6ed2:	f8dd b068 	ldr.w	fp, [sp, #104]	; 0x68
    6ed6:	9c0c      	ldr	r4, [sp, #48]	; 0x30
    6ed8:	e1aa      	b.n	7230 <_dtoa_r+0x838>
    6eda:	4640      	mov	r0, r8
    6edc:	f002 fcc4 	bl	9868 <__aeabi_i2d>
    6ee0:	e9dd 230c 	ldrd	r2, r3, [sp, #48]	; 0x30
    6ee4:	f002 fd26 	bl	9934 <__aeabi_dmul>
    6ee8:	f240 0300 	movw	r3, #0
    6eec:	2200      	movs	r2, #0
    6eee:	f2c4 031c 	movt	r3, #16412	; 0x401c
    6ef2:	f002 fb6d 	bl	95d0 <__adddf3>
    6ef6:	9a08      	ldr	r2, [sp, #32]
    6ef8:	f1a1 7550 	sub.w	r5, r1, #54525952	; 0x3400000
    6efc:	4680      	mov	r8, r0
    6efe:	46a9      	mov	r9, r5
    6f00:	2a00      	cmp	r2, #0
    6f02:	f040 82ec 	bne.w	74de <_dtoa_r+0xae6>
    6f06:	f240 0300 	movw	r3, #0
    6f0a:	e9dd 010c 	ldrd	r0, r1, [sp, #48]	; 0x30
    6f0e:	2200      	movs	r2, #0
    6f10:	f2c4 0314 	movt	r3, #16404	; 0x4014
    6f14:	f002 fb5a 	bl	95cc <__aeabi_dsub>
    6f18:	4642      	mov	r2, r8
    6f1a:	462b      	mov	r3, r5
    6f1c:	e9cd 010c 	strd	r0, r1, [sp, #48]	; 0x30
    6f20:	f002 ff98 	bl	9e54 <__aeabi_dcmpgt>
    6f24:	2800      	cmp	r0, #0
    6f26:	f040 824a 	bne.w	73be <_dtoa_r+0x9c6>
    6f2a:	4642      	mov	r2, r8
    6f2c:	e9dd 010c 	ldrd	r0, r1, [sp, #48]	; 0x30
    6f30:	f105 4300 	add.w	r3, r5, #2147483648	; 0x80000000
    6f34:	f002 ff70 	bl	9e18 <__aeabi_dcmplt>
    6f38:	2800      	cmp	r0, #0
    6f3a:	f040 81d5 	bne.w	72e8 <_dtoa_r+0x8f0>
    6f3e:	e9dd 8906 	ldrd	r8, r9, [sp, #24]
    6f42:	9b1e      	ldr	r3, [sp, #120]	; 0x78
    6f44:	ea6f 0703 	mvn.w	r7, r3
    6f48:	ea4f 77d7 	mov.w	r7, r7, lsr #31
    6f4c:	2e0e      	cmp	r6, #14
    6f4e:	bfcc      	ite	gt
    6f50:	2700      	movgt	r7, #0
    6f52:	f007 0701 	andle.w	r7, r7, #1
    6f56:	2f00      	cmp	r7, #0
    6f58:	f000 80b7 	beq.w	70ca <_dtoa_r+0x6d2>
    6f5c:	982b      	ldr	r0, [sp, #172]	; 0xac
    6f5e:	f24b 2318 	movw	r3, #45592	; 0xb218
    6f62:	f2c0 0300 	movt	r3, #0
    6f66:	9908      	ldr	r1, [sp, #32]
    6f68:	eb03 03c6 	add.w	r3, r3, r6, lsl #3
    6f6c:	0fc2      	lsrs	r2, r0, #31
    6f6e:	2900      	cmp	r1, #0
    6f70:	bfcc      	ite	gt
    6f72:	2200      	movgt	r2, #0
    6f74:	f002 0201 	andle.w	r2, r2, #1
    6f78:	e9d3 0100 	ldrd	r0, r1, [r3]
    6f7c:	e9cd 0104 	strd	r0, r1, [sp, #16]
    6f80:	2a00      	cmp	r2, #0
    6f82:	f040 81a0 	bne.w	72c6 <_dtoa_r+0x8ce>
    6f86:	4602      	mov	r2, r0
    6f88:	460b      	mov	r3, r1
    6f8a:	4640      	mov	r0, r8
    6f8c:	4649      	mov	r1, r9
    6f8e:	f002 fdfb 	bl	9b88 <__aeabi_ddiv>
    6f92:	9d10      	ldr	r5, [sp, #64]	; 0x40
    6f94:	f002 ff68 	bl	9e68 <__aeabi_d2iz>
    6f98:	4682      	mov	sl, r0
    6f9a:	f002 fc65 	bl	9868 <__aeabi_i2d>
    6f9e:	e9dd 2304 	ldrd	r2, r3, [sp, #16]
    6fa2:	f002 fcc7 	bl	9934 <__aeabi_dmul>
    6fa6:	4602      	mov	r2, r0
    6fa8:	460b      	mov	r3, r1
    6faa:	4640      	mov	r0, r8
    6fac:	4649      	mov	r1, r9
    6fae:	f002 fb0d 	bl	95cc <__aeabi_dsub>
    6fb2:	f10a 0330 	add.w	r3, sl, #48	; 0x30
    6fb6:	f805 3b01 	strb.w	r3, [r5], #1
    6fba:	9a08      	ldr	r2, [sp, #32]
    6fbc:	2a01      	cmp	r2, #1
    6fbe:	4680      	mov	r8, r0
    6fc0:	4689      	mov	r9, r1
    6fc2:	d052      	beq.n	706a <_dtoa_r+0x672>
    6fc4:	f240 0300 	movw	r3, #0
    6fc8:	2200      	movs	r2, #0
    6fca:	f2c4 0324 	movt	r3, #16420	; 0x4024
    6fce:	f002 fcb1 	bl	9934 <__aeabi_dmul>
    6fd2:	2200      	movs	r2, #0
    6fd4:	2300      	movs	r3, #0
    6fd6:	e9cd 0106 	strd	r0, r1, [sp, #24]
    6fda:	f002 ff13 	bl	9e04 <__aeabi_dcmpeq>
    6fde:	2800      	cmp	r0, #0
    6fe0:	f040 81eb 	bne.w	73ba <_dtoa_r+0x9c2>
    6fe4:	9810      	ldr	r0, [sp, #64]	; 0x40
    6fe6:	f04f 0801 	mov.w	r8, #1
    6fea:	f8cd b02c 	str.w	fp, [sp, #44]	; 0x2c
    6fee:	46a3      	mov	fp, r4
    6ff0:	1c87      	adds	r7, r0, #2
    6ff2:	960f      	str	r6, [sp, #60]	; 0x3c
    6ff4:	f8dd 9020 	ldr.w	r9, [sp, #32]
    6ff8:	e9dd 4506 	ldrd	r4, r5, [sp, #24]
    6ffc:	e00a      	b.n	7014 <_dtoa_r+0x61c>
    6ffe:	f002 fc99 	bl	9934 <__aeabi_dmul>
    7002:	2200      	movs	r2, #0
    7004:	2300      	movs	r3, #0
    7006:	4604      	mov	r4, r0
    7008:	460d      	mov	r5, r1
    700a:	f002 fefb 	bl	9e04 <__aeabi_dcmpeq>
    700e:	2800      	cmp	r0, #0
    7010:	f040 81ce 	bne.w	73b0 <_dtoa_r+0x9b8>
    7014:	e9dd 2304 	ldrd	r2, r3, [sp, #16]
    7018:	4620      	mov	r0, r4
    701a:	4629      	mov	r1, r5
    701c:	f108 0801 	add.w	r8, r8, #1
    7020:	f002 fdb2 	bl	9b88 <__aeabi_ddiv>
    7024:	463e      	mov	r6, r7
    7026:	f002 ff1f 	bl	9e68 <__aeabi_d2iz>
    702a:	4682      	mov	sl, r0
    702c:	f002 fc1c 	bl	9868 <__aeabi_i2d>
    7030:	e9dd 2304 	ldrd	r2, r3, [sp, #16]
    7034:	f002 fc7e 	bl	9934 <__aeabi_dmul>
    7038:	4602      	mov	r2, r0
    703a:	460b      	mov	r3, r1
    703c:	4620      	mov	r0, r4
    703e:	4629      	mov	r1, r5
    7040:	f002 fac4 	bl	95cc <__aeabi_dsub>
    7044:	2200      	movs	r2, #0
    7046:	f10a 0c30 	add.w	ip, sl, #48	; 0x30
    704a:	f807 cc01 	strb.w	ip, [r7, #-1]
    704e:	3701      	adds	r7, #1
    7050:	45c1      	cmp	r9, r8
    7052:	f240 0300 	movw	r3, #0
    7056:	f2c4 0324 	movt	r3, #16420	; 0x4024
    705a:	d1d0      	bne.n	6ffe <_dtoa_r+0x606>
    705c:	4635      	mov	r5, r6
    705e:	465c      	mov	r4, fp
    7060:	9e0f      	ldr	r6, [sp, #60]	; 0x3c
    7062:	4680      	mov	r8, r0
    7064:	f8dd b02c 	ldr.w	fp, [sp, #44]	; 0x2c
    7068:	4689      	mov	r9, r1
    706a:	4642      	mov	r2, r8
    706c:	464b      	mov	r3, r9
    706e:	4640      	mov	r0, r8
    7070:	4649      	mov	r1, r9
    7072:	f002 faad 	bl	95d0 <__adddf3>
    7076:	4680      	mov	r8, r0
    7078:	4689      	mov	r9, r1
    707a:	4642      	mov	r2, r8
    707c:	e9dd 0104 	ldrd	r0, r1, [sp, #16]
    7080:	464b      	mov	r3, r9
    7082:	f002 fec9 	bl	9e18 <__aeabi_dcmplt>
    7086:	b960      	cbnz	r0, 70a2 <_dtoa_r+0x6aa>
    7088:	e9dd 0104 	ldrd	r0, r1, [sp, #16]
    708c:	4642      	mov	r2, r8
    708e:	464b      	mov	r3, r9
    7090:	f002 feb8 	bl	9e04 <__aeabi_dcmpeq>
    7094:	2800      	cmp	r0, #0
    7096:	f000 8190 	beq.w	73ba <_dtoa_r+0x9c2>
    709a:	f01a 0f01 	tst.w	sl, #1
    709e:	f000 818c 	beq.w	73ba <_dtoa_r+0x9c2>
    70a2:	9910      	ldr	r1, [sp, #64]	; 0x40
    70a4:	e000      	b.n	70a8 <_dtoa_r+0x6b0>
    70a6:	461d      	mov	r5, r3
    70a8:	f815 2c01 	ldrb.w	r2, [r5, #-1]
    70ac:	1e6b      	subs	r3, r5, #1
    70ae:	2a39      	cmp	r2, #57	; 0x39
    70b0:	f040 8367 	bne.w	7782 <_dtoa_r+0xd8a>
    70b4:	428b      	cmp	r3, r1
    70b6:	d1f6      	bne.n	70a6 <_dtoa_r+0x6ae>
    70b8:	9910      	ldr	r1, [sp, #64]	; 0x40
    70ba:	2330      	movs	r3, #48	; 0x30
    70bc:	3601      	adds	r6, #1
    70be:	2231      	movs	r2, #49	; 0x31
    70c0:	700b      	strb	r3, [r1, #0]
    70c2:	9b10      	ldr	r3, [sp, #64]	; 0x40
    70c4:	701a      	strb	r2, [r3, #0]
    70c6:	9612      	str	r6, [sp, #72]	; 0x48
    70c8:	e0b2      	b.n	7230 <_dtoa_r+0x838>
    70ca:	9a16      	ldr	r2, [sp, #88]	; 0x58
    70cc:	2a00      	cmp	r2, #0
    70ce:	f040 80df 	bne.w	7290 <_dtoa_r+0x898>
    70d2:	9f15      	ldr	r7, [sp, #84]	; 0x54
    70d4:	9d0f      	ldr	r5, [sp, #60]	; 0x3c
    70d6:	920c      	str	r2, [sp, #48]	; 0x30
    70d8:	2d00      	cmp	r5, #0
    70da:	bfd4      	ite	le
    70dc:	2300      	movle	r3, #0
    70de:	2301      	movgt	r3, #1
    70e0:	f1ba 0f00 	cmp.w	sl, #0
    70e4:	bfd4      	ite	le
    70e6:	2300      	movle	r3, #0
    70e8:	f003 0301 	andgt.w	r3, r3, #1
    70ec:	b14b      	cbz	r3, 7102 <_dtoa_r+0x70a>
    70ee:	45aa      	cmp	sl, r5
    70f0:	bfb4      	ite	lt
    70f2:	4653      	movlt	r3, sl
    70f4:	462b      	movge	r3, r5
    70f6:	980f      	ldr	r0, [sp, #60]	; 0x3c
    70f8:	ebc3 0a0a 	rsb	sl, r3, sl
    70fc:	1aed      	subs	r5, r5, r3
    70fe:	1ac0      	subs	r0, r0, r3
    7100:	900f      	str	r0, [sp, #60]	; 0x3c
    7102:	9915      	ldr	r1, [sp, #84]	; 0x54
    7104:	2900      	cmp	r1, #0
    7106:	dd1c      	ble.n	7142 <_dtoa_r+0x74a>
    7108:	9a16      	ldr	r2, [sp, #88]	; 0x58
    710a:	2a00      	cmp	r2, #0
    710c:	f000 82e9 	beq.w	76e2 <_dtoa_r+0xcea>
    7110:	2f00      	cmp	r7, #0
    7112:	dd12      	ble.n	713a <_dtoa_r+0x742>
    7114:	990c      	ldr	r1, [sp, #48]	; 0x30
    7116:	463a      	mov	r2, r7
    7118:	4620      	mov	r0, r4
    711a:	f001 fcab 	bl	8a74 <__pow5mult>
    711e:	465a      	mov	r2, fp
    7120:	900c      	str	r0, [sp, #48]	; 0x30
    7122:	4620      	mov	r0, r4
    7124:	990c      	ldr	r1, [sp, #48]	; 0x30
    7126:	f001 fbbd 	bl	88a4 <__multiply>
    712a:	4659      	mov	r1, fp
    712c:	4603      	mov	r3, r0
    712e:	4620      	mov	r0, r4
    7130:	9303      	str	r3, [sp, #12]
    7132:	f001 fa23 	bl	857c <_Bfree>
    7136:	9b03      	ldr	r3, [sp, #12]
    7138:	469b      	mov	fp, r3
    713a:	9b15      	ldr	r3, [sp, #84]	; 0x54
    713c:	1bda      	subs	r2, r3, r7
    713e:	f040 8311 	bne.w	7764 <_dtoa_r+0xd6c>
    7142:	2101      	movs	r1, #1
    7144:	4620      	mov	r0, r4
    7146:	f001 fc47 	bl	89d8 <__i2b>
    714a:	9006      	str	r0, [sp, #24]
    714c:	9817      	ldr	r0, [sp, #92]	; 0x5c
    714e:	2800      	cmp	r0, #0
    7150:	dd05      	ble.n	715e <_dtoa_r+0x766>
    7152:	9906      	ldr	r1, [sp, #24]
    7154:	4620      	mov	r0, r4
    7156:	9a17      	ldr	r2, [sp, #92]	; 0x5c
    7158:	f001 fc8c 	bl	8a74 <__pow5mult>
    715c:	9006      	str	r0, [sp, #24]
    715e:	992a      	ldr	r1, [sp, #168]	; 0xa8
    7160:	2901      	cmp	r1, #1
    7162:	f340 810a 	ble.w	737a <_dtoa_r+0x982>
    7166:	2700      	movs	r7, #0
    7168:	9b17      	ldr	r3, [sp, #92]	; 0x5c
    716a:	2b00      	cmp	r3, #0
    716c:	f040 8261 	bne.w	7632 <_dtoa_r+0xc3a>
    7170:	2301      	movs	r3, #1
    7172:	4453      	add	r3, sl
    7174:	f013 031f 	ands.w	r3, r3, #31
    7178:	f040 812a 	bne.w	73d0 <_dtoa_r+0x9d8>
    717c:	231c      	movs	r3, #28
    717e:	9a0f      	ldr	r2, [sp, #60]	; 0x3c
    7180:	449a      	add	sl, r3
    7182:	18ed      	adds	r5, r5, r3
    7184:	18d2      	adds	r2, r2, r3
    7186:	920f      	str	r2, [sp, #60]	; 0x3c
    7188:	9b0f      	ldr	r3, [sp, #60]	; 0x3c
    718a:	2b00      	cmp	r3, #0
    718c:	dd05      	ble.n	719a <_dtoa_r+0x7a2>
    718e:	4659      	mov	r1, fp
    7190:	461a      	mov	r2, r3
    7192:	4620      	mov	r0, r4
    7194:	f001 fb28 	bl	87e8 <__lshift>
    7198:	4683      	mov	fp, r0
    719a:	f1ba 0f00 	cmp.w	sl, #0
    719e:	dd05      	ble.n	71ac <_dtoa_r+0x7b4>
    71a0:	9906      	ldr	r1, [sp, #24]
    71a2:	4652      	mov	r2, sl
    71a4:	4620      	mov	r0, r4
    71a6:	f001 fb1f 	bl	87e8 <__lshift>
    71aa:	9006      	str	r0, [sp, #24]
    71ac:	9818      	ldr	r0, [sp, #96]	; 0x60
    71ae:	2800      	cmp	r0, #0
    71b0:	f040 8229 	bne.w	7606 <_dtoa_r+0xc0e>
    71b4:	982a      	ldr	r0, [sp, #168]	; 0xa8
    71b6:	9908      	ldr	r1, [sp, #32]
    71b8:	2802      	cmp	r0, #2
    71ba:	bfd4      	ite	le
    71bc:	2300      	movle	r3, #0
    71be:	2301      	movgt	r3, #1
    71c0:	2900      	cmp	r1, #0
    71c2:	bfcc      	ite	gt
    71c4:	2300      	movgt	r3, #0
    71c6:	f003 0301 	andle.w	r3, r3, #1
    71ca:	2b00      	cmp	r3, #0
    71cc:	f000 810c 	beq.w	73e8 <_dtoa_r+0x9f0>
    71d0:	2900      	cmp	r1, #0
    71d2:	f040 808c 	bne.w	72ee <_dtoa_r+0x8f6>
    71d6:	2205      	movs	r2, #5
    71d8:	9906      	ldr	r1, [sp, #24]
    71da:	9b08      	ldr	r3, [sp, #32]
    71dc:	4620      	mov	r0, r4
    71de:	f001 fc05 	bl	89ec <__multadd>
    71e2:	9006      	str	r0, [sp, #24]
    71e4:	4658      	mov	r0, fp
    71e6:	9906      	ldr	r1, [sp, #24]
    71e8:	f001 f88e 	bl	8308 <__mcmp>
    71ec:	2800      	cmp	r0, #0
    71ee:	dd7e      	ble.n	72ee <_dtoa_r+0x8f6>
    71f0:	9d10      	ldr	r5, [sp, #64]	; 0x40
    71f2:	3601      	adds	r6, #1
    71f4:	2700      	movs	r7, #0
    71f6:	f8dd a030 	ldr.w	sl, [sp, #48]	; 0x30
    71fa:	2331      	movs	r3, #49	; 0x31
    71fc:	f805 3b01 	strb.w	r3, [r5], #1
    7200:	9906      	ldr	r1, [sp, #24]
    7202:	4620      	mov	r0, r4
    7204:	f001 f9ba 	bl	857c <_Bfree>
    7208:	f1ba 0f00 	cmp.w	sl, #0
    720c:	f000 80d5 	beq.w	73ba <_dtoa_r+0x9c2>
    7210:	1e3b      	subs	r3, r7, #0
    7212:	bf18      	it	ne
    7214:	2301      	movne	r3, #1
    7216:	4557      	cmp	r7, sl
    7218:	bf0c      	ite	eq
    721a:	2300      	moveq	r3, #0
    721c:	f003 0301 	andne.w	r3, r3, #1
    7220:	2b00      	cmp	r3, #0
    7222:	f040 80d0 	bne.w	73c6 <_dtoa_r+0x9ce>
    7226:	4651      	mov	r1, sl
    7228:	4620      	mov	r0, r4
    722a:	f001 f9a7 	bl	857c <_Bfree>
    722e:	9612      	str	r6, [sp, #72]	; 0x48
    7230:	4620      	mov	r0, r4
    7232:	4659      	mov	r1, fp
    7234:	f001 f9a2 	bl	857c <_Bfree>
    7238:	9a12      	ldr	r2, [sp, #72]	; 0x48
    723a:	1c53      	adds	r3, r2, #1
    723c:	2200      	movs	r2, #0
    723e:	702a      	strb	r2, [r5, #0]
    7240:	982c      	ldr	r0, [sp, #176]	; 0xb0
    7242:	992e      	ldr	r1, [sp, #184]	; 0xb8
    7244:	6003      	str	r3, [r0, #0]
    7246:	2900      	cmp	r1, #0
    7248:	f000 81d4 	beq.w	75f4 <_dtoa_r+0xbfc>
    724c:	9a2e      	ldr	r2, [sp, #184]	; 0xb8
    724e:	9810      	ldr	r0, [sp, #64]	; 0x40
    7250:	6015      	str	r5, [r2, #0]
    7252:	e412      	b.n	6a7a <_dtoa_r+0x82>
    7254:	2010      	movs	r0, #16
    7256:	f000 fc91 	bl	7b7c <malloc>
    725a:	60c6      	str	r6, [r0, #12]
    725c:	6046      	str	r6, [r0, #4]
    725e:	6086      	str	r6, [r0, #8]
    7260:	6006      	str	r6, [r0, #0]
    7262:	4606      	mov	r6, r0
    7264:	6260      	str	r0, [r4, #36]	; 0x24
    7266:	f7ff bbd2 	b.w	6a0e <_dtoa_r+0x16>
    726a:	980f      	ldr	r0, [sp, #60]	; 0x3c
    726c:	4271      	negs	r1, r6
    726e:	2200      	movs	r2, #0
    7270:	9115      	str	r1, [sp, #84]	; 0x54
    7272:	1b80      	subs	r0, r0, r6
    7274:	9217      	str	r2, [sp, #92]	; 0x5c
    7276:	900f      	str	r0, [sp, #60]	; 0x3c
    7278:	e48a      	b.n	6b90 <_dtoa_r+0x198>
    727a:	2100      	movs	r1, #0
    727c:	3e01      	subs	r6, #1
    727e:	9118      	str	r1, [sp, #96]	; 0x60
    7280:	e472      	b.n	6b68 <_dtoa_r+0x170>
    7282:	e9dd 2306 	ldrd	r2, r3, [sp, #24]
    7286:	f04f 0802 	mov.w	r8, #2
    728a:	e9cd 2312 	strd	r2, r3, [sp, #72]	; 0x48
    728e:	e521      	b.n	6cd4 <_dtoa_r+0x2dc>
    7290:	982a      	ldr	r0, [sp, #168]	; 0xa8
    7292:	2801      	cmp	r0, #1
    7294:	f340 826c 	ble.w	7770 <_dtoa_r+0xd78>
    7298:	9a08      	ldr	r2, [sp, #32]
    729a:	9815      	ldr	r0, [sp, #84]	; 0x54
    729c:	1e53      	subs	r3, r2, #1
    729e:	4298      	cmp	r0, r3
    72a0:	f2c0 8258 	blt.w	7754 <_dtoa_r+0xd5c>
    72a4:	1ac7      	subs	r7, r0, r3
    72a6:	9b08      	ldr	r3, [sp, #32]
    72a8:	2b00      	cmp	r3, #0
    72aa:	bfa8      	it	ge
    72ac:	9d0f      	ldrge	r5, [sp, #60]	; 0x3c
    72ae:	f2c0 8273 	blt.w	7798 <_dtoa_r+0xda0>
    72b2:	9a0f      	ldr	r2, [sp, #60]	; 0x3c
    72b4:	4620      	mov	r0, r4
    72b6:	2101      	movs	r1, #1
    72b8:	449a      	add	sl, r3
    72ba:	18d2      	adds	r2, r2, r3
    72bc:	920f      	str	r2, [sp, #60]	; 0x3c
    72be:	f001 fb8b 	bl	89d8 <__i2b>
    72c2:	900c      	str	r0, [sp, #48]	; 0x30
    72c4:	e708      	b.n	70d8 <_dtoa_r+0x6e0>
    72c6:	9b08      	ldr	r3, [sp, #32]
    72c8:	b973      	cbnz	r3, 72e8 <_dtoa_r+0x8f0>
    72ca:	f240 0300 	movw	r3, #0
    72ce:	2200      	movs	r2, #0
    72d0:	f2c4 0314 	movt	r3, #16404	; 0x4014
    72d4:	e9dd 0104 	ldrd	r0, r1, [sp, #16]
    72d8:	f002 fb2c 	bl	9934 <__aeabi_dmul>
    72dc:	4642      	mov	r2, r8
    72de:	464b      	mov	r3, r9
    72e0:	f002 fdae 	bl	9e40 <__aeabi_dcmpge>
    72e4:	2800      	cmp	r0, #0
    72e6:	d06a      	beq.n	73be <_dtoa_r+0x9c6>
    72e8:	2200      	movs	r2, #0
    72ea:	9206      	str	r2, [sp, #24]
    72ec:	920c      	str	r2, [sp, #48]	; 0x30
    72ee:	9b2b      	ldr	r3, [sp, #172]	; 0xac
    72f0:	2700      	movs	r7, #0
    72f2:	f8dd a030 	ldr.w	sl, [sp, #48]	; 0x30
    72f6:	43de      	mvns	r6, r3
    72f8:	9d10      	ldr	r5, [sp, #64]	; 0x40
    72fa:	e781      	b.n	7200 <_dtoa_r+0x808>
    72fc:	2100      	movs	r1, #0
    72fe:	9116      	str	r1, [sp, #88]	; 0x58
    7300:	982b      	ldr	r0, [sp, #172]	; 0xac
    7302:	2800      	cmp	r0, #0
    7304:	f340 819f 	ble.w	7646 <_dtoa_r+0xc4e>
    7308:	982b      	ldr	r0, [sp, #172]	; 0xac
    730a:	4601      	mov	r1, r0
    730c:	9011      	str	r0, [sp, #68]	; 0x44
    730e:	9008      	str	r0, [sp, #32]
    7310:	6a65      	ldr	r5, [r4, #36]	; 0x24
    7312:	2200      	movs	r2, #0
    7314:	2917      	cmp	r1, #23
    7316:	606a      	str	r2, [r5, #4]
    7318:	f240 82ab 	bls.w	7872 <_dtoa_r+0xe7a>
    731c:	2304      	movs	r3, #4
    731e:	005b      	lsls	r3, r3, #1
    7320:	3201      	adds	r2, #1
    7322:	f103 0014 	add.w	r0, r3, #20
    7326:	4288      	cmp	r0, r1
    7328:	d9f9      	bls.n	731e <_dtoa_r+0x926>
    732a:	9b08      	ldr	r3, [sp, #32]
    732c:	606a      	str	r2, [r5, #4]
    732e:	2b0e      	cmp	r3, #14
    7330:	bf8c      	ite	hi
    7332:	2700      	movhi	r7, #0
    7334:	f007 0701 	andls.w	r7, r7, #1
    7338:	e49d      	b.n	6c76 <_dtoa_r+0x27e>
    733a:	2201      	movs	r2, #1
    733c:	9216      	str	r2, [sp, #88]	; 0x58
    733e:	9b2b      	ldr	r3, [sp, #172]	; 0xac
    7340:	18f3      	adds	r3, r6, r3
    7342:	9311      	str	r3, [sp, #68]	; 0x44
    7344:	1c59      	adds	r1, r3, #1
    7346:	2900      	cmp	r1, #0
    7348:	bfc8      	it	gt
    734a:	9108      	strgt	r1, [sp, #32]
    734c:	dce0      	bgt.n	7310 <_dtoa_r+0x918>
    734e:	290e      	cmp	r1, #14
    7350:	bf8c      	ite	hi
    7352:	2700      	movhi	r7, #0
    7354:	f007 0701 	andls.w	r7, r7, #1
    7358:	9108      	str	r1, [sp, #32]
    735a:	e489      	b.n	6c70 <_dtoa_r+0x278>
    735c:	2301      	movs	r3, #1
    735e:	9316      	str	r3, [sp, #88]	; 0x58
    7360:	e7ce      	b.n	7300 <_dtoa_r+0x908>
    7362:	2200      	movs	r2, #0
    7364:	9216      	str	r2, [sp, #88]	; 0x58
    7366:	e7ea      	b.n	733e <_dtoa_r+0x946>
    7368:	f04f 33ff 	mov.w	r3, #4294967295
    736c:	2700      	movs	r7, #0
    736e:	2001      	movs	r0, #1
    7370:	9311      	str	r3, [sp, #68]	; 0x44
    7372:	9016      	str	r0, [sp, #88]	; 0x58
    7374:	9308      	str	r3, [sp, #32]
    7376:	972b      	str	r7, [sp, #172]	; 0xac
    7378:	e47a      	b.n	6c70 <_dtoa_r+0x278>
    737a:	f1b8 0f00 	cmp.w	r8, #0
    737e:	f47f aef2 	bne.w	7166 <_dtoa_r+0x76e>
    7382:	f029 437f 	bic.w	r3, r9, #4278190080	; 0xff000000
    7386:	f423 0370 	bic.w	r3, r3, #15728640	; 0xf00000
    738a:	2b00      	cmp	r3, #0
    738c:	f47f aeeb 	bne.w	7166 <_dtoa_r+0x76e>
    7390:	f240 0300 	movw	r3, #0
    7394:	f6c7 73f0 	movt	r3, #32752	; 0x7ff0
    7398:	ea09 0303 	and.w	r3, r9, r3
    739c:	2b00      	cmp	r3, #0
    739e:	f43f aee2 	beq.w	7166 <_dtoa_r+0x76e>
    73a2:	9a0f      	ldr	r2, [sp, #60]	; 0x3c
    73a4:	f10a 0a01 	add.w	sl, sl, #1
    73a8:	2701      	movs	r7, #1
    73aa:	3201      	adds	r2, #1
    73ac:	920f      	str	r2, [sp, #60]	; 0x3c
    73ae:	e6db      	b.n	7168 <_dtoa_r+0x770>
    73b0:	4635      	mov	r5, r6
    73b2:	465c      	mov	r4, fp
    73b4:	9e0f      	ldr	r6, [sp, #60]	; 0x3c
    73b6:	f8dd b02c 	ldr.w	fp, [sp, #44]	; 0x2c
    73ba:	9612      	str	r6, [sp, #72]	; 0x48
    73bc:	e738      	b.n	7230 <_dtoa_r+0x838>
    73be:	2000      	movs	r0, #0
    73c0:	9006      	str	r0, [sp, #24]
    73c2:	900c      	str	r0, [sp, #48]	; 0x30
    73c4:	e714      	b.n	71f0 <_dtoa_r+0x7f8>
    73c6:	4639      	mov	r1, r7
    73c8:	4620      	mov	r0, r4
    73ca:	f001 f8d7 	bl	857c <_Bfree>
    73ce:	e72a      	b.n	7226 <_dtoa_r+0x82e>
    73d0:	f1c3 0320 	rsb	r3, r3, #32
    73d4:	2b04      	cmp	r3, #4
    73d6:	f340 8254 	ble.w	7882 <_dtoa_r+0xe8a>
    73da:	990f      	ldr	r1, [sp, #60]	; 0x3c
    73dc:	3b04      	subs	r3, #4
    73de:	449a      	add	sl, r3
    73e0:	18ed      	adds	r5, r5, r3
    73e2:	18c9      	adds	r1, r1, r3
    73e4:	910f      	str	r1, [sp, #60]	; 0x3c
    73e6:	e6cf      	b.n	7188 <_dtoa_r+0x790>
    73e8:	9916      	ldr	r1, [sp, #88]	; 0x58
    73ea:	2900      	cmp	r1, #0
    73ec:	f000 8131 	beq.w	7652 <_dtoa_r+0xc5a>
    73f0:	2d00      	cmp	r5, #0
    73f2:	dd05      	ble.n	7400 <_dtoa_r+0xa08>
    73f4:	990c      	ldr	r1, [sp, #48]	; 0x30
    73f6:	462a      	mov	r2, r5
    73f8:	4620      	mov	r0, r4
    73fa:	f001 f9f5 	bl	87e8 <__lshift>
    73fe:	900c      	str	r0, [sp, #48]	; 0x30
    7400:	2f00      	cmp	r7, #0
    7402:	f040 81ea 	bne.w	77da <_dtoa_r+0xde2>
    7406:	f8dd a030 	ldr.w	sl, [sp, #48]	; 0x30
    740a:	9d10      	ldr	r5, [sp, #64]	; 0x40
    740c:	2301      	movs	r3, #1
    740e:	f008 0001 	and.w	r0, r8, #1
    7412:	9f0c      	ldr	r7, [sp, #48]	; 0x30
    7414:	9011      	str	r0, [sp, #68]	; 0x44
    7416:	950f      	str	r5, [sp, #60]	; 0x3c
    7418:	461d      	mov	r5, r3
    741a:	960c      	str	r6, [sp, #48]	; 0x30
    741c:	9906      	ldr	r1, [sp, #24]
    741e:	4658      	mov	r0, fp
    7420:	f7ff fa5a 	bl	68d8 <quorem>
    7424:	4639      	mov	r1, r7
    7426:	3030      	adds	r0, #48	; 0x30
    7428:	900b      	str	r0, [sp, #44]	; 0x2c
    742a:	4658      	mov	r0, fp
    742c:	f000 ff6c 	bl	8308 <__mcmp>
    7430:	9906      	ldr	r1, [sp, #24]
    7432:	4652      	mov	r2, sl
    7434:	4606      	mov	r6, r0
    7436:	4620      	mov	r0, r4
    7438:	f001 f95a 	bl	86f0 <__mdiff>
    743c:	68c3      	ldr	r3, [r0, #12]
    743e:	4680      	mov	r8, r0
    7440:	2b00      	cmp	r3, #0
    7442:	d03d      	beq.n	74c0 <_dtoa_r+0xac8>
    7444:	f04f 0901 	mov.w	r9, #1
    7448:	4641      	mov	r1, r8
    744a:	4620      	mov	r0, r4
    744c:	f001 f896 	bl	857c <_Bfree>
    7450:	992a      	ldr	r1, [sp, #168]	; 0xa8
    7452:	ea59 0101 	orrs.w	r1, r9, r1
    7456:	d103      	bne.n	7460 <_dtoa_r+0xa68>
    7458:	9a11      	ldr	r2, [sp, #68]	; 0x44
    745a:	2a00      	cmp	r2, #0
    745c:	f000 81eb 	beq.w	7836 <_dtoa_r+0xe3e>
    7460:	2e00      	cmp	r6, #0
    7462:	f2c0 819e 	blt.w	77a2 <_dtoa_r+0xdaa>
    7466:	9a2a      	ldr	r2, [sp, #168]	; 0xa8
    7468:	4332      	orrs	r2, r6
    746a:	d103      	bne.n	7474 <_dtoa_r+0xa7c>
    746c:	9b11      	ldr	r3, [sp, #68]	; 0x44
    746e:	2b00      	cmp	r3, #0
    7470:	f000 8197 	beq.w	77a2 <_dtoa_r+0xdaa>
    7474:	f1b9 0f00 	cmp.w	r9, #0
    7478:	f300 81ce 	bgt.w	7818 <_dtoa_r+0xe20>
    747c:	990f      	ldr	r1, [sp, #60]	; 0x3c
    747e:	9a0b      	ldr	r2, [sp, #44]	; 0x2c
    7480:	f801 2b01 	strb.w	r2, [r1], #1
    7484:	9b08      	ldr	r3, [sp, #32]
    7486:	910f      	str	r1, [sp, #60]	; 0x3c
    7488:	429d      	cmp	r5, r3
    748a:	f000 81c2 	beq.w	7812 <_dtoa_r+0xe1a>
    748e:	4659      	mov	r1, fp
    7490:	220a      	movs	r2, #10
    7492:	2300      	movs	r3, #0
    7494:	4620      	mov	r0, r4
    7496:	f001 faa9 	bl	89ec <__multadd>
    749a:	4557      	cmp	r7, sl
    749c:	4639      	mov	r1, r7
    749e:	4683      	mov	fp, r0
    74a0:	d014      	beq.n	74cc <_dtoa_r+0xad4>
    74a2:	220a      	movs	r2, #10
    74a4:	2300      	movs	r3, #0
    74a6:	4620      	mov	r0, r4
    74a8:	3501      	adds	r5, #1
    74aa:	f001 fa9f 	bl	89ec <__multadd>
    74ae:	4651      	mov	r1, sl
    74b0:	220a      	movs	r2, #10
    74b2:	2300      	movs	r3, #0
    74b4:	4607      	mov	r7, r0
    74b6:	4620      	mov	r0, r4
    74b8:	f001 fa98 	bl	89ec <__multadd>
    74bc:	4682      	mov	sl, r0
    74be:	e7ad      	b.n	741c <_dtoa_r+0xa24>
    74c0:	4658      	mov	r0, fp
    74c2:	4641      	mov	r1, r8
    74c4:	f000 ff20 	bl	8308 <__mcmp>
    74c8:	4681      	mov	r9, r0
    74ca:	e7bd      	b.n	7448 <_dtoa_r+0xa50>
    74cc:	4620      	mov	r0, r4
    74ce:	220a      	movs	r2, #10
    74d0:	2300      	movs	r3, #0
    74d2:	3501      	adds	r5, #1
    74d4:	f001 fa8a 	bl	89ec <__multadd>
    74d8:	4607      	mov	r7, r0
    74da:	4682      	mov	sl, r0
    74dc:	e79e      	b.n	741c <_dtoa_r+0xa24>
    74de:	9612      	str	r6, [sp, #72]	; 0x48
    74e0:	f8dd c020 	ldr.w	ip, [sp, #32]
    74e4:	e459      	b.n	6d9a <_dtoa_r+0x3a2>
    74e6:	4275      	negs	r5, r6
    74e8:	2d00      	cmp	r5, #0
    74ea:	f040 8101 	bne.w	76f0 <_dtoa_r+0xcf8>
    74ee:	e9dd 0106 	ldrd	r0, r1, [sp, #24]
    74f2:	f04f 0802 	mov.w	r8, #2
    74f6:	e9cd 010c 	strd	r0, r1, [sp, #48]	; 0x30
    74fa:	e40c      	b.n	6d16 <_dtoa_r+0x31e>
    74fc:	f24b 2118 	movw	r1, #45592	; 0xb218
    7500:	4642      	mov	r2, r8
    7502:	f2c0 0100 	movt	r1, #0
    7506:	464b      	mov	r3, r9
    7508:	eb01 01cc 	add.w	r1, r1, ip, lsl #3
    750c:	f8cd c00c 	str.w	ip, [sp, #12]
    7510:	9d10      	ldr	r5, [sp, #64]	; 0x40
    7512:	e951 0102 	ldrd	r0, r1, [r1, #-8]
    7516:	f002 fa0d 	bl	9934 <__aeabi_dmul>
    751a:	e9cd 011a 	strd	r0, r1, [sp, #104]	; 0x68
    751e:	e9dd 010c 	ldrd	r0, r1, [sp, #48]	; 0x30
    7522:	f002 fca1 	bl	9e68 <__aeabi_d2iz>
    7526:	4607      	mov	r7, r0
    7528:	f002 f99e 	bl	9868 <__aeabi_i2d>
    752c:	460b      	mov	r3, r1
    752e:	4602      	mov	r2, r0
    7530:	e9dd 010c 	ldrd	r0, r1, [sp, #48]	; 0x30
    7534:	f002 f84a 	bl	95cc <__aeabi_dsub>
    7538:	f107 0330 	add.w	r3, r7, #48	; 0x30
    753c:	e9cd 010c 	strd	r0, r1, [sp, #48]	; 0x30
    7540:	f805 3b01 	strb.w	r3, [r5], #1
    7544:	f8dd c00c 	ldr.w	ip, [sp, #12]
    7548:	f1bc 0f01 	cmp.w	ip, #1
    754c:	d029      	beq.n	75a2 <_dtoa_r+0xbaa>
    754e:	46d1      	mov	r9, sl
    7550:	e9dd 010c 	ldrd	r0, r1, [sp, #48]	; 0x30
    7554:	46b2      	mov	sl, r6
    7556:	9e10      	ldr	r6, [sp, #64]	; 0x40
    7558:	951c      	str	r5, [sp, #112]	; 0x70
    755a:	2701      	movs	r7, #1
    755c:	4665      	mov	r5, ip
    755e:	46a0      	mov	r8, r4
    7560:	f240 0300 	movw	r3, #0
    7564:	2200      	movs	r2, #0
    7566:	f2c4 0324 	movt	r3, #16420	; 0x4024
    756a:	f002 f9e3 	bl	9934 <__aeabi_dmul>
    756e:	e9cd 010c 	strd	r0, r1, [sp, #48]	; 0x30
    7572:	f002 fc79 	bl	9e68 <__aeabi_d2iz>
    7576:	4604      	mov	r4, r0
    7578:	f002 f976 	bl	9868 <__aeabi_i2d>
    757c:	3430      	adds	r4, #48	; 0x30
    757e:	4602      	mov	r2, r0
    7580:	460b      	mov	r3, r1
    7582:	e9dd 010c 	ldrd	r0, r1, [sp, #48]	; 0x30
    7586:	f002 f821 	bl	95cc <__aeabi_dsub>
    758a:	55f4      	strb	r4, [r6, r7]
    758c:	3701      	adds	r7, #1
    758e:	42af      	cmp	r7, r5
    7590:	d1e6      	bne.n	7560 <_dtoa_r+0xb68>
    7592:	9d1c      	ldr	r5, [sp, #112]	; 0x70
    7594:	3f01      	subs	r7, #1
    7596:	4656      	mov	r6, sl
    7598:	4644      	mov	r4, r8
    759a:	46ca      	mov	sl, r9
    759c:	19ed      	adds	r5, r5, r7
    759e:	e9cd 010c 	strd	r0, r1, [sp, #48]	; 0x30
    75a2:	f240 0300 	movw	r3, #0
    75a6:	2200      	movs	r2, #0
    75a8:	f6c3 73e0 	movt	r3, #16352	; 0x3fe0
    75ac:	e9dd 011a 	ldrd	r0, r1, [sp, #104]	; 0x68
    75b0:	f002 f80e 	bl	95d0 <__adddf3>
    75b4:	4602      	mov	r2, r0
    75b6:	460b      	mov	r3, r1
    75b8:	e9dd 010c 	ldrd	r0, r1, [sp, #48]	; 0x30
    75bc:	f002 fc4a 	bl	9e54 <__aeabi_dcmpgt>
    75c0:	b9f0      	cbnz	r0, 7600 <_dtoa_r+0xc08>
    75c2:	f240 0100 	movw	r1, #0
    75c6:	e9dd 231a 	ldrd	r2, r3, [sp, #104]	; 0x68
    75ca:	2000      	movs	r0, #0
    75cc:	f6c3 71e0 	movt	r1, #16352	; 0x3fe0
    75d0:	f001 fffc 	bl	95cc <__aeabi_dsub>
    75d4:	4602      	mov	r2, r0
    75d6:	460b      	mov	r3, r1
    75d8:	e9dd 010c 	ldrd	r0, r1, [sp, #48]	; 0x30
    75dc:	f002 fc1c 	bl	9e18 <__aeabi_dcmplt>
    75e0:	2800      	cmp	r0, #0
    75e2:	f43f acac 	beq.w	6f3e <_dtoa_r+0x546>
    75e6:	462b      	mov	r3, r5
    75e8:	461d      	mov	r5, r3
    75ea:	f813 2d01 	ldrb.w	r2, [r3, #-1]!
    75ee:	2a30      	cmp	r2, #48	; 0x30
    75f0:	d0fa      	beq.n	75e8 <_dtoa_r+0xbf0>
    75f2:	e61d      	b.n	7230 <_dtoa_r+0x838>
    75f4:	9810      	ldr	r0, [sp, #64]	; 0x40
    75f6:	f7ff ba40 	b.w	6a7a <_dtoa_r+0x82>
    75fa:	f8dd b068 	ldr.w	fp, [sp, #104]	; 0x68
    75fe:	9c0c      	ldr	r4, [sp, #48]	; 0x30
    7600:	9e12      	ldr	r6, [sp, #72]	; 0x48
    7602:	9910      	ldr	r1, [sp, #64]	; 0x40
    7604:	e550      	b.n	70a8 <_dtoa_r+0x6b0>
    7606:	4658      	mov	r0, fp
    7608:	9906      	ldr	r1, [sp, #24]
    760a:	f000 fe7d 	bl	8308 <__mcmp>
    760e:	2800      	cmp	r0, #0
    7610:	f6bf add0 	bge.w	71b4 <_dtoa_r+0x7bc>
    7614:	4659      	mov	r1, fp
    7616:	4620      	mov	r0, r4
    7618:	220a      	movs	r2, #10
    761a:	2300      	movs	r3, #0
    761c:	f001 f9e6 	bl	89ec <__multadd>
    7620:	9916      	ldr	r1, [sp, #88]	; 0x58
    7622:	3e01      	subs	r6, #1
    7624:	4683      	mov	fp, r0
    7626:	2900      	cmp	r1, #0
    7628:	f040 8119 	bne.w	785e <_dtoa_r+0xe66>
    762c:	9a11      	ldr	r2, [sp, #68]	; 0x44
    762e:	9208      	str	r2, [sp, #32]
    7630:	e5c0      	b.n	71b4 <_dtoa_r+0x7bc>
    7632:	9806      	ldr	r0, [sp, #24]
    7634:	6903      	ldr	r3, [r0, #16]
    7636:	eb00 0383 	add.w	r3, r0, r3, lsl #2
    763a:	6918      	ldr	r0, [r3, #16]
    763c:	f000 fe12 	bl	8264 <__hi0bits>
    7640:	f1c0 0320 	rsb	r3, r0, #32
    7644:	e595      	b.n	7172 <_dtoa_r+0x77a>
    7646:	2101      	movs	r1, #1
    7648:	9111      	str	r1, [sp, #68]	; 0x44
    764a:	9108      	str	r1, [sp, #32]
    764c:	912b      	str	r1, [sp, #172]	; 0xac
    764e:	f7ff bb0f 	b.w	6c70 <_dtoa_r+0x278>
    7652:	9d10      	ldr	r5, [sp, #64]	; 0x40
    7654:	46b1      	mov	r9, r6
    7656:	9f16      	ldr	r7, [sp, #88]	; 0x58
    7658:	46aa      	mov	sl, r5
    765a:	f8dd 8018 	ldr.w	r8, [sp, #24]
    765e:	9e08      	ldr	r6, [sp, #32]
    7660:	e002      	b.n	7668 <_dtoa_r+0xc70>
    7662:	f001 f9c3 	bl	89ec <__multadd>
    7666:	4683      	mov	fp, r0
    7668:	4641      	mov	r1, r8
    766a:	4658      	mov	r0, fp
    766c:	f7ff f934 	bl	68d8 <quorem>
    7670:	3501      	adds	r5, #1
    7672:	220a      	movs	r2, #10
    7674:	2300      	movs	r3, #0
    7676:	4659      	mov	r1, fp
    7678:	f100 0c30 	add.w	ip, r0, #48	; 0x30
    767c:	f80a c007 	strb.w	ip, [sl, r7]
    7680:	3701      	adds	r7, #1
    7682:	4620      	mov	r0, r4
    7684:	42be      	cmp	r6, r7
    7686:	dcec      	bgt.n	7662 <_dtoa_r+0xc6a>
    7688:	f8dd a030 	ldr.w	sl, [sp, #48]	; 0x30
    768c:	464e      	mov	r6, r9
    768e:	2700      	movs	r7, #0
    7690:	f8cd c02c 	str.w	ip, [sp, #44]	; 0x2c
    7694:	4659      	mov	r1, fp
    7696:	2201      	movs	r2, #1
    7698:	4620      	mov	r0, r4
    769a:	f001 f8a5 	bl	87e8 <__lshift>
    769e:	9906      	ldr	r1, [sp, #24]
    76a0:	4683      	mov	fp, r0
    76a2:	f000 fe31 	bl	8308 <__mcmp>
    76a6:	2800      	cmp	r0, #0
    76a8:	dd0f      	ble.n	76ca <_dtoa_r+0xcd2>
    76aa:	9910      	ldr	r1, [sp, #64]	; 0x40
    76ac:	e000      	b.n	76b0 <_dtoa_r+0xcb8>
    76ae:	461d      	mov	r5, r3
    76b0:	f815 2c01 	ldrb.w	r2, [r5, #-1]
    76b4:	1e6b      	subs	r3, r5, #1
    76b6:	2a39      	cmp	r2, #57	; 0x39
    76b8:	f040 808c 	bne.w	77d4 <_dtoa_r+0xddc>
    76bc:	428b      	cmp	r3, r1
    76be:	d1f6      	bne.n	76ae <_dtoa_r+0xcb6>
    76c0:	9910      	ldr	r1, [sp, #64]	; 0x40
    76c2:	2331      	movs	r3, #49	; 0x31
    76c4:	3601      	adds	r6, #1
    76c6:	700b      	strb	r3, [r1, #0]
    76c8:	e59a      	b.n	7200 <_dtoa_r+0x808>
    76ca:	d103      	bne.n	76d4 <_dtoa_r+0xcdc>
    76cc:	980b      	ldr	r0, [sp, #44]	; 0x2c
    76ce:	f010 0f01 	tst.w	r0, #1
    76d2:	d1ea      	bne.n	76aa <_dtoa_r+0xcb2>
    76d4:	462b      	mov	r3, r5
    76d6:	461d      	mov	r5, r3
    76d8:	f813 2d01 	ldrb.w	r2, [r3, #-1]!
    76dc:	2a30      	cmp	r2, #48	; 0x30
    76de:	d0fa      	beq.n	76d6 <_dtoa_r+0xcde>
    76e0:	e58e      	b.n	7200 <_dtoa_r+0x808>
    76e2:	4659      	mov	r1, fp
    76e4:	9a15      	ldr	r2, [sp, #84]	; 0x54
    76e6:	4620      	mov	r0, r4
    76e8:	f001 f9c4 	bl	8a74 <__pow5mult>
    76ec:	4683      	mov	fp, r0
    76ee:	e528      	b.n	7142 <_dtoa_r+0x74a>
    76f0:	f005 030f 	and.w	r3, r5, #15
    76f4:	f24b 2218 	movw	r2, #45592	; 0xb218
    76f8:	f2c0 0200 	movt	r2, #0
    76fc:	e9dd 0106 	ldrd	r0, r1, [sp, #24]
    7700:	eb02 03c3 	add.w	r3, r2, r3, lsl #3
    7704:	e9d3 2300 	ldrd	r2, r3, [r3]
    7708:	f002 f914 	bl	9934 <__aeabi_dmul>
    770c:	112d      	asrs	r5, r5, #4
    770e:	bf08      	it	eq
    7710:	f04f 0802 	moveq.w	r8, #2
    7714:	e9cd 010c 	strd	r0, r1, [sp, #48]	; 0x30
    7718:	f43f aafd 	beq.w	6d16 <_dtoa_r+0x31e>
    771c:	f24b 27f0 	movw	r7, #45808	; 0xb2f0
    7720:	e9dd 230c 	ldrd	r2, r3, [sp, #48]	; 0x30
    7724:	f04f 0802 	mov.w	r8, #2
    7728:	f2c0 0700 	movt	r7, #0
    772c:	f015 0f01 	tst.w	r5, #1
    7730:	4610      	mov	r0, r2
    7732:	4619      	mov	r1, r3
    7734:	d007      	beq.n	7746 <_dtoa_r+0xd4e>
    7736:	e9d7 2300 	ldrd	r2, r3, [r7]
    773a:	f108 0801 	add.w	r8, r8, #1
    773e:	f002 f8f9 	bl	9934 <__aeabi_dmul>
    7742:	4602      	mov	r2, r0
    7744:	460b      	mov	r3, r1
    7746:	3708      	adds	r7, #8
    7748:	106d      	asrs	r5, r5, #1
    774a:	d1ef      	bne.n	772c <_dtoa_r+0xd34>
    774c:	e9cd 230c 	strd	r2, r3, [sp, #48]	; 0x30
    7750:	f7ff bae1 	b.w	6d16 <_dtoa_r+0x31e>
    7754:	9915      	ldr	r1, [sp, #84]	; 0x54
    7756:	9a17      	ldr	r2, [sp, #92]	; 0x5c
    7758:	1a5b      	subs	r3, r3, r1
    775a:	18c9      	adds	r1, r1, r3
    775c:	18d2      	adds	r2, r2, r3
    775e:	9115      	str	r1, [sp, #84]	; 0x54
    7760:	9217      	str	r2, [sp, #92]	; 0x5c
    7762:	e5a0      	b.n	72a6 <_dtoa_r+0x8ae>
    7764:	4659      	mov	r1, fp
    7766:	4620      	mov	r0, r4
    7768:	f001 f984 	bl	8a74 <__pow5mult>
    776c:	4683      	mov	fp, r0
    776e:	e4e8      	b.n	7142 <_dtoa_r+0x74a>
    7770:	9919      	ldr	r1, [sp, #100]	; 0x64
    7772:	2900      	cmp	r1, #0
    7774:	d047      	beq.n	7806 <_dtoa_r+0xe0e>
    7776:	f503 6386 	add.w	r3, r3, #1072	; 0x430
    777a:	9f15      	ldr	r7, [sp, #84]	; 0x54
    777c:	3303      	adds	r3, #3
    777e:	9d0f      	ldr	r5, [sp, #60]	; 0x3c
    7780:	e597      	b.n	72b2 <_dtoa_r+0x8ba>
    7782:	3201      	adds	r2, #1
    7784:	b2d2      	uxtb	r2, r2
    7786:	e49d      	b.n	70c4 <_dtoa_r+0x6cc>
    7788:	f8dd b068 	ldr.w	fp, [sp, #104]	; 0x68
    778c:	f8dd a070 	ldr.w	sl, [sp, #112]	; 0x70
    7790:	9e1d      	ldr	r6, [sp, #116]	; 0x74
    7792:	9c0c      	ldr	r4, [sp, #48]	; 0x30
    7794:	f7ff bbd3 	b.w	6f3e <_dtoa_r+0x546>
    7798:	990f      	ldr	r1, [sp, #60]	; 0x3c
    779a:	2300      	movs	r3, #0
    779c:	9808      	ldr	r0, [sp, #32]
    779e:	1a0d      	subs	r5, r1, r0
    77a0:	e587      	b.n	72b2 <_dtoa_r+0x8ba>
    77a2:	f1b9 0f00 	cmp.w	r9, #0
    77a6:	9d0f      	ldr	r5, [sp, #60]	; 0x3c
    77a8:	9e0c      	ldr	r6, [sp, #48]	; 0x30
    77aa:	dd0f      	ble.n	77cc <_dtoa_r+0xdd4>
    77ac:	4659      	mov	r1, fp
    77ae:	2201      	movs	r2, #1
    77b0:	4620      	mov	r0, r4
    77b2:	f001 f819 	bl	87e8 <__lshift>
    77b6:	9906      	ldr	r1, [sp, #24]
    77b8:	4683      	mov	fp, r0
    77ba:	f000 fda5 	bl	8308 <__mcmp>
    77be:	2800      	cmp	r0, #0
    77c0:	dd47      	ble.n	7852 <_dtoa_r+0xe5a>
    77c2:	990b      	ldr	r1, [sp, #44]	; 0x2c
    77c4:	2939      	cmp	r1, #57	; 0x39
    77c6:	d031      	beq.n	782c <_dtoa_r+0xe34>
    77c8:	3101      	adds	r1, #1
    77ca:	910b      	str	r1, [sp, #44]	; 0x2c
    77cc:	9a0b      	ldr	r2, [sp, #44]	; 0x2c
    77ce:	f805 2b01 	strb.w	r2, [r5], #1
    77d2:	e515      	b.n	7200 <_dtoa_r+0x808>
    77d4:	3201      	adds	r2, #1
    77d6:	701a      	strb	r2, [r3, #0]
    77d8:	e512      	b.n	7200 <_dtoa_r+0x808>
    77da:	9a0c      	ldr	r2, [sp, #48]	; 0x30
    77dc:	4620      	mov	r0, r4
    77de:	6851      	ldr	r1, [r2, #4]
    77e0:	f000 fee8 	bl	85b4 <_Balloc>
    77e4:	9b0c      	ldr	r3, [sp, #48]	; 0x30
    77e6:	f103 010c 	add.w	r1, r3, #12
    77ea:	691a      	ldr	r2, [r3, #16]
    77ec:	3202      	adds	r2, #2
    77ee:	0092      	lsls	r2, r2, #2
    77f0:	4605      	mov	r5, r0
    77f2:	300c      	adds	r0, #12
    77f4:	f7fd fc66 	bl	50c4 <memcpy>
    77f8:	4620      	mov	r0, r4
    77fa:	4629      	mov	r1, r5
    77fc:	2201      	movs	r2, #1
    77fe:	f000 fff3 	bl	87e8 <__lshift>
    7802:	4682      	mov	sl, r0
    7804:	e601      	b.n	740a <_dtoa_r+0xa12>
    7806:	9b1f      	ldr	r3, [sp, #124]	; 0x7c
    7808:	9f15      	ldr	r7, [sp, #84]	; 0x54
    780a:	9d0f      	ldr	r5, [sp, #60]	; 0x3c
    780c:	f1c3 0336 	rsb	r3, r3, #54	; 0x36
    7810:	e54f      	b.n	72b2 <_dtoa_r+0x8ba>
    7812:	9d0f      	ldr	r5, [sp, #60]	; 0x3c
    7814:	9e0c      	ldr	r6, [sp, #48]	; 0x30
    7816:	e73d      	b.n	7694 <_dtoa_r+0xc9c>
    7818:	9b0b      	ldr	r3, [sp, #44]	; 0x2c
    781a:	9d0f      	ldr	r5, [sp, #60]	; 0x3c
    781c:	2b39      	cmp	r3, #57	; 0x39
    781e:	9e0c      	ldr	r6, [sp, #48]	; 0x30
    7820:	d004      	beq.n	782c <_dtoa_r+0xe34>
    7822:	980b      	ldr	r0, [sp, #44]	; 0x2c
    7824:	1c43      	adds	r3, r0, #1
    7826:	f805 3b01 	strb.w	r3, [r5], #1
    782a:	e4e9      	b.n	7200 <_dtoa_r+0x808>
    782c:	2339      	movs	r3, #57	; 0x39
    782e:	f805 3b01 	strb.w	r3, [r5], #1
    7832:	9910      	ldr	r1, [sp, #64]	; 0x40
    7834:	e73c      	b.n	76b0 <_dtoa_r+0xcb8>
    7836:	980b      	ldr	r0, [sp, #44]	; 0x2c
    7838:	4633      	mov	r3, r6
    783a:	9d0f      	ldr	r5, [sp, #60]	; 0x3c
    783c:	2839      	cmp	r0, #57	; 0x39
    783e:	9e0c      	ldr	r6, [sp, #48]	; 0x30
    7840:	d0f4      	beq.n	782c <_dtoa_r+0xe34>
    7842:	2b00      	cmp	r3, #0
    7844:	dd01      	ble.n	784a <_dtoa_r+0xe52>
    7846:	3001      	adds	r0, #1
    7848:	900b      	str	r0, [sp, #44]	; 0x2c
    784a:	990b      	ldr	r1, [sp, #44]	; 0x2c
    784c:	f805 1b01 	strb.w	r1, [r5], #1
    7850:	e4d6      	b.n	7200 <_dtoa_r+0x808>
    7852:	d1bb      	bne.n	77cc <_dtoa_r+0xdd4>
    7854:	980b      	ldr	r0, [sp, #44]	; 0x2c
    7856:	f010 0f01 	tst.w	r0, #1
    785a:	d0b7      	beq.n	77cc <_dtoa_r+0xdd4>
    785c:	e7b1      	b.n	77c2 <_dtoa_r+0xdca>
    785e:	2300      	movs	r3, #0
    7860:	990c      	ldr	r1, [sp, #48]	; 0x30
    7862:	4620      	mov	r0, r4
    7864:	220a      	movs	r2, #10
    7866:	f001 f8c1 	bl	89ec <__multadd>
    786a:	9b11      	ldr	r3, [sp, #68]	; 0x44
    786c:	9308      	str	r3, [sp, #32]
    786e:	900c      	str	r0, [sp, #48]	; 0x30
    7870:	e4a0      	b.n	71b4 <_dtoa_r+0x7bc>
    7872:	9908      	ldr	r1, [sp, #32]
    7874:	290e      	cmp	r1, #14
    7876:	bf8c      	ite	hi
    7878:	2700      	movhi	r7, #0
    787a:	f007 0701 	andls.w	r7, r7, #1
    787e:	f7ff b9fa 	b.w	6c76 <_dtoa_r+0x27e>
    7882:	f43f ac81 	beq.w	7188 <_dtoa_r+0x790>
    7886:	331c      	adds	r3, #28
    7888:	e479      	b.n	717e <_dtoa_r+0x786>
    788a:	2701      	movs	r7, #1
    788c:	f7ff b98a 	b.w	6ba4 <_dtoa_r+0x1ac>

00007890 <_malloc_trim_r>:
    7890:	b5f8      	push	{r3, r4, r5, r6, r7, lr}
    7892:	f240 1428 	movw	r4, #296	; 0x128
    7896:	f2c2 0400 	movt	r4, #8192	; 0x2000
    789a:	460f      	mov	r7, r1
    789c:	4605      	mov	r5, r0
    789e:	f000 fcdd 	bl	825c <__malloc_lock>
    78a2:	68a3      	ldr	r3, [r4, #8]
    78a4:	685e      	ldr	r6, [r3, #4]
    78a6:	f026 0603 	bic.w	r6, r6, #3
    78aa:	f506 637e 	add.w	r3, r6, #4064	; 0xfe0
    78ae:	330f      	adds	r3, #15
    78b0:	1bdf      	subs	r7, r3, r7
    78b2:	0b3f      	lsrs	r7, r7, #12
    78b4:	3f01      	subs	r7, #1
    78b6:	033f      	lsls	r7, r7, #12
    78b8:	f5b7 5f80 	cmp.w	r7, #4096	; 0x1000
    78bc:	db07      	blt.n	78ce <_malloc_trim_r+0x3e>
    78be:	2100      	movs	r1, #0
    78c0:	4628      	mov	r0, r5
    78c2:	f001 fb75 	bl	8fb0 <_sbrk_r>
    78c6:	68a3      	ldr	r3, [r4, #8]
    78c8:	18f3      	adds	r3, r6, r3
    78ca:	4283      	cmp	r3, r0
    78cc:	d004      	beq.n	78d8 <_malloc_trim_r+0x48>
    78ce:	4628      	mov	r0, r5
    78d0:	f000 fcc6 	bl	8260 <__malloc_unlock>
    78d4:	2000      	movs	r0, #0
    78d6:	bdf8      	pop	{r3, r4, r5, r6, r7, pc}
    78d8:	4279      	negs	r1, r7
    78da:	4628      	mov	r0, r5
    78dc:	f001 fb68 	bl	8fb0 <_sbrk_r>
    78e0:	f1b0 3fff 	cmp.w	r0, #4294967295
    78e4:	d010      	beq.n	7908 <_malloc_trim_r+0x78>
    78e6:	68a2      	ldr	r2, [r4, #8]
    78e8:	f240 73a4 	movw	r3, #1956	; 0x7a4
    78ec:	f2c2 0300 	movt	r3, #8192	; 0x2000
    78f0:	1bf6      	subs	r6, r6, r7
    78f2:	f046 0601 	orr.w	r6, r6, #1
    78f6:	4628      	mov	r0, r5
    78f8:	6056      	str	r6, [r2, #4]
    78fa:	681a      	ldr	r2, [r3, #0]
    78fc:	1bd7      	subs	r7, r2, r7
    78fe:	601f      	str	r7, [r3, #0]
    7900:	f000 fcae 	bl	8260 <__malloc_unlock>
    7904:	2001      	movs	r0, #1
    7906:	bdf8      	pop	{r3, r4, r5, r6, r7, pc}
    7908:	2100      	movs	r1, #0
    790a:	4628      	mov	r0, r5
    790c:	f001 fb50 	bl	8fb0 <_sbrk_r>
    7910:	68a3      	ldr	r3, [r4, #8]
    7912:	1ac2      	subs	r2, r0, r3
    7914:	2a0f      	cmp	r2, #15
    7916:	ddda      	ble.n	78ce <_malloc_trim_r+0x3e>
    7918:	f240 5430 	movw	r4, #1328	; 0x530
    791c:	f240 71a4 	movw	r1, #1956	; 0x7a4
    7920:	f2c2 0400 	movt	r4, #8192	; 0x2000
    7924:	f2c2 0100 	movt	r1, #8192	; 0x2000
    7928:	f042 0201 	orr.w	r2, r2, #1
    792c:	6824      	ldr	r4, [r4, #0]
    792e:	1b00      	subs	r0, r0, r4
    7930:	6008      	str	r0, [r1, #0]
    7932:	605a      	str	r2, [r3, #4]
    7934:	e7cb      	b.n	78ce <_malloc_trim_r+0x3e>
    7936:	bf00      	nop

00007938 <_free_r>:
    7938:	e92d 41f0 	stmdb	sp!, {r4, r5, r6, r7, r8, lr}
    793c:	4605      	mov	r5, r0
    793e:	460c      	mov	r4, r1
    7940:	2900      	cmp	r1, #0
    7942:	f000 8088 	beq.w	7a56 <_free_r+0x11e>
    7946:	f000 fc89 	bl	825c <__malloc_lock>
    794a:	f1a4 0208 	sub.w	r2, r4, #8
    794e:	f240 1028 	movw	r0, #296	; 0x128
    7952:	6856      	ldr	r6, [r2, #4]
    7954:	f2c2 0000 	movt	r0, #8192	; 0x2000
    7958:	f026 0301 	bic.w	r3, r6, #1
    795c:	f8d0 c008 	ldr.w	ip, [r0, #8]
    7960:	18d1      	adds	r1, r2, r3
    7962:	458c      	cmp	ip, r1
    7964:	684f      	ldr	r7, [r1, #4]
    7966:	f027 0703 	bic.w	r7, r7, #3
    796a:	f000 8095 	beq.w	7a98 <_free_r+0x160>
    796e:	f016 0601 	ands.w	r6, r6, #1
    7972:	604f      	str	r7, [r1, #4]
    7974:	d05f      	beq.n	7a36 <_free_r+0xfe>
    7976:	2600      	movs	r6, #0
    7978:	19cc      	adds	r4, r1, r7
    797a:	6864      	ldr	r4, [r4, #4]
    797c:	f014 0f01 	tst.w	r4, #1
    7980:	d106      	bne.n	7990 <_free_r+0x58>
    7982:	19db      	adds	r3, r3, r7
    7984:	2e00      	cmp	r6, #0
    7986:	d07a      	beq.n	7a7e <_free_r+0x146>
    7988:	688c      	ldr	r4, [r1, #8]
    798a:	68c9      	ldr	r1, [r1, #12]
    798c:	608c      	str	r4, [r1, #8]
    798e:	60e1      	str	r1, [r4, #12]
    7990:	f043 0101 	orr.w	r1, r3, #1
    7994:	50d3      	str	r3, [r2, r3]
    7996:	6051      	str	r1, [r2, #4]
    7998:	2e00      	cmp	r6, #0
    799a:	d147      	bne.n	7a2c <_free_r+0xf4>
    799c:	f5b3 7f00 	cmp.w	r3, #512	; 0x200
    79a0:	d35b      	bcc.n	7a5a <_free_r+0x122>
    79a2:	0a59      	lsrs	r1, r3, #9
    79a4:	2904      	cmp	r1, #4
    79a6:	bf9e      	ittt	ls
    79a8:	ea4f 1c93 	movls.w	ip, r3, lsr #6
    79ac:	f10c 0c38 	addls.w	ip, ip, #56	; 0x38
    79b0:	ea4f 04cc 	movls.w	r4, ip, lsl #3
    79b4:	d928      	bls.n	7a08 <_free_r+0xd0>
    79b6:	2914      	cmp	r1, #20
    79b8:	bf9c      	itt	ls
    79ba:	f101 0c5b 	addls.w	ip, r1, #91	; 0x5b
    79be:	ea4f 04cc 	movls.w	r4, ip, lsl #3
    79c2:	d921      	bls.n	7a08 <_free_r+0xd0>
    79c4:	2954      	cmp	r1, #84	; 0x54
    79c6:	bf9e      	ittt	ls
    79c8:	ea4f 3c13 	movls.w	ip, r3, lsr #12
    79cc:	f10c 0c6e 	addls.w	ip, ip, #110	; 0x6e
    79d0:	ea4f 04cc 	movls.w	r4, ip, lsl #3
    79d4:	d918      	bls.n	7a08 <_free_r+0xd0>
    79d6:	f5b1 7faa 	cmp.w	r1, #340	; 0x154
    79da:	bf9e      	ittt	ls
    79dc:	ea4f 3cd3 	movls.w	ip, r3, lsr #15
    79e0:	f10c 0c77 	addls.w	ip, ip, #119	; 0x77
    79e4:	ea4f 04cc 	movls.w	r4, ip, lsl #3
    79e8:	d90e      	bls.n	7a08 <_free_r+0xd0>
    79ea:	f240 5c54 	movw	ip, #1364	; 0x554
    79ee:	4561      	cmp	r1, ip
    79f0:	bf95      	itete	ls
    79f2:	ea4f 4c93 	movls.w	ip, r3, lsr #18
    79f6:	f44f 747c 	movhi.w	r4, #1008	; 0x3f0
    79fa:	f10c 0c7c 	addls.w	ip, ip, #124	; 0x7c
    79fe:	f04f 0c7e 	movhi.w	ip, #126	; 0x7e
    7a02:	bf98      	it	ls
    7a04:	ea4f 04cc 	movls.w	r4, ip, lsl #3
    7a08:	1904      	adds	r4, r0, r4
    7a0a:	68a1      	ldr	r1, [r4, #8]
    7a0c:	42a1      	cmp	r1, r4
    7a0e:	d103      	bne.n	7a18 <_free_r+0xe0>
    7a10:	e064      	b.n	7adc <_free_r+0x1a4>
    7a12:	6889      	ldr	r1, [r1, #8]
    7a14:	428c      	cmp	r4, r1
    7a16:	d004      	beq.n	7a22 <_free_r+0xea>
    7a18:	6848      	ldr	r0, [r1, #4]
    7a1a:	f020 0003 	bic.w	r0, r0, #3
    7a1e:	4283      	cmp	r3, r0
    7a20:	d3f7      	bcc.n	7a12 <_free_r+0xda>
    7a22:	68cb      	ldr	r3, [r1, #12]
    7a24:	60d3      	str	r3, [r2, #12]
    7a26:	6091      	str	r1, [r2, #8]
    7a28:	60ca      	str	r2, [r1, #12]
    7a2a:	609a      	str	r2, [r3, #8]
    7a2c:	4628      	mov	r0, r5
    7a2e:	e8bd 41f0 	ldmia.w	sp!, {r4, r5, r6, r7, r8, lr}
    7a32:	f000 bc15 	b.w	8260 <__malloc_unlock>
    7a36:	f854 4c08 	ldr.w	r4, [r4, #-8]
    7a3a:	f100 0c08 	add.w	ip, r0, #8
    7a3e:	1b12      	subs	r2, r2, r4
    7a40:	191b      	adds	r3, r3, r4
    7a42:	6894      	ldr	r4, [r2, #8]
    7a44:	4564      	cmp	r4, ip
    7a46:	d047      	beq.n	7ad8 <_free_r+0x1a0>
    7a48:	f8d2 c00c 	ldr.w	ip, [r2, #12]
    7a4c:	f8cc 4008 	str.w	r4, [ip, #8]
    7a50:	f8c4 c00c 	str.w	ip, [r4, #12]
    7a54:	e790      	b.n	7978 <_free_r+0x40>
    7a56:	e8bd 81f0 	ldmia.w	sp!, {r4, r5, r6, r7, r8, pc}
    7a5a:	08db      	lsrs	r3, r3, #3
    7a5c:	f04f 0c01 	mov.w	ip, #1
    7a60:	6846      	ldr	r6, [r0, #4]
    7a62:	eb00 01c3 	add.w	r1, r0, r3, lsl #3
    7a66:	109b      	asrs	r3, r3, #2
    7a68:	fa0c f303 	lsl.w	r3, ip, r3
    7a6c:	60d1      	str	r1, [r2, #12]
    7a6e:	688c      	ldr	r4, [r1, #8]
    7a70:	ea46 0303 	orr.w	r3, r6, r3
    7a74:	6043      	str	r3, [r0, #4]
    7a76:	6094      	str	r4, [r2, #8]
    7a78:	60e2      	str	r2, [r4, #12]
    7a7a:	608a      	str	r2, [r1, #8]
    7a7c:	e7d6      	b.n	7a2c <_free_r+0xf4>
    7a7e:	688c      	ldr	r4, [r1, #8]
    7a80:	4f1c      	ldr	r7, [pc, #112]	; (7af4 <_free_r+0x1bc>)
    7a82:	42bc      	cmp	r4, r7
    7a84:	d181      	bne.n	798a <_free_r+0x52>
    7a86:	50d3      	str	r3, [r2, r3]
    7a88:	f043 0301 	orr.w	r3, r3, #1
    7a8c:	60e2      	str	r2, [r4, #12]
    7a8e:	60a2      	str	r2, [r4, #8]
    7a90:	6053      	str	r3, [r2, #4]
    7a92:	6094      	str	r4, [r2, #8]
    7a94:	60d4      	str	r4, [r2, #12]
    7a96:	e7c9      	b.n	7a2c <_free_r+0xf4>
    7a98:	18fb      	adds	r3, r7, r3
    7a9a:	f016 0f01 	tst.w	r6, #1
    7a9e:	d107      	bne.n	7ab0 <_free_r+0x178>
    7aa0:	f854 1c08 	ldr.w	r1, [r4, #-8]
    7aa4:	1a52      	subs	r2, r2, r1
    7aa6:	185b      	adds	r3, r3, r1
    7aa8:	68d4      	ldr	r4, [r2, #12]
    7aaa:	6891      	ldr	r1, [r2, #8]
    7aac:	60a1      	str	r1, [r4, #8]
    7aae:	60cc      	str	r4, [r1, #12]
    7ab0:	f240 5134 	movw	r1, #1332	; 0x534
    7ab4:	6082      	str	r2, [r0, #8]
    7ab6:	f2c2 0100 	movt	r1, #8192	; 0x2000
    7aba:	f043 0001 	orr.w	r0, r3, #1
    7abe:	6050      	str	r0, [r2, #4]
    7ac0:	680a      	ldr	r2, [r1, #0]
    7ac2:	4293      	cmp	r3, r2
    7ac4:	d3b2      	bcc.n	7a2c <_free_r+0xf4>
    7ac6:	f240 73a0 	movw	r3, #1952	; 0x7a0
    7aca:	4628      	mov	r0, r5
    7acc:	f2c2 0300 	movt	r3, #8192	; 0x2000
    7ad0:	6819      	ldr	r1, [r3, #0]
    7ad2:	f7ff fedd 	bl	7890 <_malloc_trim_r>
    7ad6:	e7a9      	b.n	7a2c <_free_r+0xf4>
    7ad8:	2601      	movs	r6, #1
    7ada:	e74d      	b.n	7978 <_free_r+0x40>
    7adc:	2601      	movs	r6, #1
    7ade:	6844      	ldr	r4, [r0, #4]
    7ae0:	ea4f 0cac 	mov.w	ip, ip, asr #2
    7ae4:	460b      	mov	r3, r1
    7ae6:	fa06 fc0c 	lsl.w	ip, r6, ip
    7aea:	ea44 040c 	orr.w	r4, r4, ip
    7aee:	6044      	str	r4, [r0, #4]
    7af0:	e798      	b.n	7a24 <_free_r+0xec>
    7af2:	bf00      	nop
    7af4:	20000130 	.word	0x20000130

00007af8 <__locale_charset>:
    7af8:	f24b 13d8 	movw	r3, #45528	; 0xb1d8
    7afc:	f2c0 0300 	movt	r3, #0
    7b00:	6818      	ldr	r0, [r3, #0]
    7b02:	4770      	bx	lr

00007b04 <_localeconv_r>:
    7b04:	4800      	ldr	r0, [pc, #0]	; (7b08 <_localeconv_r+0x4>)
    7b06:	4770      	bx	lr
    7b08:	0000b1dc 	.word	0x0000b1dc

00007b0c <localeconv>:
    7b0c:	4800      	ldr	r0, [pc, #0]	; (7b10 <localeconv+0x4>)
    7b0e:	4770      	bx	lr
    7b10:	0000b1dc 	.word	0x0000b1dc

00007b14 <_setlocale_r>:
    7b14:	b570      	push	{r4, r5, r6, lr}
    7b16:	4605      	mov	r5, r0
    7b18:	460e      	mov	r6, r1
    7b1a:	4614      	mov	r4, r2
    7b1c:	b172      	cbz	r2, 7b3c <_setlocale_r+0x28>
    7b1e:	f24b 1160 	movw	r1, #45408	; 0xb160
    7b22:	4610      	mov	r0, r2
    7b24:	f2c0 0100 	movt	r1, #0
    7b28:	f001 fa56 	bl	8fd8 <strcmp>
    7b2c:	b958      	cbnz	r0, 7b46 <_setlocale_r+0x32>
    7b2e:	f24b 1060 	movw	r0, #45408	; 0xb160
    7b32:	622c      	str	r4, [r5, #32]
    7b34:	f2c0 0000 	movt	r0, #0
    7b38:	61ee      	str	r6, [r5, #28]
    7b3a:	bd70      	pop	{r4, r5, r6, pc}
    7b3c:	f24b 1060 	movw	r0, #45408	; 0xb160
    7b40:	f2c0 0000 	movt	r0, #0
    7b44:	bd70      	pop	{r4, r5, r6, pc}
    7b46:	f24b 1154 	movw	r1, #45396	; 0xb154
    7b4a:	4620      	mov	r0, r4
    7b4c:	f2c0 0100 	movt	r1, #0
    7b50:	f001 fa42 	bl	8fd8 <strcmp>
    7b54:	2800      	cmp	r0, #0
    7b56:	d0ea      	beq.n	7b2e <_setlocale_r+0x1a>
    7b58:	2000      	movs	r0, #0
    7b5a:	bd70      	pop	{r4, r5, r6, pc}

00007b5c <setlocale>:
    7b5c:	f240 0334 	movw	r3, #52	; 0x34
    7b60:	460a      	mov	r2, r1
    7b62:	f2c2 0300 	movt	r3, #8192	; 0x2000
    7b66:	4601      	mov	r1, r0
    7b68:	6818      	ldr	r0, [r3, #0]
    7b6a:	e7d3      	b.n	7b14 <_setlocale_r>

00007b6c <free>:
    7b6c:	f240 0334 	movw	r3, #52	; 0x34
    7b70:	4601      	mov	r1, r0
    7b72:	f2c2 0300 	movt	r3, #8192	; 0x2000
    7b76:	6818      	ldr	r0, [r3, #0]
    7b78:	f7ff bede 	b.w	7938 <_free_r>

00007b7c <malloc>:
    7b7c:	f240 0334 	movw	r3, #52	; 0x34
    7b80:	4601      	mov	r1, r0
    7b82:	f2c2 0300 	movt	r3, #8192	; 0x2000
    7b86:	6818      	ldr	r0, [r3, #0]
    7b88:	f000 b800 	b.w	7b8c <_malloc_r>

00007b8c <_malloc_r>:
    7b8c:	e92d 4ff0 	stmdb	sp!, {r4, r5, r6, r7, r8, r9, sl, fp, lr}
    7b90:	f101 040b 	add.w	r4, r1, #11
    7b94:	2c16      	cmp	r4, #22
    7b96:	b083      	sub	sp, #12
    7b98:	4606      	mov	r6, r0
    7b9a:	d82f      	bhi.n	7bfc <_malloc_r+0x70>
    7b9c:	2300      	movs	r3, #0
    7b9e:	2410      	movs	r4, #16
    7ba0:	428c      	cmp	r4, r1
    7ba2:	bf2c      	ite	cs
    7ba4:	4619      	movcs	r1, r3
    7ba6:	f043 0101 	orrcc.w	r1, r3, #1
    7baa:	2900      	cmp	r1, #0
    7bac:	d130      	bne.n	7c10 <_malloc_r+0x84>
    7bae:	4630      	mov	r0, r6
    7bb0:	f000 fb54 	bl	825c <__malloc_lock>
    7bb4:	f5b4 7ffc 	cmp.w	r4, #504	; 0x1f8
    7bb8:	d22e      	bcs.n	7c18 <_malloc_r+0x8c>
    7bba:	ea4f 0ed4 	mov.w	lr, r4, lsr #3
    7bbe:	f240 1528 	movw	r5, #296	; 0x128
    7bc2:	f2c2 0500 	movt	r5, #8192	; 0x2000
    7bc6:	eb05 02ce 	add.w	r2, r5, lr, lsl #3
    7bca:	68d3      	ldr	r3, [r2, #12]
    7bcc:	4293      	cmp	r3, r2
    7bce:	f000 8206 	beq.w	7fde <_malloc_r+0x452>
    7bd2:	685a      	ldr	r2, [r3, #4]
    7bd4:	f103 0508 	add.w	r5, r3, #8
    7bd8:	68d9      	ldr	r1, [r3, #12]
    7bda:	4630      	mov	r0, r6
    7bdc:	f022 0c03 	bic.w	ip, r2, #3
    7be0:	689a      	ldr	r2, [r3, #8]
    7be2:	4463      	add	r3, ip
    7be4:	685c      	ldr	r4, [r3, #4]
    7be6:	608a      	str	r2, [r1, #8]
    7be8:	f044 0401 	orr.w	r4, r4, #1
    7bec:	60d1      	str	r1, [r2, #12]
    7bee:	605c      	str	r4, [r3, #4]
    7bf0:	f000 fb36 	bl	8260 <__malloc_unlock>
    7bf4:	4628      	mov	r0, r5
    7bf6:	b003      	add	sp, #12
    7bf8:	e8bd 8ff0 	ldmia.w	sp!, {r4, r5, r6, r7, r8, r9, sl, fp, pc}
    7bfc:	f024 0407 	bic.w	r4, r4, #7
    7c00:	0fe3      	lsrs	r3, r4, #31
    7c02:	428c      	cmp	r4, r1
    7c04:	bf2c      	ite	cs
    7c06:	4619      	movcs	r1, r3
    7c08:	f043 0101 	orrcc.w	r1, r3, #1
    7c0c:	2900      	cmp	r1, #0
    7c0e:	d0ce      	beq.n	7bae <_malloc_r+0x22>
    7c10:	230c      	movs	r3, #12
    7c12:	2500      	movs	r5, #0
    7c14:	6033      	str	r3, [r6, #0]
    7c16:	e7ed      	b.n	7bf4 <_malloc_r+0x68>
    7c18:	ea5f 2e54 	movs.w	lr, r4, lsr #9
    7c1c:	bf04      	itt	eq
    7c1e:	ea4f 0ed4 	moveq.w	lr, r4, lsr #3
    7c22:	ea4f 00ce 	moveq.w	r0, lr, lsl #3
    7c26:	f040 8090 	bne.w	7d4a <_malloc_r+0x1be>
    7c2a:	f240 1528 	movw	r5, #296	; 0x128
    7c2e:	f2c2 0500 	movt	r5, #8192	; 0x2000
    7c32:	1828      	adds	r0, r5, r0
    7c34:	68c3      	ldr	r3, [r0, #12]
    7c36:	4298      	cmp	r0, r3
    7c38:	d106      	bne.n	7c48 <_malloc_r+0xbc>
    7c3a:	e00d      	b.n	7c58 <_malloc_r+0xcc>
    7c3c:	2a00      	cmp	r2, #0
    7c3e:	f280 816f 	bge.w	7f20 <_malloc_r+0x394>
    7c42:	68db      	ldr	r3, [r3, #12]
    7c44:	4298      	cmp	r0, r3
    7c46:	d007      	beq.n	7c58 <_malloc_r+0xcc>
    7c48:	6859      	ldr	r1, [r3, #4]
    7c4a:	f021 0103 	bic.w	r1, r1, #3
    7c4e:	1b0a      	subs	r2, r1, r4
    7c50:	2a0f      	cmp	r2, #15
    7c52:	ddf3      	ble.n	7c3c <_malloc_r+0xb0>
    7c54:	f10e 3eff 	add.w	lr, lr, #4294967295
    7c58:	f10e 0e01 	add.w	lr, lr, #1
    7c5c:	f240 1728 	movw	r7, #296	; 0x128
    7c60:	f2c2 0700 	movt	r7, #8192	; 0x2000
    7c64:	f107 0108 	add.w	r1, r7, #8
    7c68:	688b      	ldr	r3, [r1, #8]
    7c6a:	4299      	cmp	r1, r3
    7c6c:	bf08      	it	eq
    7c6e:	687a      	ldreq	r2, [r7, #4]
    7c70:	d026      	beq.n	7cc0 <_malloc_r+0x134>
    7c72:	685a      	ldr	r2, [r3, #4]
    7c74:	f022 0c03 	bic.w	ip, r2, #3
    7c78:	ebc4 020c 	rsb	r2, r4, ip
    7c7c:	2a0f      	cmp	r2, #15
    7c7e:	f300 8194 	bgt.w	7faa <_malloc_r+0x41e>
    7c82:	2a00      	cmp	r2, #0
    7c84:	60c9      	str	r1, [r1, #12]
    7c86:	6089      	str	r1, [r1, #8]
    7c88:	f280 8099 	bge.w	7dbe <_malloc_r+0x232>
    7c8c:	f5bc 7f00 	cmp.w	ip, #512	; 0x200
    7c90:	f080 8165 	bcs.w	7f5e <_malloc_r+0x3d2>
    7c94:	ea4f 0cdc 	mov.w	ip, ip, lsr #3
    7c98:	f04f 0a01 	mov.w	sl, #1
    7c9c:	687a      	ldr	r2, [r7, #4]
    7c9e:	eb07 00cc 	add.w	r0, r7, ip, lsl #3
    7ca2:	ea4f 0cac 	mov.w	ip, ip, asr #2
    7ca6:	fa0a fc0c 	lsl.w	ip, sl, ip
    7caa:	60d8      	str	r0, [r3, #12]
    7cac:	f8d0 8008 	ldr.w	r8, [r0, #8]
    7cb0:	ea4c 0202 	orr.w	r2, ip, r2
    7cb4:	607a      	str	r2, [r7, #4]
    7cb6:	f8c3 8008 	str.w	r8, [r3, #8]
    7cba:	f8c8 300c 	str.w	r3, [r8, #12]
    7cbe:	6083      	str	r3, [r0, #8]
    7cc0:	f04f 0c01 	mov.w	ip, #1
    7cc4:	ea4f 03ae 	mov.w	r3, lr, asr #2
    7cc8:	fa0c fc03 	lsl.w	ip, ip, r3
    7ccc:	4594      	cmp	ip, r2
    7cce:	f200 8082 	bhi.w	7dd6 <_malloc_r+0x24a>
    7cd2:	ea12 0f0c 	tst.w	r2, ip
    7cd6:	d108      	bne.n	7cea <_malloc_r+0x15e>
    7cd8:	f02e 0e03 	bic.w	lr, lr, #3
    7cdc:	ea4f 0c4c 	mov.w	ip, ip, lsl #1
    7ce0:	f10e 0e04 	add.w	lr, lr, #4
    7ce4:	ea12 0f0c 	tst.w	r2, ip
    7ce8:	d0f8      	beq.n	7cdc <_malloc_r+0x150>
    7cea:	eb07 09ce 	add.w	r9, r7, lr, lsl #3
    7cee:	46f2      	mov	sl, lr
    7cf0:	46c8      	mov	r8, r9
    7cf2:	f8d8 300c 	ldr.w	r3, [r8, #12]
    7cf6:	4598      	cmp	r8, r3
    7cf8:	d107      	bne.n	7d0a <_malloc_r+0x17e>
    7cfa:	e168      	b.n	7fce <_malloc_r+0x442>
    7cfc:	2a00      	cmp	r2, #0
    7cfe:	f280 8178 	bge.w	7ff2 <_malloc_r+0x466>
    7d02:	68db      	ldr	r3, [r3, #12]
    7d04:	4598      	cmp	r8, r3
    7d06:	f000 8162 	beq.w	7fce <_malloc_r+0x442>
    7d0a:	6858      	ldr	r0, [r3, #4]
    7d0c:	f020 0003 	bic.w	r0, r0, #3
    7d10:	1b02      	subs	r2, r0, r4
    7d12:	2a0f      	cmp	r2, #15
    7d14:	ddf2      	ble.n	7cfc <_malloc_r+0x170>
    7d16:	461d      	mov	r5, r3
    7d18:	191f      	adds	r7, r3, r4
    7d1a:	f8d3 c00c 	ldr.w	ip, [r3, #12]
    7d1e:	f044 0e01 	orr.w	lr, r4, #1
    7d22:	f855 4f08 	ldr.w	r4, [r5, #8]!
    7d26:	4630      	mov	r0, r6
    7d28:	50ba      	str	r2, [r7, r2]
    7d2a:	f042 0201 	orr.w	r2, r2, #1
    7d2e:	f8c3 e004 	str.w	lr, [r3, #4]
    7d32:	f8cc 4008 	str.w	r4, [ip, #8]
    7d36:	f8c4 c00c 	str.w	ip, [r4, #12]
    7d3a:	608f      	str	r7, [r1, #8]
    7d3c:	60cf      	str	r7, [r1, #12]
    7d3e:	607a      	str	r2, [r7, #4]
    7d40:	60b9      	str	r1, [r7, #8]
    7d42:	60f9      	str	r1, [r7, #12]
    7d44:	f000 fa8c 	bl	8260 <__malloc_unlock>
    7d48:	e754      	b.n	7bf4 <_malloc_r+0x68>
    7d4a:	f1be 0f04 	cmp.w	lr, #4
    7d4e:	bf9e      	ittt	ls
    7d50:	ea4f 1e94 	movls.w	lr, r4, lsr #6
    7d54:	f10e 0e38 	addls.w	lr, lr, #56	; 0x38
    7d58:	ea4f 00ce 	movls.w	r0, lr, lsl #3
    7d5c:	f67f af65 	bls.w	7c2a <_malloc_r+0x9e>
    7d60:	f1be 0f14 	cmp.w	lr, #20
    7d64:	bf9c      	itt	ls
    7d66:	f10e 0e5b 	addls.w	lr, lr, #91	; 0x5b
    7d6a:	ea4f 00ce 	movls.w	r0, lr, lsl #3
    7d6e:	f67f af5c 	bls.w	7c2a <_malloc_r+0x9e>
    7d72:	f1be 0f54 	cmp.w	lr, #84	; 0x54
    7d76:	bf9e      	ittt	ls
    7d78:	ea4f 3e14 	movls.w	lr, r4, lsr #12
    7d7c:	f10e 0e6e 	addls.w	lr, lr, #110	; 0x6e
    7d80:	ea4f 00ce 	movls.w	r0, lr, lsl #3
    7d84:	f67f af51 	bls.w	7c2a <_malloc_r+0x9e>
    7d88:	f5be 7faa 	cmp.w	lr, #340	; 0x154
    7d8c:	bf9e      	ittt	ls
    7d8e:	ea4f 3ed4 	movls.w	lr, r4, lsr #15
    7d92:	f10e 0e77 	addls.w	lr, lr, #119	; 0x77
    7d96:	ea4f 00ce 	movls.w	r0, lr, lsl #3
    7d9a:	f67f af46 	bls.w	7c2a <_malloc_r+0x9e>
    7d9e:	f240 5354 	movw	r3, #1364	; 0x554
    7da2:	459e      	cmp	lr, r3
    7da4:	bf95      	itete	ls
    7da6:	ea4f 4e94 	movls.w	lr, r4, lsr #18
    7daa:	f44f 707c 	movhi.w	r0, #1008	; 0x3f0
    7dae:	f10e 0e7c 	addls.w	lr, lr, #124	; 0x7c
    7db2:	f04f 0e7e 	movhi.w	lr, #126	; 0x7e
    7db6:	bf98      	it	ls
    7db8:	ea4f 00ce 	movls.w	r0, lr, lsl #3
    7dbc:	e735      	b.n	7c2a <_malloc_r+0x9e>
    7dbe:	eb03 020c 	add.w	r2, r3, ip
    7dc2:	f103 0508 	add.w	r5, r3, #8
    7dc6:	4630      	mov	r0, r6
    7dc8:	6853      	ldr	r3, [r2, #4]
    7dca:	f043 0301 	orr.w	r3, r3, #1
    7dce:	6053      	str	r3, [r2, #4]
    7dd0:	f000 fa46 	bl	8260 <__malloc_unlock>
    7dd4:	e70e      	b.n	7bf4 <_malloc_r+0x68>
    7dd6:	f8d7 8008 	ldr.w	r8, [r7, #8]
    7dda:	f8d8 3004 	ldr.w	r3, [r8, #4]
    7dde:	f023 0903 	bic.w	r9, r3, #3
    7de2:	ebc4 0209 	rsb	r2, r4, r9
    7de6:	454c      	cmp	r4, r9
    7de8:	bf94      	ite	ls
    7dea:	2300      	movls	r3, #0
    7dec:	2301      	movhi	r3, #1
    7dee:	2a0f      	cmp	r2, #15
    7df0:	bfd8      	it	le
    7df2:	f043 0301 	orrle.w	r3, r3, #1
    7df6:	2b00      	cmp	r3, #0
    7df8:	f000 80a1 	beq.w	7f3e <_malloc_r+0x3b2>
    7dfc:	f240 7ba0 	movw	fp, #1952	; 0x7a0
    7e00:	f8d5 2408 	ldr.w	r2, [r5, #1032]	; 0x408
    7e04:	f2c2 0b00 	movt	fp, #8192	; 0x2000
    7e08:	f8db 3000 	ldr.w	r3, [fp]
    7e0c:	3310      	adds	r3, #16
    7e0e:	191b      	adds	r3, r3, r4
    7e10:	f1b2 3fff 	cmp.w	r2, #4294967295
    7e14:	d006      	beq.n	7e24 <_malloc_r+0x298>
    7e16:	f503 637e 	add.w	r3, r3, #4064	; 0xfe0
    7e1a:	331f      	adds	r3, #31
    7e1c:	f423 637e 	bic.w	r3, r3, #4064	; 0xfe0
    7e20:	f023 031f 	bic.w	r3, r3, #31
    7e24:	4619      	mov	r1, r3
    7e26:	4630      	mov	r0, r6
    7e28:	9301      	str	r3, [sp, #4]
    7e2a:	f001 f8c1 	bl	8fb0 <_sbrk_r>
    7e2e:	9b01      	ldr	r3, [sp, #4]
    7e30:	f1b0 3fff 	cmp.w	r0, #4294967295
    7e34:	4682      	mov	sl, r0
    7e36:	f000 80f4 	beq.w	8022 <_malloc_r+0x496>
    7e3a:	eb08 0109 	add.w	r1, r8, r9
    7e3e:	4281      	cmp	r1, r0
    7e40:	f200 80ec 	bhi.w	801c <_malloc_r+0x490>
    7e44:	f8db 2004 	ldr.w	r2, [fp, #4]
    7e48:	189a      	adds	r2, r3, r2
    7e4a:	4551      	cmp	r1, sl
    7e4c:	f8cb 2004 	str.w	r2, [fp, #4]
    7e50:	f000 8145 	beq.w	80de <_malloc_r+0x552>
    7e54:	f8d5 5408 	ldr.w	r5, [r5, #1032]	; 0x408
    7e58:	f240 1028 	movw	r0, #296	; 0x128
    7e5c:	f2c2 0000 	movt	r0, #8192	; 0x2000
    7e60:	f1b5 3fff 	cmp.w	r5, #4294967295
    7e64:	bf08      	it	eq
    7e66:	f8c0 a408 	streq.w	sl, [r0, #1032]	; 0x408
    7e6a:	d003      	beq.n	7e74 <_malloc_r+0x2e8>
    7e6c:	4452      	add	r2, sl
    7e6e:	1a51      	subs	r1, r2, r1
    7e70:	f8cb 1004 	str.w	r1, [fp, #4]
    7e74:	f01a 0507 	ands.w	r5, sl, #7
    7e78:	4630      	mov	r0, r6
    7e7a:	bf17      	itett	ne
    7e7c:	f1c5 0508 	rsbne	r5, r5, #8
    7e80:	f44f 5580 	moveq.w	r5, #4096	; 0x1000
    7e84:	44aa      	addne	sl, r5
    7e86:	f505 5580 	addne.w	r5, r5, #4096	; 0x1000
    7e8a:	4453      	add	r3, sl
    7e8c:	051b      	lsls	r3, r3, #20
    7e8e:	0d1b      	lsrs	r3, r3, #20
    7e90:	1aed      	subs	r5, r5, r3
    7e92:	4629      	mov	r1, r5
    7e94:	f001 f88c 	bl	8fb0 <_sbrk_r>
    7e98:	f1b0 3fff 	cmp.w	r0, #4294967295
    7e9c:	f000 812c 	beq.w	80f8 <_malloc_r+0x56c>
    7ea0:	ebca 0100 	rsb	r1, sl, r0
    7ea4:	1949      	adds	r1, r1, r5
    7ea6:	f041 0101 	orr.w	r1, r1, #1
    7eaa:	f8db 2004 	ldr.w	r2, [fp, #4]
    7eae:	f240 73a0 	movw	r3, #1952	; 0x7a0
    7eb2:	f8c7 a008 	str.w	sl, [r7, #8]
    7eb6:	f2c2 0300 	movt	r3, #8192	; 0x2000
    7eba:	18aa      	adds	r2, r5, r2
    7ebc:	45b8      	cmp	r8, r7
    7ebe:	f8cb 2004 	str.w	r2, [fp, #4]
    7ec2:	f8ca 1004 	str.w	r1, [sl, #4]
    7ec6:	d017      	beq.n	7ef8 <_malloc_r+0x36c>
    7ec8:	f1b9 0f0f 	cmp.w	r9, #15
    7ecc:	f240 80df 	bls.w	808e <_malloc_r+0x502>
    7ed0:	f1a9 010c 	sub.w	r1, r9, #12
    7ed4:	2505      	movs	r5, #5
    7ed6:	f021 0107 	bic.w	r1, r1, #7
    7eda:	eb08 0001 	add.w	r0, r8, r1
    7ede:	290f      	cmp	r1, #15
    7ee0:	6085      	str	r5, [r0, #8]
    7ee2:	6045      	str	r5, [r0, #4]
    7ee4:	f8d8 0004 	ldr.w	r0, [r8, #4]
    7ee8:	f000 0001 	and.w	r0, r0, #1
    7eec:	ea41 0000 	orr.w	r0, r1, r0
    7ef0:	f8c8 0004 	str.w	r0, [r8, #4]
    7ef4:	f200 80ac 	bhi.w	8050 <_malloc_r+0x4c4>
    7ef8:	46d0      	mov	r8, sl
    7efa:	f240 73a0 	movw	r3, #1952	; 0x7a0
    7efe:	f8db 102c 	ldr.w	r1, [fp, #44]	; 0x2c
    7f02:	f2c2 0300 	movt	r3, #8192	; 0x2000
    7f06:	428a      	cmp	r2, r1
    7f08:	f8db 1030 	ldr.w	r1, [fp, #48]	; 0x30
    7f0c:	bf88      	it	hi
    7f0e:	62da      	strhi	r2, [r3, #44]	; 0x2c
    7f10:	f240 73a0 	movw	r3, #1952	; 0x7a0
    7f14:	f2c2 0300 	movt	r3, #8192	; 0x2000
    7f18:	428a      	cmp	r2, r1
    7f1a:	bf88      	it	hi
    7f1c:	631a      	strhi	r2, [r3, #48]	; 0x30
    7f1e:	e082      	b.n	8026 <_malloc_r+0x49a>
    7f20:	185c      	adds	r4, r3, r1
    7f22:	689a      	ldr	r2, [r3, #8]
    7f24:	68d9      	ldr	r1, [r3, #12]
    7f26:	4630      	mov	r0, r6
    7f28:	6866      	ldr	r6, [r4, #4]
    7f2a:	f103 0508 	add.w	r5, r3, #8
    7f2e:	608a      	str	r2, [r1, #8]
    7f30:	f046 0301 	orr.w	r3, r6, #1
    7f34:	60d1      	str	r1, [r2, #12]
    7f36:	6063      	str	r3, [r4, #4]
    7f38:	f000 f992 	bl	8260 <__malloc_unlock>
    7f3c:	e65a      	b.n	7bf4 <_malloc_r+0x68>
    7f3e:	eb08 0304 	add.w	r3, r8, r4
    7f42:	f042 0201 	orr.w	r2, r2, #1
    7f46:	f044 0401 	orr.w	r4, r4, #1
    7f4a:	4630      	mov	r0, r6
    7f4c:	f8c8 4004 	str.w	r4, [r8, #4]
    7f50:	f108 0508 	add.w	r5, r8, #8
    7f54:	605a      	str	r2, [r3, #4]
    7f56:	60bb      	str	r3, [r7, #8]
    7f58:	f000 f982 	bl	8260 <__malloc_unlock>
    7f5c:	e64a      	b.n	7bf4 <_malloc_r+0x68>
    7f5e:	ea4f 225c 	mov.w	r2, ip, lsr #9
    7f62:	2a04      	cmp	r2, #4
    7f64:	d954      	bls.n	8010 <_malloc_r+0x484>
    7f66:	2a14      	cmp	r2, #20
    7f68:	f200 8089 	bhi.w	807e <_malloc_r+0x4f2>
    7f6c:	325b      	adds	r2, #91	; 0x5b
    7f6e:	ea4f 08c2 	mov.w	r8, r2, lsl #3
    7f72:	44a8      	add	r8, r5
    7f74:	f240 1728 	movw	r7, #296	; 0x128
    7f78:	f2c2 0700 	movt	r7, #8192	; 0x2000
    7f7c:	f8d8 0008 	ldr.w	r0, [r8, #8]
    7f80:	4540      	cmp	r0, r8
    7f82:	d103      	bne.n	7f8c <_malloc_r+0x400>
    7f84:	e06f      	b.n	8066 <_malloc_r+0x4da>
    7f86:	6880      	ldr	r0, [r0, #8]
    7f88:	4580      	cmp	r8, r0
    7f8a:	d004      	beq.n	7f96 <_malloc_r+0x40a>
    7f8c:	6842      	ldr	r2, [r0, #4]
    7f8e:	f022 0203 	bic.w	r2, r2, #3
    7f92:	4594      	cmp	ip, r2
    7f94:	d3f7      	bcc.n	7f86 <_malloc_r+0x3fa>
    7f96:	f8d0 c00c 	ldr.w	ip, [r0, #12]
    7f9a:	f8c3 c00c 	str.w	ip, [r3, #12]
    7f9e:	6098      	str	r0, [r3, #8]
    7fa0:	687a      	ldr	r2, [r7, #4]
    7fa2:	60c3      	str	r3, [r0, #12]
    7fa4:	f8cc 3008 	str.w	r3, [ip, #8]
    7fa8:	e68a      	b.n	7cc0 <_malloc_r+0x134>
    7faa:	191f      	adds	r7, r3, r4
    7fac:	4630      	mov	r0, r6
    7fae:	f044 0401 	orr.w	r4, r4, #1
    7fb2:	60cf      	str	r7, [r1, #12]
    7fb4:	605c      	str	r4, [r3, #4]
    7fb6:	f103 0508 	add.w	r5, r3, #8
    7fba:	50ba      	str	r2, [r7, r2]
    7fbc:	f042 0201 	orr.w	r2, r2, #1
    7fc0:	608f      	str	r7, [r1, #8]
    7fc2:	607a      	str	r2, [r7, #4]
    7fc4:	60b9      	str	r1, [r7, #8]
    7fc6:	60f9      	str	r1, [r7, #12]
    7fc8:	f000 f94a 	bl	8260 <__malloc_unlock>
    7fcc:	e612      	b.n	7bf4 <_malloc_r+0x68>
    7fce:	f10a 0a01 	add.w	sl, sl, #1
    7fd2:	f01a 0f03 	tst.w	sl, #3
    7fd6:	d05f      	beq.n	8098 <_malloc_r+0x50c>
    7fd8:	f103 0808 	add.w	r8, r3, #8
    7fdc:	e689      	b.n	7cf2 <_malloc_r+0x166>
    7fde:	f103 0208 	add.w	r2, r3, #8
    7fe2:	68d3      	ldr	r3, [r2, #12]
    7fe4:	429a      	cmp	r2, r3
    7fe6:	bf08      	it	eq
    7fe8:	f10e 0e02 	addeq.w	lr, lr, #2
    7fec:	f43f ae36 	beq.w	7c5c <_malloc_r+0xd0>
    7ff0:	e5ef      	b.n	7bd2 <_malloc_r+0x46>
    7ff2:	461d      	mov	r5, r3
    7ff4:	1819      	adds	r1, r3, r0
    7ff6:	68da      	ldr	r2, [r3, #12]
    7ff8:	4630      	mov	r0, r6
    7ffa:	f855 3f08 	ldr.w	r3, [r5, #8]!
    7ffe:	684c      	ldr	r4, [r1, #4]
    8000:	6093      	str	r3, [r2, #8]
    8002:	f044 0401 	orr.w	r4, r4, #1
    8006:	60da      	str	r2, [r3, #12]
    8008:	604c      	str	r4, [r1, #4]
    800a:	f000 f929 	bl	8260 <__malloc_unlock>
    800e:	e5f1      	b.n	7bf4 <_malloc_r+0x68>
    8010:	ea4f 129c 	mov.w	r2, ip, lsr #6
    8014:	3238      	adds	r2, #56	; 0x38
    8016:	ea4f 08c2 	mov.w	r8, r2, lsl #3
    801a:	e7aa      	b.n	7f72 <_malloc_r+0x3e6>
    801c:	45b8      	cmp	r8, r7
    801e:	f43f af11 	beq.w	7e44 <_malloc_r+0x2b8>
    8022:	f8d7 8008 	ldr.w	r8, [r7, #8]
    8026:	f8d8 2004 	ldr.w	r2, [r8, #4]
    802a:	f022 0203 	bic.w	r2, r2, #3
    802e:	4294      	cmp	r4, r2
    8030:	bf94      	ite	ls
    8032:	2300      	movls	r3, #0
    8034:	2301      	movhi	r3, #1
    8036:	1b12      	subs	r2, r2, r4
    8038:	2a0f      	cmp	r2, #15
    803a:	bfd8      	it	le
    803c:	f043 0301 	orrle.w	r3, r3, #1
    8040:	2b00      	cmp	r3, #0
    8042:	f43f af7c 	beq.w	7f3e <_malloc_r+0x3b2>
    8046:	4630      	mov	r0, r6
    8048:	2500      	movs	r5, #0
    804a:	f000 f909 	bl	8260 <__malloc_unlock>
    804e:	e5d1      	b.n	7bf4 <_malloc_r+0x68>
    8050:	f108 0108 	add.w	r1, r8, #8
    8054:	4630      	mov	r0, r6
    8056:	9301      	str	r3, [sp, #4]
    8058:	f7ff fc6e 	bl	7938 <_free_r>
    805c:	9b01      	ldr	r3, [sp, #4]
    805e:	f8d7 8008 	ldr.w	r8, [r7, #8]
    8062:	685a      	ldr	r2, [r3, #4]
    8064:	e749      	b.n	7efa <_malloc_r+0x36e>
    8066:	f04f 0a01 	mov.w	sl, #1
    806a:	f8d7 8004 	ldr.w	r8, [r7, #4]
    806e:	1092      	asrs	r2, r2, #2
    8070:	4684      	mov	ip, r0
    8072:	fa0a f202 	lsl.w	r2, sl, r2
    8076:	ea48 0202 	orr.w	r2, r8, r2
    807a:	607a      	str	r2, [r7, #4]
    807c:	e78d      	b.n	7f9a <_malloc_r+0x40e>
    807e:	2a54      	cmp	r2, #84	; 0x54
    8080:	d824      	bhi.n	80cc <_malloc_r+0x540>
    8082:	ea4f 321c 	mov.w	r2, ip, lsr #12
    8086:	326e      	adds	r2, #110	; 0x6e
    8088:	ea4f 08c2 	mov.w	r8, r2, lsl #3
    808c:	e771      	b.n	7f72 <_malloc_r+0x3e6>
    808e:	2301      	movs	r3, #1
    8090:	46d0      	mov	r8, sl
    8092:	f8ca 3004 	str.w	r3, [sl, #4]
    8096:	e7c6      	b.n	8026 <_malloc_r+0x49a>
    8098:	464a      	mov	r2, r9
    809a:	f01e 0f03 	tst.w	lr, #3
    809e:	4613      	mov	r3, r2
    80a0:	f10e 3eff 	add.w	lr, lr, #4294967295
    80a4:	d033      	beq.n	810e <_malloc_r+0x582>
    80a6:	f853 2908 	ldr.w	r2, [r3], #-8
    80aa:	429a      	cmp	r2, r3
    80ac:	d0f5      	beq.n	809a <_malloc_r+0x50e>
    80ae:	687b      	ldr	r3, [r7, #4]
    80b0:	ea4f 0c4c 	mov.w	ip, ip, lsl #1
    80b4:	459c      	cmp	ip, r3
    80b6:	f63f ae8e 	bhi.w	7dd6 <_malloc_r+0x24a>
    80ba:	f1bc 0f00 	cmp.w	ip, #0
    80be:	f43f ae8a 	beq.w	7dd6 <_malloc_r+0x24a>
    80c2:	ea1c 0f03 	tst.w	ip, r3
    80c6:	d027      	beq.n	8118 <_malloc_r+0x58c>
    80c8:	46d6      	mov	lr, sl
    80ca:	e60e      	b.n	7cea <_malloc_r+0x15e>
    80cc:	f5b2 7faa 	cmp.w	r2, #340	; 0x154
    80d0:	d815      	bhi.n	80fe <_malloc_r+0x572>
    80d2:	ea4f 32dc 	mov.w	r2, ip, lsr #15
    80d6:	3277      	adds	r2, #119	; 0x77
    80d8:	ea4f 08c2 	mov.w	r8, r2, lsl #3
    80dc:	e749      	b.n	7f72 <_malloc_r+0x3e6>
    80de:	0508      	lsls	r0, r1, #20
    80e0:	0d00      	lsrs	r0, r0, #20
    80e2:	2800      	cmp	r0, #0
    80e4:	f47f aeb6 	bne.w	7e54 <_malloc_r+0x2c8>
    80e8:	f8d7 8008 	ldr.w	r8, [r7, #8]
    80ec:	444b      	add	r3, r9
    80ee:	f043 0301 	orr.w	r3, r3, #1
    80f2:	f8c8 3004 	str.w	r3, [r8, #4]
    80f6:	e700      	b.n	7efa <_malloc_r+0x36e>
    80f8:	2101      	movs	r1, #1
    80fa:	2500      	movs	r5, #0
    80fc:	e6d5      	b.n	7eaa <_malloc_r+0x31e>
    80fe:	f240 5054 	movw	r0, #1364	; 0x554
    8102:	4282      	cmp	r2, r0
    8104:	d90d      	bls.n	8122 <_malloc_r+0x596>
    8106:	f44f 787c 	mov.w	r8, #1008	; 0x3f0
    810a:	227e      	movs	r2, #126	; 0x7e
    810c:	e731      	b.n	7f72 <_malloc_r+0x3e6>
    810e:	687b      	ldr	r3, [r7, #4]
    8110:	ea23 030c 	bic.w	r3, r3, ip
    8114:	607b      	str	r3, [r7, #4]
    8116:	e7cb      	b.n	80b0 <_malloc_r+0x524>
    8118:	ea4f 0c4c 	mov.w	ip, ip, lsl #1
    811c:	f10a 0a04 	add.w	sl, sl, #4
    8120:	e7cf      	b.n	80c2 <_malloc_r+0x536>
    8122:	ea4f 429c 	mov.w	r2, ip, lsr #18
    8126:	327c      	adds	r2, #124	; 0x7c
    8128:	ea4f 08c2 	mov.w	r8, r2, lsl #3
    812c:	e721      	b.n	7f72 <_malloc_r+0x3e6>
    812e:	bf00      	nop

00008130 <memchr>:
    8130:	f010 0f03 	tst.w	r0, #3
    8134:	b2c9      	uxtb	r1, r1
    8136:	b410      	push	{r4}
    8138:	d010      	beq.n	815c <memchr+0x2c>
    813a:	2a00      	cmp	r2, #0
    813c:	d02f      	beq.n	819e <memchr+0x6e>
    813e:	7803      	ldrb	r3, [r0, #0]
    8140:	428b      	cmp	r3, r1
    8142:	d02a      	beq.n	819a <memchr+0x6a>
    8144:	3a01      	subs	r2, #1
    8146:	e005      	b.n	8154 <memchr+0x24>
    8148:	2a00      	cmp	r2, #0
    814a:	d028      	beq.n	819e <memchr+0x6e>
    814c:	7803      	ldrb	r3, [r0, #0]
    814e:	3a01      	subs	r2, #1
    8150:	428b      	cmp	r3, r1
    8152:	d022      	beq.n	819a <memchr+0x6a>
    8154:	3001      	adds	r0, #1
    8156:	f010 0f03 	tst.w	r0, #3
    815a:	d1f5      	bne.n	8148 <memchr+0x18>
    815c:	2a03      	cmp	r2, #3
    815e:	d911      	bls.n	8184 <memchr+0x54>
    8160:	ea41 2401 	orr.w	r4, r1, r1, lsl #8
    8164:	ea44 4404 	orr.w	r4, r4, r4, lsl #16
    8168:	6803      	ldr	r3, [r0, #0]
    816a:	ea84 0303 	eor.w	r3, r4, r3
    816e:	f1a3 3c01 	sub.w	ip, r3, #16843009	; 0x1010101
    8172:	ea2c 0303 	bic.w	r3, ip, r3
    8176:	f013 3f80 	tst.w	r3, #2155905152	; 0x80808080
    817a:	d103      	bne.n	8184 <memchr+0x54>
    817c:	3a04      	subs	r2, #4
    817e:	3004      	adds	r0, #4
    8180:	2a03      	cmp	r2, #3
    8182:	d8f1      	bhi.n	8168 <memchr+0x38>
    8184:	b15a      	cbz	r2, 819e <memchr+0x6e>
    8186:	7803      	ldrb	r3, [r0, #0]
    8188:	428b      	cmp	r3, r1
    818a:	d006      	beq.n	819a <memchr+0x6a>
    818c:	3a01      	subs	r2, #1
    818e:	b132      	cbz	r2, 819e <memchr+0x6e>
    8190:	f810 3f01 	ldrb.w	r3, [r0, #1]!
    8194:	3a01      	subs	r2, #1
    8196:	428b      	cmp	r3, r1
    8198:	d1f9      	bne.n	818e <memchr+0x5e>
    819a:	bc10      	pop	{r4}
    819c:	4770      	bx	lr
    819e:	2000      	movs	r0, #0
    81a0:	e7fb      	b.n	819a <memchr+0x6a>
    81a2:	bf00      	nop

000081a4 <memmove>:
    81a4:	4288      	cmp	r0, r1
    81a6:	468c      	mov	ip, r1
    81a8:	b470      	push	{r4, r5, r6}
    81aa:	4605      	mov	r5, r0
    81ac:	4614      	mov	r4, r2
    81ae:	d90e      	bls.n	81ce <memmove+0x2a>
    81b0:	188b      	adds	r3, r1, r2
    81b2:	4298      	cmp	r0, r3
    81b4:	d20b      	bcs.n	81ce <memmove+0x2a>
    81b6:	b142      	cbz	r2, 81ca <memmove+0x26>
    81b8:	ebc2 0c03 	rsb	ip, r2, r3
    81bc:	4601      	mov	r1, r0
    81be:	1e53      	subs	r3, r2, #1
    81c0:	f81c 2003 	ldrb.w	r2, [ip, r3]
    81c4:	54ca      	strb	r2, [r1, r3]
    81c6:	3b01      	subs	r3, #1
    81c8:	d2fa      	bcs.n	81c0 <memmove+0x1c>
    81ca:	bc70      	pop	{r4, r5, r6}
    81cc:	4770      	bx	lr
    81ce:	2a0f      	cmp	r2, #15
    81d0:	d809      	bhi.n	81e6 <memmove+0x42>
    81d2:	2c00      	cmp	r4, #0
    81d4:	d0f9      	beq.n	81ca <memmove+0x26>
    81d6:	2300      	movs	r3, #0
    81d8:	f81c 2003 	ldrb.w	r2, [ip, r3]
    81dc:	54ea      	strb	r2, [r5, r3]
    81de:	3301      	adds	r3, #1
    81e0:	42a3      	cmp	r3, r4
    81e2:	d1f9      	bne.n	81d8 <memmove+0x34>
    81e4:	e7f1      	b.n	81ca <memmove+0x26>
    81e6:	ea41 0300 	orr.w	r3, r1, r0
    81ea:	f013 0f03 	tst.w	r3, #3
    81ee:	d1f0      	bne.n	81d2 <memmove+0x2e>
    81f0:	4694      	mov	ip, r2
    81f2:	460c      	mov	r4, r1
    81f4:	4603      	mov	r3, r0
    81f6:	6825      	ldr	r5, [r4, #0]
    81f8:	f1ac 0c10 	sub.w	ip, ip, #16
    81fc:	601d      	str	r5, [r3, #0]
    81fe:	6865      	ldr	r5, [r4, #4]
    8200:	605d      	str	r5, [r3, #4]
    8202:	68a5      	ldr	r5, [r4, #8]
    8204:	609d      	str	r5, [r3, #8]
    8206:	68e5      	ldr	r5, [r4, #12]
    8208:	3410      	adds	r4, #16
    820a:	60dd      	str	r5, [r3, #12]
    820c:	3310      	adds	r3, #16
    820e:	f1bc 0f0f 	cmp.w	ip, #15
    8212:	d8f0      	bhi.n	81f6 <memmove+0x52>
    8214:	3a10      	subs	r2, #16
    8216:	ea4f 1c12 	mov.w	ip, r2, lsr #4
    821a:	f10c 0501 	add.w	r5, ip, #1
    821e:	ebcc 7c0c 	rsb	ip, ip, ip, lsl #28
    8222:	012d      	lsls	r5, r5, #4
    8224:	eb02 160c 	add.w	r6, r2, ip, lsl #4
    8228:	eb01 0c05 	add.w	ip, r1, r5
    822c:	1945      	adds	r5, r0, r5
    822e:	2e03      	cmp	r6, #3
    8230:	4634      	mov	r4, r6
    8232:	d9ce      	bls.n	81d2 <memmove+0x2e>
    8234:	2300      	movs	r3, #0
    8236:	f85c 2003 	ldr.w	r2, [ip, r3]
    823a:	50ea      	str	r2, [r5, r3]
    823c:	3304      	adds	r3, #4
    823e:	1af2      	subs	r2, r6, r3
    8240:	2a03      	cmp	r2, #3
    8242:	d8f8      	bhi.n	8236 <memmove+0x92>
    8244:	3e04      	subs	r6, #4
    8246:	08b3      	lsrs	r3, r6, #2
    8248:	1c5a      	adds	r2, r3, #1
    824a:	ebc3 7383 	rsb	r3, r3, r3, lsl #30
    824e:	0092      	lsls	r2, r2, #2
    8250:	4494      	add	ip, r2
    8252:	eb06 0483 	add.w	r4, r6, r3, lsl #2
    8256:	18ad      	adds	r5, r5, r2
    8258:	e7bb      	b.n	81d2 <memmove+0x2e>
    825a:	bf00      	nop

0000825c <__malloc_lock>:
    825c:	4770      	bx	lr
    825e:	bf00      	nop

00008260 <__malloc_unlock>:
    8260:	4770      	bx	lr
    8262:	bf00      	nop

00008264 <__hi0bits>:
    8264:	0c02      	lsrs	r2, r0, #16
    8266:	4603      	mov	r3, r0
    8268:	0412      	lsls	r2, r2, #16
    826a:	b1b2      	cbz	r2, 829a <__hi0bits+0x36>
    826c:	2000      	movs	r0, #0
    826e:	f013 4f7f 	tst.w	r3, #4278190080	; 0xff000000
    8272:	d101      	bne.n	8278 <__hi0bits+0x14>
    8274:	3008      	adds	r0, #8
    8276:	021b      	lsls	r3, r3, #8
    8278:	f013 4f70 	tst.w	r3, #4026531840	; 0xf0000000
    827c:	d101      	bne.n	8282 <__hi0bits+0x1e>
    827e:	3004      	adds	r0, #4
    8280:	011b      	lsls	r3, r3, #4
    8282:	f013 4f40 	tst.w	r3, #3221225472	; 0xc0000000
    8286:	d101      	bne.n	828c <__hi0bits+0x28>
    8288:	3002      	adds	r0, #2
    828a:	009b      	lsls	r3, r3, #2
    828c:	2b00      	cmp	r3, #0
    828e:	db03      	blt.n	8298 <__hi0bits+0x34>
    8290:	f013 4f80 	tst.w	r3, #1073741824	; 0x40000000
    8294:	d004      	beq.n	82a0 <__hi0bits+0x3c>
    8296:	3001      	adds	r0, #1
    8298:	4770      	bx	lr
    829a:	0403      	lsls	r3, r0, #16
    829c:	2010      	movs	r0, #16
    829e:	e7e6      	b.n	826e <__hi0bits+0xa>
    82a0:	2020      	movs	r0, #32
    82a2:	4770      	bx	lr

000082a4 <__lo0bits>:
    82a4:	6803      	ldr	r3, [r0, #0]
    82a6:	4602      	mov	r2, r0
    82a8:	f013 0007 	ands.w	r0, r3, #7
    82ac:	d009      	beq.n	82c2 <__lo0bits+0x1e>
    82ae:	f013 0f01 	tst.w	r3, #1
    82b2:	d121      	bne.n	82f8 <__lo0bits+0x54>
    82b4:	f013 0f02 	tst.w	r3, #2
    82b8:	d122      	bne.n	8300 <__lo0bits+0x5c>
    82ba:	089b      	lsrs	r3, r3, #2
    82bc:	2002      	movs	r0, #2
    82be:	6013      	str	r3, [r2, #0]
    82c0:	4770      	bx	lr
    82c2:	b299      	uxth	r1, r3
    82c4:	b909      	cbnz	r1, 82ca <__lo0bits+0x26>
    82c6:	0c1b      	lsrs	r3, r3, #16
    82c8:	2010      	movs	r0, #16
    82ca:	f013 0fff 	tst.w	r3, #255	; 0xff
    82ce:	d101      	bne.n	82d4 <__lo0bits+0x30>
    82d0:	3008      	adds	r0, #8
    82d2:	0a1b      	lsrs	r3, r3, #8
    82d4:	f013 0f0f 	tst.w	r3, #15
    82d8:	d101      	bne.n	82de <__lo0bits+0x3a>
    82da:	3004      	adds	r0, #4
    82dc:	091b      	lsrs	r3, r3, #4
    82de:	f013 0f03 	tst.w	r3, #3
    82e2:	d101      	bne.n	82e8 <__lo0bits+0x44>
    82e4:	3002      	adds	r0, #2
    82e6:	089b      	lsrs	r3, r3, #2
    82e8:	f013 0f01 	tst.w	r3, #1
    82ec:	d102      	bne.n	82f4 <__lo0bits+0x50>
    82ee:	085b      	lsrs	r3, r3, #1
    82f0:	d004      	beq.n	82fc <__lo0bits+0x58>
    82f2:	3001      	adds	r0, #1
    82f4:	6013      	str	r3, [r2, #0]
    82f6:	4770      	bx	lr
    82f8:	2000      	movs	r0, #0
    82fa:	4770      	bx	lr
    82fc:	2020      	movs	r0, #32
    82fe:	4770      	bx	lr
    8300:	085b      	lsrs	r3, r3, #1
    8302:	2001      	movs	r0, #1
    8304:	6013      	str	r3, [r2, #0]
    8306:	4770      	bx	lr

00008308 <__mcmp>:
    8308:	4603      	mov	r3, r0
    830a:	690a      	ldr	r2, [r1, #16]
    830c:	6900      	ldr	r0, [r0, #16]
    830e:	b410      	push	{r4}
    8310:	1a80      	subs	r0, r0, r2
    8312:	d111      	bne.n	8338 <__mcmp+0x30>
    8314:	3204      	adds	r2, #4
    8316:	f103 0c14 	add.w	ip, r3, #20
    831a:	0092      	lsls	r2, r2, #2
    831c:	189b      	adds	r3, r3, r2
    831e:	1889      	adds	r1, r1, r2
    8320:	3104      	adds	r1, #4
    8322:	3304      	adds	r3, #4
    8324:	f853 4c04 	ldr.w	r4, [r3, #-4]
    8328:	3b04      	subs	r3, #4
    832a:	f851 2c04 	ldr.w	r2, [r1, #-4]
    832e:	3904      	subs	r1, #4
    8330:	4294      	cmp	r4, r2
    8332:	d103      	bne.n	833c <__mcmp+0x34>
    8334:	459c      	cmp	ip, r3
    8336:	d3f5      	bcc.n	8324 <__mcmp+0x1c>
    8338:	bc10      	pop	{r4}
    833a:	4770      	bx	lr
    833c:	bf38      	it	cc
    833e:	f04f 30ff 	movcc.w	r0, #4294967295
    8342:	d3f9      	bcc.n	8338 <__mcmp+0x30>
    8344:	2001      	movs	r0, #1
    8346:	e7f7      	b.n	8338 <__mcmp+0x30>

00008348 <__ulp>:
    8348:	f240 0300 	movw	r3, #0
    834c:	f6c7 73f0 	movt	r3, #32752	; 0x7ff0
    8350:	ea01 0303 	and.w	r3, r1, r3
    8354:	f1a3 7350 	sub.w	r3, r3, #54525952	; 0x3400000
    8358:	2b00      	cmp	r3, #0
    835a:	dd02      	ble.n	8362 <__ulp+0x1a>
    835c:	4619      	mov	r1, r3
    835e:	2000      	movs	r0, #0
    8360:	4770      	bx	lr
    8362:	425b      	negs	r3, r3
    8364:	151b      	asrs	r3, r3, #20
    8366:	2b13      	cmp	r3, #19
    8368:	dd0e      	ble.n	8388 <__ulp+0x40>
    836a:	3b14      	subs	r3, #20
    836c:	2b1e      	cmp	r3, #30
    836e:	dd03      	ble.n	8378 <__ulp+0x30>
    8370:	2301      	movs	r3, #1
    8372:	2100      	movs	r1, #0
    8374:	4618      	mov	r0, r3
    8376:	4770      	bx	lr
    8378:	2201      	movs	r2, #1
    837a:	f1c3 031f 	rsb	r3, r3, #31
    837e:	2100      	movs	r1, #0
    8380:	fa12 f303 	lsls.w	r3, r2, r3
    8384:	4618      	mov	r0, r3
    8386:	4770      	bx	lr
    8388:	f44f 2200 	mov.w	r2, #524288	; 0x80000
    838c:	2000      	movs	r0, #0
    838e:	fa52 f103 	asrs.w	r1, r2, r3
    8392:	4770      	bx	lr

00008394 <__b2d>:
    8394:	e92d 41f0 	stmdb	sp!, {r4, r5, r6, r7, r8, lr}
    8398:	6904      	ldr	r4, [r0, #16]
    839a:	f100 0614 	add.w	r6, r0, #20
    839e:	460f      	mov	r7, r1
    83a0:	3404      	adds	r4, #4
    83a2:	f850 5024 	ldr.w	r5, [r0, r4, lsl #2]
    83a6:	eb00 0484 	add.w	r4, r0, r4, lsl #2
    83aa:	46a0      	mov	r8, r4
    83ac:	4628      	mov	r0, r5
    83ae:	f7ff ff59 	bl	8264 <__hi0bits>
    83b2:	280a      	cmp	r0, #10
    83b4:	f1c0 0320 	rsb	r3, r0, #32
    83b8:	603b      	str	r3, [r7, #0]
    83ba:	dc14      	bgt.n	83e6 <__b2d+0x52>
    83bc:	42a6      	cmp	r6, r4
    83be:	f1c0 030b 	rsb	r3, r0, #11
    83c2:	d237      	bcs.n	8434 <__b2d+0xa0>
    83c4:	f854 1c04 	ldr.w	r1, [r4, #-4]
    83c8:	40d9      	lsrs	r1, r3
    83ca:	fa25 fc03 	lsr.w	ip, r5, r3
    83ce:	3015      	adds	r0, #21
    83d0:	f04c 537e 	orr.w	r3, ip, #1065353216	; 0x3f800000
    83d4:	4085      	lsls	r5, r0
    83d6:	f443 03e0 	orr.w	r3, r3, #7340032	; 0x700000
    83da:	ea41 0205 	orr.w	r2, r1, r5
    83de:	4610      	mov	r0, r2
    83e0:	4619      	mov	r1, r3
    83e2:	e8bd 81f0 	ldmia.w	sp!, {r4, r5, r6, r7, r8, pc}
    83e6:	42a6      	cmp	r6, r4
    83e8:	d320      	bcc.n	842c <__b2d+0x98>
    83ea:	2100      	movs	r1, #0
    83ec:	380b      	subs	r0, #11
    83ee:	bf02      	ittt	eq
    83f0:	f045 537e 	orreq.w	r3, r5, #1065353216	; 0x3f800000
    83f4:	460a      	moveq	r2, r1
    83f6:	f443 03e0 	orreq.w	r3, r3, #7340032	; 0x700000
    83fa:	d0f0      	beq.n	83de <__b2d+0x4a>
    83fc:	42b4      	cmp	r4, r6
    83fe:	f1c0 0320 	rsb	r3, r0, #32
    8402:	d919      	bls.n	8438 <__b2d+0xa4>
    8404:	f854 4c04 	ldr.w	r4, [r4, #-4]
    8408:	40dc      	lsrs	r4, r3
    840a:	4085      	lsls	r5, r0
    840c:	fa21 fc03 	lsr.w	ip, r1, r3
    8410:	f045 557e 	orr.w	r5, r5, #1065353216	; 0x3f800000
    8414:	fa11 f000 	lsls.w	r0, r1, r0
    8418:	f445 05e0 	orr.w	r5, r5, #7340032	; 0x700000
    841c:	ea44 0200 	orr.w	r2, r4, r0
    8420:	ea45 030c 	orr.w	r3, r5, ip
    8424:	4610      	mov	r0, r2
    8426:	4619      	mov	r1, r3
    8428:	e8bd 81f0 	ldmia.w	sp!, {r4, r5, r6, r7, r8, pc}
    842c:	f854 1c04 	ldr.w	r1, [r4, #-4]
    8430:	3c04      	subs	r4, #4
    8432:	e7db      	b.n	83ec <__b2d+0x58>
    8434:	2100      	movs	r1, #0
    8436:	e7c8      	b.n	83ca <__b2d+0x36>
    8438:	2400      	movs	r4, #0
    843a:	e7e6      	b.n	840a <__b2d+0x76>

0000843c <__ratio>:
    843c:	e92d 43f0 	stmdb	sp!, {r4, r5, r6, r7, r8, r9, lr}
    8440:	b083      	sub	sp, #12
    8442:	460e      	mov	r6, r1
    8444:	a901      	add	r1, sp, #4
    8446:	4607      	mov	r7, r0
    8448:	f7ff ffa4 	bl	8394 <__b2d>
    844c:	460d      	mov	r5, r1
    844e:	4604      	mov	r4, r0
    8450:	4669      	mov	r1, sp
    8452:	4630      	mov	r0, r6
    8454:	f7ff ff9e 	bl	8394 <__b2d>
    8458:	f8dd c004 	ldr.w	ip, [sp, #4]
    845c:	46a9      	mov	r9, r5
    845e:	46a0      	mov	r8, r4
    8460:	460b      	mov	r3, r1
    8462:	4602      	mov	r2, r0
    8464:	6931      	ldr	r1, [r6, #16]
    8466:	4616      	mov	r6, r2
    8468:	6938      	ldr	r0, [r7, #16]
    846a:	461f      	mov	r7, r3
    846c:	1a40      	subs	r0, r0, r1
    846e:	9900      	ldr	r1, [sp, #0]
    8470:	ebc1 010c 	rsb	r1, r1, ip
    8474:	eb01 1140 	add.w	r1, r1, r0, lsl #5
    8478:	2900      	cmp	r1, #0
    847a:	bfc9      	itett	gt
    847c:	eb05 5901 	addgt.w	r9, r5, r1, lsl #20
    8480:	eba3 5701 	suble.w	r7, r3, r1, lsl #20
    8484:	4624      	movgt	r4, r4
    8486:	464d      	movgt	r5, r9
    8488:	bfdc      	itt	le
    848a:	4612      	movle	r2, r2
    848c:	463b      	movle	r3, r7
    848e:	4620      	mov	r0, r4
    8490:	4629      	mov	r1, r5
    8492:	f001 fb79 	bl	9b88 <__aeabi_ddiv>
    8496:	b003      	add	sp, #12
    8498:	e8bd 83f0 	ldmia.w	sp!, {r4, r5, r6, r7, r8, r9, pc}

0000849c <_mprec_log10>:
    849c:	2817      	cmp	r0, #23
    849e:	b510      	push	{r4, lr}
    84a0:	4604      	mov	r4, r0
    84a2:	dd0e      	ble.n	84c2 <_mprec_log10+0x26>
    84a4:	f240 0100 	movw	r1, #0
    84a8:	2000      	movs	r0, #0
    84aa:	f6c3 71f0 	movt	r1, #16368	; 0x3ff0
    84ae:	f240 0300 	movw	r3, #0
    84b2:	2200      	movs	r2, #0
    84b4:	f2c4 0324 	movt	r3, #16420	; 0x4024
    84b8:	f001 fa3c 	bl	9934 <__aeabi_dmul>
    84bc:	3c01      	subs	r4, #1
    84be:	d1f6      	bne.n	84ae <_mprec_log10+0x12>
    84c0:	bd10      	pop	{r4, pc}
    84c2:	f24b 2318 	movw	r3, #45592	; 0xb218
    84c6:	f2c0 0300 	movt	r3, #0
    84ca:	eb03 03c0 	add.w	r3, r3, r0, lsl #3
    84ce:	e9d3 0100 	ldrd	r0, r1, [r3]
    84d2:	bd10      	pop	{r4, pc}

000084d4 <__copybits>:
    84d4:	6913      	ldr	r3, [r2, #16]
    84d6:	3901      	subs	r1, #1
    84d8:	f102 0c14 	add.w	ip, r2, #20
    84dc:	b410      	push	{r4}
    84de:	eb02 0283 	add.w	r2, r2, r3, lsl #2
    84e2:	114c      	asrs	r4, r1, #5
    84e4:	3214      	adds	r2, #20
    84e6:	3401      	adds	r4, #1
    84e8:	4594      	cmp	ip, r2
    84ea:	eb00 0484 	add.w	r4, r0, r4, lsl #2
    84ee:	d20f      	bcs.n	8510 <__copybits+0x3c>
    84f0:	2300      	movs	r3, #0
    84f2:	f85c 1003 	ldr.w	r1, [ip, r3]
    84f6:	50c1      	str	r1, [r0, r3]
    84f8:	3304      	adds	r3, #4
    84fa:	eb03 010c 	add.w	r1, r3, ip
    84fe:	428a      	cmp	r2, r1
    8500:	d8f7      	bhi.n	84f2 <__copybits+0x1e>
    8502:	ea6f 0c0c 	mvn.w	ip, ip
    8506:	4462      	add	r2, ip
    8508:	f022 0203 	bic.w	r2, r2, #3
    850c:	3204      	adds	r2, #4
    850e:	1880      	adds	r0, r0, r2
    8510:	4284      	cmp	r4, r0
    8512:	d904      	bls.n	851e <__copybits+0x4a>
    8514:	2300      	movs	r3, #0
    8516:	f840 3b04 	str.w	r3, [r0], #4
    851a:	4284      	cmp	r4, r0
    851c:	d8fb      	bhi.n	8516 <__copybits+0x42>
    851e:	bc10      	pop	{r4}
    8520:	4770      	bx	lr
    8522:	bf00      	nop

00008524 <__any_on>:
    8524:	6902      	ldr	r2, [r0, #16]
    8526:	114b      	asrs	r3, r1, #5
    8528:	429a      	cmp	r2, r3
    852a:	db10      	blt.n	854e <__any_on+0x2a>
    852c:	dd0e      	ble.n	854c <__any_on+0x28>
    852e:	f011 011f 	ands.w	r1, r1, #31
    8532:	d00b      	beq.n	854c <__any_on+0x28>
    8534:	461a      	mov	r2, r3
    8536:	eb00 0383 	add.w	r3, r0, r3, lsl #2
    853a:	695b      	ldr	r3, [r3, #20]
    853c:	fa23 fc01 	lsr.w	ip, r3, r1
    8540:	fa0c f101 	lsl.w	r1, ip, r1
    8544:	4299      	cmp	r1, r3
    8546:	d002      	beq.n	854e <__any_on+0x2a>
    8548:	2001      	movs	r0, #1
    854a:	4770      	bx	lr
    854c:	461a      	mov	r2, r3
    854e:	3204      	adds	r2, #4
    8550:	f100 0114 	add.w	r1, r0, #20
    8554:	eb00 0382 	add.w	r3, r0, r2, lsl #2
    8558:	f103 0c04 	add.w	ip, r3, #4
    855c:	4561      	cmp	r1, ip
    855e:	d20b      	bcs.n	8578 <__any_on+0x54>
    8560:	f850 2022 	ldr.w	r2, [r0, r2, lsl #2]
    8564:	2a00      	cmp	r2, #0
    8566:	d1ef      	bne.n	8548 <__any_on+0x24>
    8568:	4299      	cmp	r1, r3
    856a:	d205      	bcs.n	8578 <__any_on+0x54>
    856c:	f853 2d04 	ldr.w	r2, [r3, #-4]!
    8570:	2a00      	cmp	r2, #0
    8572:	d1e9      	bne.n	8548 <__any_on+0x24>
    8574:	4299      	cmp	r1, r3
    8576:	d3f9      	bcc.n	856c <__any_on+0x48>
    8578:	2000      	movs	r0, #0
    857a:	4770      	bx	lr

0000857c <_Bfree>:
    857c:	b530      	push	{r4, r5, lr}
    857e:	6a45      	ldr	r5, [r0, #36]	; 0x24
    8580:	b083      	sub	sp, #12
    8582:	4604      	mov	r4, r0
    8584:	b155      	cbz	r5, 859c <_Bfree+0x20>
    8586:	b139      	cbz	r1, 8598 <_Bfree+0x1c>
    8588:	6a63      	ldr	r3, [r4, #36]	; 0x24
    858a:	684a      	ldr	r2, [r1, #4]
    858c:	68db      	ldr	r3, [r3, #12]
    858e:	f853 0022 	ldr.w	r0, [r3, r2, lsl #2]
    8592:	6008      	str	r0, [r1, #0]
    8594:	f843 1022 	str.w	r1, [r3, r2, lsl #2]
    8598:	b003      	add	sp, #12
    859a:	bd30      	pop	{r4, r5, pc}
    859c:	2010      	movs	r0, #16
    859e:	9101      	str	r1, [sp, #4]
    85a0:	f7ff faec 	bl	7b7c <malloc>
    85a4:	9901      	ldr	r1, [sp, #4]
    85a6:	6260      	str	r0, [r4, #36]	; 0x24
    85a8:	60c5      	str	r5, [r0, #12]
    85aa:	6045      	str	r5, [r0, #4]
    85ac:	6085      	str	r5, [r0, #8]
    85ae:	6005      	str	r5, [r0, #0]
    85b0:	e7e9      	b.n	8586 <_Bfree+0xa>
    85b2:	bf00      	nop

000085b4 <_Balloc>:
    85b4:	b570      	push	{r4, r5, r6, lr}
    85b6:	6a44      	ldr	r4, [r0, #36]	; 0x24
    85b8:	4606      	mov	r6, r0
    85ba:	460d      	mov	r5, r1
    85bc:	b164      	cbz	r4, 85d8 <_Balloc+0x24>
    85be:	68e2      	ldr	r2, [r4, #12]
    85c0:	b1a2      	cbz	r2, 85ec <_Balloc+0x38>
    85c2:	f852 3025 	ldr.w	r3, [r2, r5, lsl #2]
    85c6:	b1eb      	cbz	r3, 8604 <_Balloc+0x50>
    85c8:	6819      	ldr	r1, [r3, #0]
    85ca:	f842 1025 	str.w	r1, [r2, r5, lsl #2]
    85ce:	2200      	movs	r2, #0
    85d0:	60da      	str	r2, [r3, #12]
    85d2:	611a      	str	r2, [r3, #16]
    85d4:	4618      	mov	r0, r3
    85d6:	bd70      	pop	{r4, r5, r6, pc}
    85d8:	2010      	movs	r0, #16
    85da:	f7ff facf 	bl	7b7c <malloc>
    85de:	2300      	movs	r3, #0
    85e0:	4604      	mov	r4, r0
    85e2:	6270      	str	r0, [r6, #36]	; 0x24
    85e4:	60c3      	str	r3, [r0, #12]
    85e6:	6043      	str	r3, [r0, #4]
    85e8:	6083      	str	r3, [r0, #8]
    85ea:	6003      	str	r3, [r0, #0]
    85ec:	2210      	movs	r2, #16
    85ee:	4630      	mov	r0, r6
    85f0:	2104      	movs	r1, #4
    85f2:	f000 fe0f 	bl	9214 <_calloc_r>
    85f6:	6a73      	ldr	r3, [r6, #36]	; 0x24
    85f8:	60e0      	str	r0, [r4, #12]
    85fa:	68da      	ldr	r2, [r3, #12]
    85fc:	2a00      	cmp	r2, #0
    85fe:	d1e0      	bne.n	85c2 <_Balloc+0xe>
    8600:	4613      	mov	r3, r2
    8602:	e7e7      	b.n	85d4 <_Balloc+0x20>
    8604:	2401      	movs	r4, #1
    8606:	4630      	mov	r0, r6
    8608:	4621      	mov	r1, r4
    860a:	40ac      	lsls	r4, r5
    860c:	1d62      	adds	r2, r4, #5
    860e:	0092      	lsls	r2, r2, #2
    8610:	f000 fe00 	bl	9214 <_calloc_r>
    8614:	4603      	mov	r3, r0
    8616:	2800      	cmp	r0, #0
    8618:	d0dc      	beq.n	85d4 <_Balloc+0x20>
    861a:	6045      	str	r5, [r0, #4]
    861c:	6084      	str	r4, [r0, #8]
    861e:	e7d6      	b.n	85ce <_Balloc+0x1a>

00008620 <__d2b>:
    8620:	e92d 45f0 	stmdb	sp!, {r4, r5, r6, r7, r8, sl, lr}
    8624:	b083      	sub	sp, #12
    8626:	2101      	movs	r1, #1
    8628:	461d      	mov	r5, r3
    862a:	4614      	mov	r4, r2
    862c:	9f0a      	ldr	r7, [sp, #40]	; 0x28
    862e:	9e0b      	ldr	r6, [sp, #44]	; 0x2c
    8630:	f7ff ffc0 	bl	85b4 <_Balloc>
    8634:	f025 4200 	bic.w	r2, r5, #2147483648	; 0x80000000
    8638:	f025 437f 	bic.w	r3, r5, #4278190080	; 0xff000000
    863c:	f423 0370 	bic.w	r3, r3, #15728640	; 0xf00000
    8640:	4615      	mov	r5, r2
    8642:	ea5f 5a12 	movs.w	sl, r2, lsr #20
    8646:	9300      	str	r3, [sp, #0]
    8648:	bf1c      	itt	ne
    864a:	f443 1380 	orrne.w	r3, r3, #1048576	; 0x100000
    864e:	9300      	strne	r3, [sp, #0]
    8650:	4680      	mov	r8, r0
    8652:	2c00      	cmp	r4, #0
    8654:	d023      	beq.n	869e <__d2b+0x7e>
    8656:	a802      	add	r0, sp, #8
    8658:	f840 4d04 	str.w	r4, [r0, #-4]!
    865c:	f7ff fe22 	bl	82a4 <__lo0bits>
    8660:	4603      	mov	r3, r0
    8662:	2800      	cmp	r0, #0
    8664:	d137      	bne.n	86d6 <__d2b+0xb6>
    8666:	9901      	ldr	r1, [sp, #4]
    8668:	9a00      	ldr	r2, [sp, #0]
    866a:	f8c8 1014 	str.w	r1, [r8, #20]
    866e:	2a00      	cmp	r2, #0
    8670:	bf14      	ite	ne
    8672:	2402      	movne	r4, #2
    8674:	2401      	moveq	r4, #1
    8676:	f8c8 2018 	str.w	r2, [r8, #24]
    867a:	f8c8 4010 	str.w	r4, [r8, #16]
    867e:	f1ba 0f00 	cmp.w	sl, #0
    8682:	d01b      	beq.n	86bc <__d2b+0x9c>
    8684:	f5aa 6a86 	sub.w	sl, sl, #1072	; 0x430
    8688:	f1c3 0235 	rsb	r2, r3, #53	; 0x35
    868c:	f1aa 0a03 	sub.w	sl, sl, #3
    8690:	4453      	add	r3, sl
    8692:	603b      	str	r3, [r7, #0]
    8694:	6032      	str	r2, [r6, #0]
    8696:	4640      	mov	r0, r8
    8698:	b003      	add	sp, #12
    869a:	e8bd 85f0 	ldmia.w	sp!, {r4, r5, r6, r7, r8, sl, pc}
    869e:	4668      	mov	r0, sp
    86a0:	f7ff fe00 	bl	82a4 <__lo0bits>
    86a4:	2301      	movs	r3, #1
    86a6:	461c      	mov	r4, r3
    86a8:	f8c8 3010 	str.w	r3, [r8, #16]
    86ac:	9b00      	ldr	r3, [sp, #0]
    86ae:	f8c8 3014 	str.w	r3, [r8, #20]
    86b2:	f100 0320 	add.w	r3, r0, #32
    86b6:	f1ba 0f00 	cmp.w	sl, #0
    86ba:	d1e3      	bne.n	8684 <__d2b+0x64>
    86bc:	eb08 0284 	add.w	r2, r8, r4, lsl #2
    86c0:	f5a3 6386 	sub.w	r3, r3, #1072	; 0x430
    86c4:	3b02      	subs	r3, #2
    86c6:	603b      	str	r3, [r7, #0]
    86c8:	6910      	ldr	r0, [r2, #16]
    86ca:	f7ff fdcb 	bl	8264 <__hi0bits>
    86ce:	ebc0 1044 	rsb	r0, r0, r4, lsl #5
    86d2:	6030      	str	r0, [r6, #0]
    86d4:	e7df      	b.n	8696 <__d2b+0x76>
    86d6:	9a00      	ldr	r2, [sp, #0]
    86d8:	f1c0 0120 	rsb	r1, r0, #32
    86dc:	fa12 f101 	lsls.w	r1, r2, r1
    86e0:	40c2      	lsrs	r2, r0
    86e2:	9801      	ldr	r0, [sp, #4]
    86e4:	4301      	orrs	r1, r0
    86e6:	f8c8 1014 	str.w	r1, [r8, #20]
    86ea:	9200      	str	r2, [sp, #0]
    86ec:	e7bf      	b.n	866e <__d2b+0x4e>
    86ee:	bf00      	nop

000086f0 <__mdiff>:
    86f0:	e92d 4ff8 	stmdb	sp!, {r3, r4, r5, r6, r7, r8, r9, sl, fp, lr}
    86f4:	6913      	ldr	r3, [r2, #16]
    86f6:	690f      	ldr	r7, [r1, #16]
    86f8:	460c      	mov	r4, r1
    86fa:	4615      	mov	r5, r2
    86fc:	1aff      	subs	r7, r7, r3
    86fe:	2f00      	cmp	r7, #0
    8700:	d04f      	beq.n	87a2 <__mdiff+0xb2>
    8702:	db6a      	blt.n	87da <__mdiff+0xea>
    8704:	2700      	movs	r7, #0
    8706:	f101 0614 	add.w	r6, r1, #20
    870a:	6861      	ldr	r1, [r4, #4]
    870c:	f7ff ff52 	bl	85b4 <_Balloc>
    8710:	f8d5 8010 	ldr.w	r8, [r5, #16]
    8714:	f8d4 c010 	ldr.w	ip, [r4, #16]
    8718:	f105 0114 	add.w	r1, r5, #20
    871c:	2200      	movs	r2, #0
    871e:	eb05 0588 	add.w	r5, r5, r8, lsl #2
    8722:	eb04 048c 	add.w	r4, r4, ip, lsl #2
    8726:	f105 0814 	add.w	r8, r5, #20
    872a:	3414      	adds	r4, #20
    872c:	f100 0314 	add.w	r3, r0, #20
    8730:	60c7      	str	r7, [r0, #12]
    8732:	f851 7b04 	ldr.w	r7, [r1], #4
    8736:	f856 5b04 	ldr.w	r5, [r6], #4
    873a:	46bb      	mov	fp, r7
    873c:	fa1f fa87 	uxth.w	sl, r7
    8740:	0c3f      	lsrs	r7, r7, #16
    8742:	fa1f f985 	uxth.w	r9, r5
    8746:	ebc7 4715 	rsb	r7, r7, r5, lsr #16
    874a:	ebca 0a09 	rsb	sl, sl, r9
    874e:	4452      	add	r2, sl
    8750:	eb07 4722 	add.w	r7, r7, r2, asr #16
    8754:	b292      	uxth	r2, r2
    8756:	ea42 4207 	orr.w	r2, r2, r7, lsl #16
    875a:	f843 2b04 	str.w	r2, [r3], #4
    875e:	143a      	asrs	r2, r7, #16
    8760:	4588      	cmp	r8, r1
    8762:	d8e6      	bhi.n	8732 <__mdiff+0x42>
    8764:	42a6      	cmp	r6, r4
    8766:	d20e      	bcs.n	8786 <__mdiff+0x96>
    8768:	f856 1b04 	ldr.w	r1, [r6], #4
    876c:	b28d      	uxth	r5, r1
    876e:	0c09      	lsrs	r1, r1, #16
    8770:	1952      	adds	r2, r2, r5
    8772:	eb01 4122 	add.w	r1, r1, r2, asr #16
    8776:	b292      	uxth	r2, r2
    8778:	ea42 4201 	orr.w	r2, r2, r1, lsl #16
    877c:	f843 2b04 	str.w	r2, [r3], #4
    8780:	140a      	asrs	r2, r1, #16
    8782:	42b4      	cmp	r4, r6
    8784:	d8f0      	bhi.n	8768 <__mdiff+0x78>
    8786:	f853 2c04 	ldr.w	r2, [r3, #-4]
    878a:	b932      	cbnz	r2, 879a <__mdiff+0xaa>
    878c:	f853 2c08 	ldr.w	r2, [r3, #-8]
    8790:	f10c 3cff 	add.w	ip, ip, #4294967295
    8794:	3b04      	subs	r3, #4
    8796:	2a00      	cmp	r2, #0
    8798:	d0f8      	beq.n	878c <__mdiff+0x9c>
    879a:	f8c0 c010 	str.w	ip, [r0, #16]
    879e:	e8bd 8ff8 	ldmia.w	sp!, {r3, r4, r5, r6, r7, r8, r9, sl, fp, pc}
    87a2:	3304      	adds	r3, #4
    87a4:	f101 0614 	add.w	r6, r1, #20
    87a8:	009b      	lsls	r3, r3, #2
    87aa:	18d2      	adds	r2, r2, r3
    87ac:	18cb      	adds	r3, r1, r3
    87ae:	3304      	adds	r3, #4
    87b0:	3204      	adds	r2, #4
    87b2:	f853 cc04 	ldr.w	ip, [r3, #-4]
    87b6:	3b04      	subs	r3, #4
    87b8:	f852 1c04 	ldr.w	r1, [r2, #-4]
    87bc:	3a04      	subs	r2, #4
    87be:	458c      	cmp	ip, r1
    87c0:	d10a      	bne.n	87d8 <__mdiff+0xe8>
    87c2:	429e      	cmp	r6, r3
    87c4:	d3f5      	bcc.n	87b2 <__mdiff+0xc2>
    87c6:	2100      	movs	r1, #0
    87c8:	f7ff fef4 	bl	85b4 <_Balloc>
    87cc:	2301      	movs	r3, #1
    87ce:	6103      	str	r3, [r0, #16]
    87d0:	2300      	movs	r3, #0
    87d2:	6143      	str	r3, [r0, #20]
    87d4:	e8bd 8ff8 	ldmia.w	sp!, {r3, r4, r5, r6, r7, r8, r9, sl, fp, pc}
    87d8:	d297      	bcs.n	870a <__mdiff+0x1a>
    87da:	4623      	mov	r3, r4
    87dc:	462c      	mov	r4, r5
    87de:	2701      	movs	r7, #1
    87e0:	461d      	mov	r5, r3
    87e2:	f104 0614 	add.w	r6, r4, #20
    87e6:	e790      	b.n	870a <__mdiff+0x1a>

000087e8 <__lshift>:
    87e8:	e92d 45f8 	stmdb	sp!, {r3, r4, r5, r6, r7, r8, sl, lr}
    87ec:	690d      	ldr	r5, [r1, #16]
    87ee:	688b      	ldr	r3, [r1, #8]
    87f0:	1156      	asrs	r6, r2, #5
    87f2:	3501      	adds	r5, #1
    87f4:	460c      	mov	r4, r1
    87f6:	19ad      	adds	r5, r5, r6
    87f8:	4690      	mov	r8, r2
    87fa:	429d      	cmp	r5, r3
    87fc:	4682      	mov	sl, r0
    87fe:	6849      	ldr	r1, [r1, #4]
    8800:	dd03      	ble.n	880a <__lshift+0x22>
    8802:	005b      	lsls	r3, r3, #1
    8804:	3101      	adds	r1, #1
    8806:	429d      	cmp	r5, r3
    8808:	dcfb      	bgt.n	8802 <__lshift+0x1a>
    880a:	4650      	mov	r0, sl
    880c:	f7ff fed2 	bl	85b4 <_Balloc>
    8810:	2e00      	cmp	r6, #0
    8812:	4607      	mov	r7, r0
    8814:	f100 0214 	add.w	r2, r0, #20
    8818:	dd0a      	ble.n	8830 <__lshift+0x48>
    881a:	2300      	movs	r3, #0
    881c:	4619      	mov	r1, r3
    881e:	f842 1023 	str.w	r1, [r2, r3, lsl #2]
    8822:	3301      	adds	r3, #1
    8824:	42b3      	cmp	r3, r6
    8826:	d1fa      	bne.n	881e <__lshift+0x36>
    8828:	eb07 0383 	add.w	r3, r7, r3, lsl #2
    882c:	f103 0214 	add.w	r2, r3, #20
    8830:	6920      	ldr	r0, [r4, #16]
    8832:	f104 0314 	add.w	r3, r4, #20
    8836:	eb04 0080 	add.w	r0, r4, r0, lsl #2
    883a:	3014      	adds	r0, #20
    883c:	f018 081f 	ands.w	r8, r8, #31
    8840:	d01b      	beq.n	887a <__lshift+0x92>
    8842:	f1c8 0e20 	rsb	lr, r8, #32
    8846:	2100      	movs	r1, #0
    8848:	681e      	ldr	r6, [r3, #0]
    884a:	fa06 fc08 	lsl.w	ip, r6, r8
    884e:	ea41 010c 	orr.w	r1, r1, ip
    8852:	f842 1b04 	str.w	r1, [r2], #4
    8856:	f853 1b04 	ldr.w	r1, [r3], #4
    885a:	4298      	cmp	r0, r3
    885c:	fa21 f10e 	lsr.w	r1, r1, lr
    8860:	d8f2      	bhi.n	8848 <__lshift+0x60>
    8862:	6011      	str	r1, [r2, #0]
    8864:	b101      	cbz	r1, 8868 <__lshift+0x80>
    8866:	3501      	adds	r5, #1
    8868:	4650      	mov	r0, sl
    886a:	3d01      	subs	r5, #1
    886c:	4621      	mov	r1, r4
    886e:	613d      	str	r5, [r7, #16]
    8870:	f7ff fe84 	bl	857c <_Bfree>
    8874:	4638      	mov	r0, r7
    8876:	e8bd 85f8 	ldmia.w	sp!, {r3, r4, r5, r6, r7, r8, sl, pc}
    887a:	f853 1008 	ldr.w	r1, [r3, r8]
    887e:	f842 1008 	str.w	r1, [r2, r8]
    8882:	f108 0804 	add.w	r8, r8, #4
    8886:	eb08 0103 	add.w	r1, r8, r3
    888a:	4288      	cmp	r0, r1
    888c:	d9ec      	bls.n	8868 <__lshift+0x80>
    888e:	f853 1008 	ldr.w	r1, [r3, r8]
    8892:	f842 1008 	str.w	r1, [r2, r8]
    8896:	f108 0804 	add.w	r8, r8, #4
    889a:	eb08 0103 	add.w	r1, r8, r3
    889e:	4288      	cmp	r0, r1
    88a0:	d8eb      	bhi.n	887a <__lshift+0x92>
    88a2:	e7e1      	b.n	8868 <__lshift+0x80>

000088a4 <__multiply>:
    88a4:	e92d 4ff0 	stmdb	sp!, {r4, r5, r6, r7, r8, r9, sl, fp, lr}
    88a8:	f8d1 8010 	ldr.w	r8, [r1, #16]
    88ac:	6917      	ldr	r7, [r2, #16]
    88ae:	460d      	mov	r5, r1
    88b0:	4616      	mov	r6, r2
    88b2:	b087      	sub	sp, #28
    88b4:	45b8      	cmp	r8, r7
    88b6:	bfb5      	itete	lt
    88b8:	4615      	movlt	r5, r2
    88ba:	463b      	movge	r3, r7
    88bc:	460b      	movlt	r3, r1
    88be:	4647      	movge	r7, r8
    88c0:	bfb4      	ite	lt
    88c2:	461e      	movlt	r6, r3
    88c4:	4698      	movge	r8, r3
    88c6:	68ab      	ldr	r3, [r5, #8]
    88c8:	eb08 0407 	add.w	r4, r8, r7
    88cc:	6869      	ldr	r1, [r5, #4]
    88ce:	429c      	cmp	r4, r3
    88d0:	bfc8      	it	gt
    88d2:	3101      	addgt	r1, #1
    88d4:	f7ff fe6e 	bl	85b4 <_Balloc>
    88d8:	eb00 0384 	add.w	r3, r0, r4, lsl #2
    88dc:	f100 0b14 	add.w	fp, r0, #20
    88e0:	3314      	adds	r3, #20
    88e2:	9003      	str	r0, [sp, #12]
    88e4:	459b      	cmp	fp, r3
    88e6:	9304      	str	r3, [sp, #16]
    88e8:	d206      	bcs.n	88f8 <__multiply+0x54>
    88ea:	9904      	ldr	r1, [sp, #16]
    88ec:	465b      	mov	r3, fp
    88ee:	2200      	movs	r2, #0
    88f0:	f843 2b04 	str.w	r2, [r3], #4
    88f4:	4299      	cmp	r1, r3
    88f6:	d8fb      	bhi.n	88f0 <__multiply+0x4c>
    88f8:	eb06 0888 	add.w	r8, r6, r8, lsl #2
    88fc:	f106 0914 	add.w	r9, r6, #20
    8900:	f108 0814 	add.w	r8, r8, #20
    8904:	eb05 0c87 	add.w	ip, r5, r7, lsl #2
    8908:	3514      	adds	r5, #20
    890a:	45c1      	cmp	r9, r8
    890c:	f8cd 8004 	str.w	r8, [sp, #4]
    8910:	f10c 0c14 	add.w	ip, ip, #20
    8914:	9502      	str	r5, [sp, #8]
    8916:	d24b      	bcs.n	89b0 <__multiply+0x10c>
    8918:	f04f 0a00 	mov.w	sl, #0
    891c:	9405      	str	r4, [sp, #20]
    891e:	f859 400a 	ldr.w	r4, [r9, sl]
    8922:	eb0a 080b 	add.w	r8, sl, fp
    8926:	b2a0      	uxth	r0, r4
    8928:	b1d8      	cbz	r0, 8962 <__multiply+0xbe>
    892a:	9a02      	ldr	r2, [sp, #8]
    892c:	4643      	mov	r3, r8
    892e:	2400      	movs	r4, #0
    8930:	f852 5b04 	ldr.w	r5, [r2], #4
    8934:	6819      	ldr	r1, [r3, #0]
    8936:	b2af      	uxth	r7, r5
    8938:	0c2d      	lsrs	r5, r5, #16
    893a:	b28e      	uxth	r6, r1
    893c:	0c09      	lsrs	r1, r1, #16
    893e:	fb00 6607 	mla	r6, r0, r7, r6
    8942:	fb00 1105 	mla	r1, r0, r5, r1
    8946:	1936      	adds	r6, r6, r4
    8948:	eb01 4116 	add.w	r1, r1, r6, lsr #16
    894c:	b2b6      	uxth	r6, r6
    894e:	0c0c      	lsrs	r4, r1, #16
    8950:	4594      	cmp	ip, r2
    8952:	ea46 4601 	orr.w	r6, r6, r1, lsl #16
    8956:	f843 6b04 	str.w	r6, [r3], #4
    895a:	d8e9      	bhi.n	8930 <__multiply+0x8c>
    895c:	601c      	str	r4, [r3, #0]
    895e:	f859 400a 	ldr.w	r4, [r9, sl]
    8962:	0c24      	lsrs	r4, r4, #16
    8964:	d01c      	beq.n	89a0 <__multiply+0xfc>
    8966:	f85b 200a 	ldr.w	r2, [fp, sl]
    896a:	4641      	mov	r1, r8
    896c:	9b02      	ldr	r3, [sp, #8]
    896e:	2500      	movs	r5, #0
    8970:	4610      	mov	r0, r2
    8972:	881e      	ldrh	r6, [r3, #0]
    8974:	b297      	uxth	r7, r2
    8976:	fb06 5504 	mla	r5, r6, r4, r5
    897a:	eb05 4510 	add.w	r5, r5, r0, lsr #16
    897e:	ea47 4705 	orr.w	r7, r7, r5, lsl #16
    8982:	600f      	str	r7, [r1, #0]
    8984:	f851 0f04 	ldr.w	r0, [r1, #4]!
    8988:	f853 2b04 	ldr.w	r2, [r3], #4
    898c:	b286      	uxth	r6, r0
    898e:	0c12      	lsrs	r2, r2, #16
    8990:	fb02 6204 	mla	r2, r2, r4, r6
    8994:	eb02 4215 	add.w	r2, r2, r5, lsr #16
    8998:	0c15      	lsrs	r5, r2, #16
    899a:	459c      	cmp	ip, r3
    899c:	d8e9      	bhi.n	8972 <__multiply+0xce>
    899e:	600a      	str	r2, [r1, #0]
    89a0:	f10a 0a04 	add.w	sl, sl, #4
    89a4:	9a01      	ldr	r2, [sp, #4]
    89a6:	eb0a 0309 	add.w	r3, sl, r9
    89aa:	429a      	cmp	r2, r3
    89ac:	d8b7      	bhi.n	891e <__multiply+0x7a>
    89ae:	9c05      	ldr	r4, [sp, #20]
    89b0:	2c00      	cmp	r4, #0
    89b2:	dd0b      	ble.n	89cc <__multiply+0x128>
    89b4:	9a04      	ldr	r2, [sp, #16]
    89b6:	f852 3c04 	ldr.w	r3, [r2, #-4]
    89ba:	b93b      	cbnz	r3, 89cc <__multiply+0x128>
    89bc:	4613      	mov	r3, r2
    89be:	e003      	b.n	89c8 <__multiply+0x124>
    89c0:	f853 2c08 	ldr.w	r2, [r3, #-8]
    89c4:	3b04      	subs	r3, #4
    89c6:	b90a      	cbnz	r2, 89cc <__multiply+0x128>
    89c8:	3c01      	subs	r4, #1
    89ca:	d1f9      	bne.n	89c0 <__multiply+0x11c>
    89cc:	9b03      	ldr	r3, [sp, #12]
    89ce:	4618      	mov	r0, r3
    89d0:	611c      	str	r4, [r3, #16]
    89d2:	b007      	add	sp, #28
    89d4:	e8bd 8ff0 	ldmia.w	sp!, {r4, r5, r6, r7, r8, r9, sl, fp, pc}

000089d8 <__i2b>:
    89d8:	b510      	push	{r4, lr}
    89da:	460c      	mov	r4, r1
    89dc:	2101      	movs	r1, #1
    89de:	f7ff fde9 	bl	85b4 <_Balloc>
    89e2:	2201      	movs	r2, #1
    89e4:	6144      	str	r4, [r0, #20]
    89e6:	6102      	str	r2, [r0, #16]
    89e8:	bd10      	pop	{r4, pc}
    89ea:	bf00      	nop

000089ec <__multadd>:
    89ec:	e92d 45f0 	stmdb	sp!, {r4, r5, r6, r7, r8, sl, lr}
    89f0:	460d      	mov	r5, r1
    89f2:	2100      	movs	r1, #0
    89f4:	4606      	mov	r6, r0
    89f6:	692c      	ldr	r4, [r5, #16]
    89f8:	b083      	sub	sp, #12
    89fa:	f105 0814 	add.w	r8, r5, #20
    89fe:	4608      	mov	r0, r1
    8a00:	f858 7001 	ldr.w	r7, [r8, r1]
    8a04:	3001      	adds	r0, #1
    8a06:	fa1f fa87 	uxth.w	sl, r7
    8a0a:	ea4f 4c17 	mov.w	ip, r7, lsr #16
    8a0e:	fb0a 3302 	mla	r3, sl, r2, r3
    8a12:	fb0c fc02 	mul.w	ip, ip, r2
    8a16:	eb0c 4c13 	add.w	ip, ip, r3, lsr #16
    8a1a:	b29b      	uxth	r3, r3
    8a1c:	eb03 430c 	add.w	r3, r3, ip, lsl #16
    8a20:	f848 3001 	str.w	r3, [r8, r1]
    8a24:	3104      	adds	r1, #4
    8a26:	4284      	cmp	r4, r0
    8a28:	ea4f 431c 	mov.w	r3, ip, lsr #16
    8a2c:	dce8      	bgt.n	8a00 <__multadd+0x14>
    8a2e:	b13b      	cbz	r3, 8a40 <__multadd+0x54>
    8a30:	68aa      	ldr	r2, [r5, #8]
    8a32:	4294      	cmp	r4, r2
    8a34:	da08      	bge.n	8a48 <__multadd+0x5c>
    8a36:	eb05 0284 	add.w	r2, r5, r4, lsl #2
    8a3a:	3401      	adds	r4, #1
    8a3c:	612c      	str	r4, [r5, #16]
    8a3e:	6153      	str	r3, [r2, #20]
    8a40:	4628      	mov	r0, r5
    8a42:	b003      	add	sp, #12
    8a44:	e8bd 85f0 	ldmia.w	sp!, {r4, r5, r6, r7, r8, sl, pc}
    8a48:	6869      	ldr	r1, [r5, #4]
    8a4a:	4630      	mov	r0, r6
    8a4c:	9301      	str	r3, [sp, #4]
    8a4e:	3101      	adds	r1, #1
    8a50:	f7ff fdb0 	bl	85b4 <_Balloc>
    8a54:	692a      	ldr	r2, [r5, #16]
    8a56:	f105 010c 	add.w	r1, r5, #12
    8a5a:	3202      	adds	r2, #2
    8a5c:	0092      	lsls	r2, r2, #2
    8a5e:	4607      	mov	r7, r0
    8a60:	300c      	adds	r0, #12
    8a62:	f7fc fb2f 	bl	50c4 <memcpy>
    8a66:	4629      	mov	r1, r5
    8a68:	4630      	mov	r0, r6
    8a6a:	463d      	mov	r5, r7
    8a6c:	f7ff fd86 	bl	857c <_Bfree>
    8a70:	9b01      	ldr	r3, [sp, #4]
    8a72:	e7e0      	b.n	8a36 <__multadd+0x4a>

00008a74 <__pow5mult>:
    8a74:	e92d 41f0 	stmdb	sp!, {r4, r5, r6, r7, r8, lr}
    8a78:	4615      	mov	r5, r2
    8a7a:	f012 0203 	ands.w	r2, r2, #3
    8a7e:	4604      	mov	r4, r0
    8a80:	4688      	mov	r8, r1
    8a82:	d12c      	bne.n	8ade <__pow5mult+0x6a>
    8a84:	10ad      	asrs	r5, r5, #2
    8a86:	d01e      	beq.n	8ac6 <__pow5mult+0x52>
    8a88:	6a66      	ldr	r6, [r4, #36]	; 0x24
    8a8a:	2e00      	cmp	r6, #0
    8a8c:	d034      	beq.n	8af8 <__pow5mult+0x84>
    8a8e:	68b7      	ldr	r7, [r6, #8]
    8a90:	2f00      	cmp	r7, #0
    8a92:	d03b      	beq.n	8b0c <__pow5mult+0x98>
    8a94:	f015 0f01 	tst.w	r5, #1
    8a98:	d108      	bne.n	8aac <__pow5mult+0x38>
    8a9a:	106d      	asrs	r5, r5, #1
    8a9c:	d013      	beq.n	8ac6 <__pow5mult+0x52>
    8a9e:	683e      	ldr	r6, [r7, #0]
    8aa0:	b1a6      	cbz	r6, 8acc <__pow5mult+0x58>
    8aa2:	4630      	mov	r0, r6
    8aa4:	4607      	mov	r7, r0
    8aa6:	f015 0f01 	tst.w	r5, #1
    8aaa:	d0f6      	beq.n	8a9a <__pow5mult+0x26>
    8aac:	4641      	mov	r1, r8
    8aae:	463a      	mov	r2, r7
    8ab0:	4620      	mov	r0, r4
    8ab2:	f7ff fef7 	bl	88a4 <__multiply>
    8ab6:	4641      	mov	r1, r8
    8ab8:	4606      	mov	r6, r0
    8aba:	4620      	mov	r0, r4
    8abc:	f7ff fd5e 	bl	857c <_Bfree>
    8ac0:	106d      	asrs	r5, r5, #1
    8ac2:	46b0      	mov	r8, r6
    8ac4:	d1eb      	bne.n	8a9e <__pow5mult+0x2a>
    8ac6:	4640      	mov	r0, r8
    8ac8:	e8bd 81f0 	ldmia.w	sp!, {r4, r5, r6, r7, r8, pc}
    8acc:	4639      	mov	r1, r7
    8ace:	463a      	mov	r2, r7
    8ad0:	4620      	mov	r0, r4
    8ad2:	f7ff fee7 	bl	88a4 <__multiply>
    8ad6:	6038      	str	r0, [r7, #0]
    8ad8:	4607      	mov	r7, r0
    8ada:	6006      	str	r6, [r0, #0]
    8adc:	e7e3      	b.n	8aa6 <__pow5mult+0x32>
    8ade:	f24b 2c18 	movw	ip, #45592	; 0xb218
    8ae2:	2300      	movs	r3, #0
    8ae4:	f2c0 0c00 	movt	ip, #0
    8ae8:	eb0c 0282 	add.w	r2, ip, r2, lsl #2
    8aec:	f8d2 20c4 	ldr.w	r2, [r2, #196]	; 0xc4
    8af0:	f7ff ff7c 	bl	89ec <__multadd>
    8af4:	4680      	mov	r8, r0
    8af6:	e7c5      	b.n	8a84 <__pow5mult+0x10>
    8af8:	2010      	movs	r0, #16
    8afa:	f7ff f83f 	bl	7b7c <malloc>
    8afe:	2300      	movs	r3, #0
    8b00:	4606      	mov	r6, r0
    8b02:	6260      	str	r0, [r4, #36]	; 0x24
    8b04:	60c3      	str	r3, [r0, #12]
    8b06:	6043      	str	r3, [r0, #4]
    8b08:	6083      	str	r3, [r0, #8]
    8b0a:	6003      	str	r3, [r0, #0]
    8b0c:	4620      	mov	r0, r4
    8b0e:	f240 2171 	movw	r1, #625	; 0x271
    8b12:	f7ff ff61 	bl	89d8 <__i2b>
    8b16:	2300      	movs	r3, #0
    8b18:	60b0      	str	r0, [r6, #8]
    8b1a:	4607      	mov	r7, r0
    8b1c:	6003      	str	r3, [r0, #0]
    8b1e:	e7b9      	b.n	8a94 <__pow5mult+0x20>

00008b20 <__s2b>:
    8b20:	e92d 45f8 	stmdb	sp!, {r3, r4, r5, r6, r7, r8, sl, lr}
    8b24:	461e      	mov	r6, r3
    8b26:	f648 6339 	movw	r3, #36409	; 0x8e39
    8b2a:	f106 0c08 	add.w	ip, r6, #8
    8b2e:	f6c3 03e3 	movt	r3, #14563	; 0x38e3
    8b32:	4688      	mov	r8, r1
    8b34:	4605      	mov	r5, r0
    8b36:	4617      	mov	r7, r2
    8b38:	fb83 130c 	smull	r1, r3, r3, ip
    8b3c:	ea4f 7cec 	mov.w	ip, ip, asr #31
    8b40:	ebcc 0c63 	rsb	ip, ip, r3, asr #1
    8b44:	f1bc 0f01 	cmp.w	ip, #1
    8b48:	dd35      	ble.n	8bb6 <__s2b+0x96>
    8b4a:	2100      	movs	r1, #0
    8b4c:	2201      	movs	r2, #1
    8b4e:	0052      	lsls	r2, r2, #1
    8b50:	3101      	adds	r1, #1
    8b52:	4594      	cmp	ip, r2
    8b54:	dcfb      	bgt.n	8b4e <__s2b+0x2e>
    8b56:	4628      	mov	r0, r5
    8b58:	f7ff fd2c 	bl	85b4 <_Balloc>
    8b5c:	9b08      	ldr	r3, [sp, #32]
    8b5e:	6143      	str	r3, [r0, #20]
    8b60:	2301      	movs	r3, #1
    8b62:	2f09      	cmp	r7, #9
    8b64:	6103      	str	r3, [r0, #16]
    8b66:	dd22      	ble.n	8bae <__s2b+0x8e>
    8b68:	f108 0a09 	add.w	sl, r8, #9
    8b6c:	2409      	movs	r4, #9
    8b6e:	f818 3004 	ldrb.w	r3, [r8, r4]
    8b72:	4601      	mov	r1, r0
    8b74:	220a      	movs	r2, #10
    8b76:	3401      	adds	r4, #1
    8b78:	3b30      	subs	r3, #48	; 0x30
    8b7a:	4628      	mov	r0, r5
    8b7c:	f7ff ff36 	bl	89ec <__multadd>
    8b80:	42a7      	cmp	r7, r4
    8b82:	dcf4      	bgt.n	8b6e <__s2b+0x4e>
    8b84:	eb0a 0807 	add.w	r8, sl, r7
    8b88:	f1a8 0808 	sub.w	r8, r8, #8
    8b8c:	42be      	cmp	r6, r7
    8b8e:	dd0c      	ble.n	8baa <__s2b+0x8a>
    8b90:	2400      	movs	r4, #0
    8b92:	f818 3004 	ldrb.w	r3, [r8, r4]
    8b96:	4601      	mov	r1, r0
    8b98:	3401      	adds	r4, #1
    8b9a:	220a      	movs	r2, #10
    8b9c:	3b30      	subs	r3, #48	; 0x30
    8b9e:	4628      	mov	r0, r5
    8ba0:	f7ff ff24 	bl	89ec <__multadd>
    8ba4:	19e3      	adds	r3, r4, r7
    8ba6:	429e      	cmp	r6, r3
    8ba8:	dcf3      	bgt.n	8b92 <__s2b+0x72>
    8baa:	e8bd 85f8 	ldmia.w	sp!, {r3, r4, r5, r6, r7, r8, sl, pc}
    8bae:	f108 080a 	add.w	r8, r8, #10
    8bb2:	2709      	movs	r7, #9
    8bb4:	e7ea      	b.n	8b8c <__s2b+0x6c>
    8bb6:	2100      	movs	r1, #0
    8bb8:	e7cd      	b.n	8b56 <__s2b+0x36>
    8bba:	bf00      	nop

00008bbc <_realloc_r>:
    8bbc:	e92d 4ff0 	stmdb	sp!, {r4, r5, r6, r7, r8, r9, sl, fp, lr}
    8bc0:	4691      	mov	r9, r2
    8bc2:	b083      	sub	sp, #12
    8bc4:	4607      	mov	r7, r0
    8bc6:	460e      	mov	r6, r1
    8bc8:	2900      	cmp	r1, #0
    8bca:	f000 813a 	beq.w	8e42 <_realloc_r+0x286>
    8bce:	f1a1 0808 	sub.w	r8, r1, #8
    8bd2:	f109 040b 	add.w	r4, r9, #11
    8bd6:	f7ff fb41 	bl	825c <__malloc_lock>
    8bda:	2c16      	cmp	r4, #22
    8bdc:	f8d8 1004 	ldr.w	r1, [r8, #4]
    8be0:	460b      	mov	r3, r1
    8be2:	f200 80a0 	bhi.w	8d26 <_realloc_r+0x16a>
    8be6:	2210      	movs	r2, #16
    8be8:	2500      	movs	r5, #0
    8bea:	4614      	mov	r4, r2
    8bec:	454c      	cmp	r4, r9
    8bee:	bf38      	it	cc
    8bf0:	f045 0501 	orrcc.w	r5, r5, #1
    8bf4:	2d00      	cmp	r5, #0
    8bf6:	f040 812a 	bne.w	8e4e <_realloc_r+0x292>
    8bfa:	f021 0a03 	bic.w	sl, r1, #3
    8bfe:	4592      	cmp	sl, r2
    8c00:	bfa2      	ittt	ge
    8c02:	4640      	movge	r0, r8
    8c04:	4655      	movge	r5, sl
    8c06:	f108 0808 	addge.w	r8, r8, #8
    8c0a:	da75      	bge.n	8cf8 <_realloc_r+0x13c>
    8c0c:	f240 1328 	movw	r3, #296	; 0x128
    8c10:	eb08 000a 	add.w	r0, r8, sl
    8c14:	f2c2 0300 	movt	r3, #8192	; 0x2000
    8c18:	f8d3 e008 	ldr.w	lr, [r3, #8]
    8c1c:	4586      	cmp	lr, r0
    8c1e:	f000 811a 	beq.w	8e56 <_realloc_r+0x29a>
    8c22:	f8d0 c004 	ldr.w	ip, [r0, #4]
    8c26:	f02c 0b01 	bic.w	fp, ip, #1
    8c2a:	4483      	add	fp, r0
    8c2c:	f8db b004 	ldr.w	fp, [fp, #4]
    8c30:	f01b 0f01 	tst.w	fp, #1
    8c34:	d07c      	beq.n	8d30 <_realloc_r+0x174>
    8c36:	46ac      	mov	ip, r5
    8c38:	4628      	mov	r0, r5
    8c3a:	f011 0f01 	tst.w	r1, #1
    8c3e:	f040 809b 	bne.w	8d78 <_realloc_r+0x1bc>
    8c42:	f856 1c08 	ldr.w	r1, [r6, #-8]
    8c46:	ebc1 0b08 	rsb	fp, r1, r8
    8c4a:	f8db 5004 	ldr.w	r5, [fp, #4]
    8c4e:	f025 0503 	bic.w	r5, r5, #3
    8c52:	2800      	cmp	r0, #0
    8c54:	f000 80dd 	beq.w	8e12 <_realloc_r+0x256>
    8c58:	4570      	cmp	r0, lr
    8c5a:	f000 811f 	beq.w	8e9c <_realloc_r+0x2e0>
    8c5e:	eb05 030a 	add.w	r3, r5, sl
    8c62:	eb0c 0503 	add.w	r5, ip, r3
    8c66:	4295      	cmp	r5, r2
    8c68:	bfb8      	it	lt
    8c6a:	461d      	movlt	r5, r3
    8c6c:	f2c0 80d2 	blt.w	8e14 <_realloc_r+0x258>
    8c70:	6881      	ldr	r1, [r0, #8]
    8c72:	465b      	mov	r3, fp
    8c74:	68c0      	ldr	r0, [r0, #12]
    8c76:	f1aa 0204 	sub.w	r2, sl, #4
    8c7a:	2a24      	cmp	r2, #36	; 0x24
    8c7c:	6081      	str	r1, [r0, #8]
    8c7e:	60c8      	str	r0, [r1, #12]
    8c80:	f853 1f08 	ldr.w	r1, [r3, #8]!
    8c84:	f8db 000c 	ldr.w	r0, [fp, #12]
    8c88:	6081      	str	r1, [r0, #8]
    8c8a:	60c8      	str	r0, [r1, #12]
    8c8c:	f200 80d0 	bhi.w	8e30 <_realloc_r+0x274>
    8c90:	2a13      	cmp	r2, #19
    8c92:	469c      	mov	ip, r3
    8c94:	d921      	bls.n	8cda <_realloc_r+0x11e>
    8c96:	4631      	mov	r1, r6
    8c98:	f10b 0c10 	add.w	ip, fp, #16
    8c9c:	f851 0b04 	ldr.w	r0, [r1], #4
    8ca0:	f8cb 0008 	str.w	r0, [fp, #8]
    8ca4:	6870      	ldr	r0, [r6, #4]
    8ca6:	1d0e      	adds	r6, r1, #4
    8ca8:	2a1b      	cmp	r2, #27
    8caa:	f8cb 000c 	str.w	r0, [fp, #12]
    8cae:	d914      	bls.n	8cda <_realloc_r+0x11e>
    8cb0:	6848      	ldr	r0, [r1, #4]
    8cb2:	1d31      	adds	r1, r6, #4
    8cb4:	f10b 0c18 	add.w	ip, fp, #24
    8cb8:	f8cb 0010 	str.w	r0, [fp, #16]
    8cbc:	6870      	ldr	r0, [r6, #4]
    8cbe:	1d0e      	adds	r6, r1, #4
    8cc0:	2a24      	cmp	r2, #36	; 0x24
    8cc2:	f8cb 0014 	str.w	r0, [fp, #20]
    8cc6:	d108      	bne.n	8cda <_realloc_r+0x11e>
    8cc8:	684a      	ldr	r2, [r1, #4]
    8cca:	f10b 0c20 	add.w	ip, fp, #32
    8cce:	f8cb 2018 	str.w	r2, [fp, #24]
    8cd2:	6872      	ldr	r2, [r6, #4]
    8cd4:	3608      	adds	r6, #8
    8cd6:	f8cb 201c 	str.w	r2, [fp, #28]
    8cda:	4631      	mov	r1, r6
    8cdc:	4698      	mov	r8, r3
    8cde:	4662      	mov	r2, ip
    8ce0:	4658      	mov	r0, fp
    8ce2:	f851 3b04 	ldr.w	r3, [r1], #4
    8ce6:	f842 3b04 	str.w	r3, [r2], #4
    8cea:	6873      	ldr	r3, [r6, #4]
    8cec:	f8cc 3004 	str.w	r3, [ip, #4]
    8cf0:	684b      	ldr	r3, [r1, #4]
    8cf2:	6053      	str	r3, [r2, #4]
    8cf4:	f8db 3004 	ldr.w	r3, [fp, #4]
    8cf8:	ebc4 0c05 	rsb	ip, r4, r5
    8cfc:	f1bc 0f0f 	cmp.w	ip, #15
    8d00:	d826      	bhi.n	8d50 <_realloc_r+0x194>
    8d02:	1942      	adds	r2, r0, r5
    8d04:	f003 0301 	and.w	r3, r3, #1
    8d08:	ea43 0505 	orr.w	r5, r3, r5
    8d0c:	6045      	str	r5, [r0, #4]
    8d0e:	6853      	ldr	r3, [r2, #4]
    8d10:	f043 0301 	orr.w	r3, r3, #1
    8d14:	6053      	str	r3, [r2, #4]
    8d16:	4638      	mov	r0, r7
    8d18:	4645      	mov	r5, r8
    8d1a:	f7ff faa1 	bl	8260 <__malloc_unlock>
    8d1e:	4628      	mov	r0, r5
    8d20:	b003      	add	sp, #12
    8d22:	e8bd 8ff0 	ldmia.w	sp!, {r4, r5, r6, r7, r8, r9, sl, fp, pc}
    8d26:	f024 0407 	bic.w	r4, r4, #7
    8d2a:	4622      	mov	r2, r4
    8d2c:	0fe5      	lsrs	r5, r4, #31
    8d2e:	e75d      	b.n	8bec <_realloc_r+0x30>
    8d30:	f02c 0c03 	bic.w	ip, ip, #3
    8d34:	eb0c 050a 	add.w	r5, ip, sl
    8d38:	4295      	cmp	r5, r2
    8d3a:	f6ff af7e 	blt.w	8c3a <_realloc_r+0x7e>
    8d3e:	6882      	ldr	r2, [r0, #8]
    8d40:	460b      	mov	r3, r1
    8d42:	68c1      	ldr	r1, [r0, #12]
    8d44:	4640      	mov	r0, r8
    8d46:	f108 0808 	add.w	r8, r8, #8
    8d4a:	608a      	str	r2, [r1, #8]
    8d4c:	60d1      	str	r1, [r2, #12]
    8d4e:	e7d3      	b.n	8cf8 <_realloc_r+0x13c>
    8d50:	1901      	adds	r1, r0, r4
    8d52:	f003 0301 	and.w	r3, r3, #1
    8d56:	eb01 020c 	add.w	r2, r1, ip
    8d5a:	ea43 0404 	orr.w	r4, r3, r4
    8d5e:	f04c 0301 	orr.w	r3, ip, #1
    8d62:	6044      	str	r4, [r0, #4]
    8d64:	604b      	str	r3, [r1, #4]
    8d66:	4638      	mov	r0, r7
    8d68:	6853      	ldr	r3, [r2, #4]
    8d6a:	3108      	adds	r1, #8
    8d6c:	f043 0301 	orr.w	r3, r3, #1
    8d70:	6053      	str	r3, [r2, #4]
    8d72:	f7fe fde1 	bl	7938 <_free_r>
    8d76:	e7ce      	b.n	8d16 <_realloc_r+0x15a>
    8d78:	4649      	mov	r1, r9
    8d7a:	4638      	mov	r0, r7
    8d7c:	f7fe ff06 	bl	7b8c <_malloc_r>
    8d80:	4605      	mov	r5, r0
    8d82:	2800      	cmp	r0, #0
    8d84:	d041      	beq.n	8e0a <_realloc_r+0x24e>
    8d86:	f8d8 3004 	ldr.w	r3, [r8, #4]
    8d8a:	f1a0 0208 	sub.w	r2, r0, #8
    8d8e:	f023 0101 	bic.w	r1, r3, #1
    8d92:	4441      	add	r1, r8
    8d94:	428a      	cmp	r2, r1
    8d96:	f000 80d7 	beq.w	8f48 <_realloc_r+0x38c>
    8d9a:	f1aa 0204 	sub.w	r2, sl, #4
    8d9e:	4631      	mov	r1, r6
    8da0:	2a24      	cmp	r2, #36	; 0x24
    8da2:	d878      	bhi.n	8e96 <_realloc_r+0x2da>
    8da4:	2a13      	cmp	r2, #19
    8da6:	4603      	mov	r3, r0
    8da8:	d921      	bls.n	8dee <_realloc_r+0x232>
    8daa:	4634      	mov	r4, r6
    8dac:	f854 3b04 	ldr.w	r3, [r4], #4
    8db0:	1d21      	adds	r1, r4, #4
    8db2:	f840 3b04 	str.w	r3, [r0], #4
    8db6:	1d03      	adds	r3, r0, #4
    8db8:	f8d6 c004 	ldr.w	ip, [r6, #4]
    8dbc:	2a1b      	cmp	r2, #27
    8dbe:	f8c5 c004 	str.w	ip, [r5, #4]
    8dc2:	d914      	bls.n	8dee <_realloc_r+0x232>
    8dc4:	f8d4 e004 	ldr.w	lr, [r4, #4]
    8dc8:	1d1c      	adds	r4, r3, #4
    8dca:	f101 0c04 	add.w	ip, r1, #4
    8dce:	f8c0 e004 	str.w	lr, [r0, #4]
    8dd2:	6848      	ldr	r0, [r1, #4]
    8dd4:	f10c 0104 	add.w	r1, ip, #4
    8dd8:	6058      	str	r0, [r3, #4]
    8dda:	1d23      	adds	r3, r4, #4
    8ddc:	2a24      	cmp	r2, #36	; 0x24
    8dde:	d106      	bne.n	8dee <_realloc_r+0x232>
    8de0:	f8dc 2004 	ldr.w	r2, [ip, #4]
    8de4:	6062      	str	r2, [r4, #4]
    8de6:	684a      	ldr	r2, [r1, #4]
    8de8:	3108      	adds	r1, #8
    8dea:	605a      	str	r2, [r3, #4]
    8dec:	3308      	adds	r3, #8
    8dee:	4608      	mov	r0, r1
    8df0:	461a      	mov	r2, r3
    8df2:	f850 4b04 	ldr.w	r4, [r0], #4
    8df6:	f842 4b04 	str.w	r4, [r2], #4
    8dfa:	6849      	ldr	r1, [r1, #4]
    8dfc:	6059      	str	r1, [r3, #4]
    8dfe:	6843      	ldr	r3, [r0, #4]
    8e00:	6053      	str	r3, [r2, #4]
    8e02:	4631      	mov	r1, r6
    8e04:	4638      	mov	r0, r7
    8e06:	f7fe fd97 	bl	7938 <_free_r>
    8e0a:	4638      	mov	r0, r7
    8e0c:	f7ff fa28 	bl	8260 <__malloc_unlock>
    8e10:	e785      	b.n	8d1e <_realloc_r+0x162>
    8e12:	4455      	add	r5, sl
    8e14:	4295      	cmp	r5, r2
    8e16:	dbaf      	blt.n	8d78 <_realloc_r+0x1bc>
    8e18:	465b      	mov	r3, fp
    8e1a:	f8db 000c 	ldr.w	r0, [fp, #12]
    8e1e:	f1aa 0204 	sub.w	r2, sl, #4
    8e22:	f853 1f08 	ldr.w	r1, [r3, #8]!
    8e26:	2a24      	cmp	r2, #36	; 0x24
    8e28:	6081      	str	r1, [r0, #8]
    8e2a:	60c8      	str	r0, [r1, #12]
    8e2c:	f67f af30 	bls.w	8c90 <_realloc_r+0xd4>
    8e30:	4618      	mov	r0, r3
    8e32:	4631      	mov	r1, r6
    8e34:	4698      	mov	r8, r3
    8e36:	f7ff f9b5 	bl	81a4 <memmove>
    8e3a:	4658      	mov	r0, fp
    8e3c:	f8db 3004 	ldr.w	r3, [fp, #4]
    8e40:	e75a      	b.n	8cf8 <_realloc_r+0x13c>
    8e42:	4611      	mov	r1, r2
    8e44:	b003      	add	sp, #12
    8e46:	e8bd 4ff0 	ldmia.w	sp!, {r4, r5, r6, r7, r8, r9, sl, fp, lr}
    8e4a:	f7fe be9f 	b.w	7b8c <_malloc_r>
    8e4e:	230c      	movs	r3, #12
    8e50:	2500      	movs	r5, #0
    8e52:	603b      	str	r3, [r7, #0]
    8e54:	e763      	b.n	8d1e <_realloc_r+0x162>
    8e56:	f8de 5004 	ldr.w	r5, [lr, #4]
    8e5a:	f104 0b10 	add.w	fp, r4, #16
    8e5e:	f025 0c03 	bic.w	ip, r5, #3
    8e62:	eb0c 000a 	add.w	r0, ip, sl
    8e66:	4558      	cmp	r0, fp
    8e68:	bfb8      	it	lt
    8e6a:	4670      	movlt	r0, lr
    8e6c:	f6ff aee5 	blt.w	8c3a <_realloc_r+0x7e>
    8e70:	eb08 0204 	add.w	r2, r8, r4
    8e74:	1b01      	subs	r1, r0, r4
    8e76:	f041 0101 	orr.w	r1, r1, #1
    8e7a:	609a      	str	r2, [r3, #8]
    8e7c:	6051      	str	r1, [r2, #4]
    8e7e:	4638      	mov	r0, r7
    8e80:	f8d8 1004 	ldr.w	r1, [r8, #4]
    8e84:	4635      	mov	r5, r6
    8e86:	f001 0301 	and.w	r3, r1, #1
    8e8a:	431c      	orrs	r4, r3
    8e8c:	f8c8 4004 	str.w	r4, [r8, #4]
    8e90:	f7ff f9e6 	bl	8260 <__malloc_unlock>
    8e94:	e743      	b.n	8d1e <_realloc_r+0x162>
    8e96:	f7ff f985 	bl	81a4 <memmove>
    8e9a:	e7b2      	b.n	8e02 <_realloc_r+0x246>
    8e9c:	4455      	add	r5, sl
    8e9e:	f104 0110 	add.w	r1, r4, #16
    8ea2:	44ac      	add	ip, r5
    8ea4:	458c      	cmp	ip, r1
    8ea6:	dbb5      	blt.n	8e14 <_realloc_r+0x258>
    8ea8:	465d      	mov	r5, fp
    8eaa:	f8db 000c 	ldr.w	r0, [fp, #12]
    8eae:	f1aa 0204 	sub.w	r2, sl, #4
    8eb2:	f855 1f08 	ldr.w	r1, [r5, #8]!
    8eb6:	2a24      	cmp	r2, #36	; 0x24
    8eb8:	6081      	str	r1, [r0, #8]
    8eba:	60c8      	str	r0, [r1, #12]
    8ebc:	d84c      	bhi.n	8f58 <_realloc_r+0x39c>
    8ebe:	2a13      	cmp	r2, #19
    8ec0:	4628      	mov	r0, r5
    8ec2:	d924      	bls.n	8f0e <_realloc_r+0x352>
    8ec4:	4631      	mov	r1, r6
    8ec6:	f10b 0010 	add.w	r0, fp, #16
    8eca:	f851 eb04 	ldr.w	lr, [r1], #4
    8ece:	f8cb e008 	str.w	lr, [fp, #8]
    8ed2:	f8d6 e004 	ldr.w	lr, [r6, #4]
    8ed6:	1d0e      	adds	r6, r1, #4
    8ed8:	2a1b      	cmp	r2, #27
    8eda:	f8cb e00c 	str.w	lr, [fp, #12]
    8ede:	d916      	bls.n	8f0e <_realloc_r+0x352>
    8ee0:	f8d1 e004 	ldr.w	lr, [r1, #4]
    8ee4:	1d31      	adds	r1, r6, #4
    8ee6:	f10b 0018 	add.w	r0, fp, #24
    8eea:	f8cb e010 	str.w	lr, [fp, #16]
    8eee:	f8d6 e004 	ldr.w	lr, [r6, #4]
    8ef2:	1d0e      	adds	r6, r1, #4
    8ef4:	2a24      	cmp	r2, #36	; 0x24
    8ef6:	f8cb e014 	str.w	lr, [fp, #20]
    8efa:	d108      	bne.n	8f0e <_realloc_r+0x352>
    8efc:	684a      	ldr	r2, [r1, #4]
    8efe:	f10b 0020 	add.w	r0, fp, #32
    8f02:	f8cb 2018 	str.w	r2, [fp, #24]
    8f06:	6872      	ldr	r2, [r6, #4]
    8f08:	3608      	adds	r6, #8
    8f0a:	f8cb 201c 	str.w	r2, [fp, #28]
    8f0e:	4631      	mov	r1, r6
    8f10:	4602      	mov	r2, r0
    8f12:	f851 eb04 	ldr.w	lr, [r1], #4
    8f16:	f842 eb04 	str.w	lr, [r2], #4
    8f1a:	6876      	ldr	r6, [r6, #4]
    8f1c:	6046      	str	r6, [r0, #4]
    8f1e:	6849      	ldr	r1, [r1, #4]
    8f20:	6051      	str	r1, [r2, #4]
    8f22:	eb0b 0204 	add.w	r2, fp, r4
    8f26:	ebc4 010c 	rsb	r1, r4, ip
    8f2a:	f041 0101 	orr.w	r1, r1, #1
    8f2e:	609a      	str	r2, [r3, #8]
    8f30:	6051      	str	r1, [r2, #4]
    8f32:	4638      	mov	r0, r7
    8f34:	f8db 1004 	ldr.w	r1, [fp, #4]
    8f38:	f001 0301 	and.w	r3, r1, #1
    8f3c:	431c      	orrs	r4, r3
    8f3e:	f8cb 4004 	str.w	r4, [fp, #4]
    8f42:	f7ff f98d 	bl	8260 <__malloc_unlock>
    8f46:	e6ea      	b.n	8d1e <_realloc_r+0x162>
    8f48:	6855      	ldr	r5, [r2, #4]
    8f4a:	4640      	mov	r0, r8
    8f4c:	f108 0808 	add.w	r8, r8, #8
    8f50:	f025 0503 	bic.w	r5, r5, #3
    8f54:	4455      	add	r5, sl
    8f56:	e6cf      	b.n	8cf8 <_realloc_r+0x13c>
    8f58:	4631      	mov	r1, r6
    8f5a:	4628      	mov	r0, r5
    8f5c:	9300      	str	r3, [sp, #0]
    8f5e:	f8cd c004 	str.w	ip, [sp, #4]
    8f62:	f7ff f91f 	bl	81a4 <memmove>
    8f66:	f8dd c004 	ldr.w	ip, [sp, #4]
    8f6a:	9b00      	ldr	r3, [sp, #0]
    8f6c:	e7d9      	b.n	8f22 <_realloc_r+0x366>
    8f6e:	bf00      	nop

00008f70 <__isinfd>:
    8f70:	4602      	mov	r2, r0
    8f72:	4240      	negs	r0, r0
    8f74:	ea40 0302 	orr.w	r3, r0, r2
    8f78:	f021 4100 	bic.w	r1, r1, #2147483648	; 0x80000000
    8f7c:	ea41 73d3 	orr.w	r3, r1, r3, lsr #31
    8f80:	f1c3 43fe 	rsb	r3, r3, #2130706432	; 0x7f000000
    8f84:	f503 0370 	add.w	r3, r3, #15728640	; 0xf00000
    8f88:	4258      	negs	r0, r3
    8f8a:	ea40 0303 	orr.w	r3, r0, r3
    8f8e:	17d8      	asrs	r0, r3, #31
    8f90:	3001      	adds	r0, #1
    8f92:	4770      	bx	lr

00008f94 <__isnand>:
    8f94:	4602      	mov	r2, r0
    8f96:	4240      	negs	r0, r0
    8f98:	4310      	orrs	r0, r2
    8f9a:	f021 4100 	bic.w	r1, r1, #2147483648	; 0x80000000
    8f9e:	ea41 70d0 	orr.w	r0, r1, r0, lsr #31
    8fa2:	f1c0 40fe 	rsb	r0, r0, #2130706432	; 0x7f000000
    8fa6:	f500 0070 	add.w	r0, r0, #15728640	; 0xf00000
    8faa:	0fc0      	lsrs	r0, r0, #31
    8fac:	4770      	bx	lr
    8fae:	bf00      	nop

00008fb0 <_sbrk_r>:
    8fb0:	b538      	push	{r3, r4, r5, lr}
    8fb2:	f640 144c 	movw	r4, #2380	; 0x94c
    8fb6:	f2c2 0400 	movt	r4, #8192	; 0x2000
    8fba:	4605      	mov	r5, r0
    8fbc:	4608      	mov	r0, r1
    8fbe:	2300      	movs	r3, #0
    8fc0:	6023      	str	r3, [r4, #0]
    8fc2:	f7fc f801 	bl	4fc8 <_sbrk>
    8fc6:	f1b0 3fff 	cmp.w	r0, #4294967295
    8fca:	d000      	beq.n	8fce <_sbrk_r+0x1e>
    8fcc:	bd38      	pop	{r3, r4, r5, pc}
    8fce:	6823      	ldr	r3, [r4, #0]
    8fd0:	2b00      	cmp	r3, #0
    8fd2:	d0fb      	beq.n	8fcc <_sbrk_r+0x1c>
    8fd4:	602b      	str	r3, [r5, #0]
    8fd6:	bd38      	pop	{r3, r4, r5, pc}

00008fd8 <strcmp>:
    8fd8:	ea80 0201 	eor.w	r2, r0, r1
    8fdc:	f012 0f03 	tst.w	r2, #3
    8fe0:	d13a      	bne.n	9058 <strcmp_unaligned>
    8fe2:	f010 0203 	ands.w	r2, r0, #3
    8fe6:	f020 0003 	bic.w	r0, r0, #3
    8fea:	f021 0103 	bic.w	r1, r1, #3
    8fee:	f850 cb04 	ldr.w	ip, [r0], #4
    8ff2:	bf08      	it	eq
    8ff4:	f851 3b04 	ldreq.w	r3, [r1], #4
    8ff8:	d00d      	beq.n	9016 <strcmp+0x3e>
    8ffa:	f082 0203 	eor.w	r2, r2, #3
    8ffe:	ea4f 02c2 	mov.w	r2, r2, lsl #3
    9002:	f06f 437f 	mvn.w	r3, #4278190080	; 0xff000000
    9006:	fa23 f202 	lsr.w	r2, r3, r2
    900a:	f851 3b04 	ldr.w	r3, [r1], #4
    900e:	ea4c 0c02 	orr.w	ip, ip, r2
    9012:	ea43 0302 	orr.w	r3, r3, r2
    9016:	bf00      	nop
    9018:	f1ac 3201 	sub.w	r2, ip, #16843009	; 0x1010101
    901c:	459c      	cmp	ip, r3
    901e:	bf01      	itttt	eq
    9020:	ea22 020c 	biceq.w	r2, r2, ip
    9024:	f012 3f80 	tsteq.w	r2, #2155905152	; 0x80808080
    9028:	f850 cb04 	ldreq.w	ip, [r0], #4
    902c:	f851 3b04 	ldreq.w	r3, [r1], #4
    9030:	d0f2      	beq.n	9018 <strcmp+0x40>
    9032:	ea4f 600c 	mov.w	r0, ip, lsl #24
    9036:	ea4f 2c1c 	mov.w	ip, ip, lsr #8
    903a:	2801      	cmp	r0, #1
    903c:	bf28      	it	cs
    903e:	ebb0 6f03 	cmpcs.w	r0, r3, lsl #24
    9042:	bf08      	it	eq
    9044:	0a1b      	lsreq	r3, r3, #8
    9046:	d0f4      	beq.n	9032 <strcmp+0x5a>
    9048:	f003 03ff 	and.w	r3, r3, #255	; 0xff
    904c:	ea4f 6010 	mov.w	r0, r0, lsr #24
    9050:	eba0 0003 	sub.w	r0, r0, r3
    9054:	4770      	bx	lr
    9056:	bf00      	nop

00009058 <strcmp_unaligned>:
    9058:	f010 0f03 	tst.w	r0, #3
    905c:	d00a      	beq.n	9074 <strcmp_unaligned+0x1c>
    905e:	f810 2b01 	ldrb.w	r2, [r0], #1
    9062:	f811 3b01 	ldrb.w	r3, [r1], #1
    9066:	2a01      	cmp	r2, #1
    9068:	bf28      	it	cs
    906a:	429a      	cmpcs	r2, r3
    906c:	d0f4      	beq.n	9058 <strcmp_unaligned>
    906e:	eba2 0003 	sub.w	r0, r2, r3
    9072:	4770      	bx	lr
    9074:	f84d 5d04 	str.w	r5, [sp, #-4]!
    9078:	f84d 4d04 	str.w	r4, [sp, #-4]!
    907c:	f04f 0201 	mov.w	r2, #1
    9080:	ea42 2202 	orr.w	r2, r2, r2, lsl #8
    9084:	ea42 4202 	orr.w	r2, r2, r2, lsl #16
    9088:	f001 0c03 	and.w	ip, r1, #3
    908c:	f021 0103 	bic.w	r1, r1, #3
    9090:	f850 4b04 	ldr.w	r4, [r0], #4
    9094:	f851 5b04 	ldr.w	r5, [r1], #4
    9098:	f1bc 0f02 	cmp.w	ip, #2
    909c:	d026      	beq.n	90ec <strcmp_unaligned+0x94>
    909e:	d84b      	bhi.n	9138 <strcmp_unaligned+0xe0>
    90a0:	f024 4c7f 	bic.w	ip, r4, #4278190080	; 0xff000000
    90a4:	ebbc 2f15 	cmp.w	ip, r5, lsr #8
    90a8:	eba4 0302 	sub.w	r3, r4, r2
    90ac:	ea23 0304 	bic.w	r3, r3, r4
    90b0:	d10d      	bne.n	90ce <strcmp_unaligned+0x76>
    90b2:	ea13 13c2 	ands.w	r3, r3, r2, lsl #7
    90b6:	bf08      	it	eq
    90b8:	f851 5b04 	ldreq.w	r5, [r1], #4
    90bc:	d10a      	bne.n	90d4 <strcmp_unaligned+0x7c>
    90be:	ea8c 0c04 	eor.w	ip, ip, r4
    90c2:	ebbc 6f05 	cmp.w	ip, r5, lsl #24
    90c6:	d10c      	bne.n	90e2 <strcmp_unaligned+0x8a>
    90c8:	f850 4b04 	ldr.w	r4, [r0], #4
    90cc:	e7e8      	b.n	90a0 <strcmp_unaligned+0x48>
    90ce:	ea4f 2515 	mov.w	r5, r5, lsr #8
    90d2:	e05c      	b.n	918e <strcmp_unaligned+0x136>
    90d4:	f033 437f 	bics.w	r3, r3, #4278190080	; 0xff000000
    90d8:	d152      	bne.n	9180 <strcmp_unaligned+0x128>
    90da:	780d      	ldrb	r5, [r1, #0]
    90dc:	ea4f 6c14 	mov.w	ip, r4, lsr #24
    90e0:	e055      	b.n	918e <strcmp_unaligned+0x136>
    90e2:	ea4f 6c14 	mov.w	ip, r4, lsr #24
    90e6:	f005 05ff 	and.w	r5, r5, #255	; 0xff
    90ea:	e050      	b.n	918e <strcmp_unaligned+0x136>
    90ec:	ea4f 4c04 	mov.w	ip, r4, lsl #16
    90f0:	eba4 0302 	sub.w	r3, r4, r2
    90f4:	ea4f 4c1c 	mov.w	ip, ip, lsr #16
    90f8:	ea23 0304 	bic.w	r3, r3, r4
    90fc:	ebbc 4f15 	cmp.w	ip, r5, lsr #16
    9100:	d117      	bne.n	9132 <strcmp_unaligned+0xda>
    9102:	ea13 13c2 	ands.w	r3, r3, r2, lsl #7
    9106:	bf08      	it	eq
    9108:	f851 5b04 	ldreq.w	r5, [r1], #4
    910c:	d107      	bne.n	911e <strcmp_unaligned+0xc6>
    910e:	ea8c 0c04 	eor.w	ip, ip, r4
    9112:	ebbc 4f05 	cmp.w	ip, r5, lsl #16
    9116:	d108      	bne.n	912a <strcmp_unaligned+0xd2>
    9118:	f850 4b04 	ldr.w	r4, [r0], #4
    911c:	e7e6      	b.n	90ec <strcmp_unaligned+0x94>
    911e:	041b      	lsls	r3, r3, #16
    9120:	d12e      	bne.n	9180 <strcmp_unaligned+0x128>
    9122:	880d      	ldrh	r5, [r1, #0]
    9124:	ea4f 4c14 	mov.w	ip, r4, lsr #16
    9128:	e031      	b.n	918e <strcmp_unaligned+0x136>
    912a:	ea4f 4505 	mov.w	r5, r5, lsl #16
    912e:	ea4f 4c14 	mov.w	ip, r4, lsr #16
    9132:	ea4f 4515 	mov.w	r5, r5, lsr #16
    9136:	e02a      	b.n	918e <strcmp_unaligned+0x136>
    9138:	f004 0cff 	and.w	ip, r4, #255	; 0xff
    913c:	ebbc 6f15 	cmp.w	ip, r5, lsr #24
    9140:	eba4 0302 	sub.w	r3, r4, r2
    9144:	ea23 0304 	bic.w	r3, r3, r4
    9148:	d10d      	bne.n	9166 <strcmp_unaligned+0x10e>
    914a:	ea13 13c2 	ands.w	r3, r3, r2, lsl #7
    914e:	bf08      	it	eq
    9150:	f851 5b04 	ldreq.w	r5, [r1], #4
    9154:	d10a      	bne.n	916c <strcmp_unaligned+0x114>
    9156:	ea8c 0c04 	eor.w	ip, ip, r4
    915a:	ebbc 2f05 	cmp.w	ip, r5, lsl #8
    915e:	d10a      	bne.n	9176 <strcmp_unaligned+0x11e>
    9160:	f850 4b04 	ldr.w	r4, [r0], #4
    9164:	e7e8      	b.n	9138 <strcmp_unaligned+0xe0>
    9166:	ea4f 6515 	mov.w	r5, r5, lsr #24
    916a:	e010      	b.n	918e <strcmp_unaligned+0x136>
    916c:	f014 0fff 	tst.w	r4, #255	; 0xff
    9170:	d006      	beq.n	9180 <strcmp_unaligned+0x128>
    9172:	f851 5b04 	ldr.w	r5, [r1], #4
    9176:	ea4f 2c14 	mov.w	ip, r4, lsr #8
    917a:	f025 457f 	bic.w	r5, r5, #4278190080	; 0xff000000
    917e:	e006      	b.n	918e <strcmp_unaligned+0x136>
    9180:	f04f 0000 	mov.w	r0, #0
    9184:	f85d 4b04 	ldr.w	r4, [sp], #4
    9188:	f85d 5b04 	ldr.w	r5, [sp], #4
    918c:	4770      	bx	lr
    918e:	f00c 02ff 	and.w	r2, ip, #255	; 0xff
    9192:	f005 00ff 	and.w	r0, r5, #255	; 0xff
    9196:	2801      	cmp	r0, #1
    9198:	bf28      	it	cs
    919a:	4290      	cmpcs	r0, r2
    919c:	bf04      	itt	eq
    919e:	ea4f 2c1c 	moveq.w	ip, ip, lsr #8
    91a2:	0a2d      	lsreq	r5, r5, #8
    91a4:	d0f3      	beq.n	918e <strcmp_unaligned+0x136>
    91a6:	eba2 0000 	sub.w	r0, r2, r0
    91aa:	f85d 4b04 	ldr.w	r4, [sp], #4
    91ae:	f85d 5b04 	ldr.w	r5, [sp], #4
    91b2:	4770      	bx	lr

000091b4 <strlen>:
    91b4:	f020 0103 	bic.w	r1, r0, #3
    91b8:	f010 0003 	ands.w	r0, r0, #3
    91bc:	f1c0 0000 	rsb	r0, r0, #0
    91c0:	f851 3b04 	ldr.w	r3, [r1], #4
    91c4:	f100 0c04 	add.w	ip, r0, #4
    91c8:	ea4f 0ccc 	mov.w	ip, ip, lsl #3
    91cc:	f06f 0200 	mvn.w	r2, #0
    91d0:	bf1c      	itt	ne
    91d2:	fa22 f20c 	lsrne.w	r2, r2, ip
    91d6:	4313      	orrne	r3, r2
    91d8:	f04f 0c01 	mov.w	ip, #1
    91dc:	ea4c 2c0c 	orr.w	ip, ip, ip, lsl #8
    91e0:	ea4c 4c0c 	orr.w	ip, ip, ip, lsl #16
    91e4:	eba3 020c 	sub.w	r2, r3, ip
    91e8:	ea22 0203 	bic.w	r2, r2, r3
    91ec:	ea12 12cc 	ands.w	r2, r2, ip, lsl #7
    91f0:	bf04      	itt	eq
    91f2:	f851 3b04 	ldreq.w	r3, [r1], #4
    91f6:	3004      	addeq	r0, #4
    91f8:	d0f4      	beq.n	91e4 <strlen+0x30>
    91fa:	f013 0fff 	tst.w	r3, #255	; 0xff
    91fe:	bf1f      	itttt	ne
    9200:	3001      	addne	r0, #1
    9202:	f413 4f7f 	tstne.w	r3, #65280	; 0xff00
    9206:	3001      	addne	r0, #1
    9208:	f413 0f7f 	tstne.w	r3, #16711680	; 0xff0000
    920c:	bf18      	it	ne
    920e:	3001      	addne	r0, #1
    9210:	4770      	bx	lr
    9212:	bf00      	nop

00009214 <_calloc_r>:
    9214:	b538      	push	{r3, r4, r5, lr}
    9216:	fb01 f102 	mul.w	r1, r1, r2
    921a:	f7fe fcb7 	bl	7b8c <_malloc_r>
    921e:	4604      	mov	r4, r0
    9220:	b1f8      	cbz	r0, 9262 <_calloc_r+0x4e>
    9222:	f850 2c04 	ldr.w	r2, [r0, #-4]
    9226:	f022 0203 	bic.w	r2, r2, #3
    922a:	3a04      	subs	r2, #4
    922c:	2a24      	cmp	r2, #36	; 0x24
    922e:	d81a      	bhi.n	9266 <_calloc_r+0x52>
    9230:	2a13      	cmp	r2, #19
    9232:	4603      	mov	r3, r0
    9234:	d90f      	bls.n	9256 <_calloc_r+0x42>
    9236:	2100      	movs	r1, #0
    9238:	f840 1b04 	str.w	r1, [r0], #4
    923c:	1d03      	adds	r3, r0, #4
    923e:	2a1b      	cmp	r2, #27
    9240:	6061      	str	r1, [r4, #4]
    9242:	d908      	bls.n	9256 <_calloc_r+0x42>
    9244:	1d1d      	adds	r5, r3, #4
    9246:	6041      	str	r1, [r0, #4]
    9248:	6059      	str	r1, [r3, #4]
    924a:	1d2b      	adds	r3, r5, #4
    924c:	2a24      	cmp	r2, #36	; 0x24
    924e:	bf02      	ittt	eq
    9250:	6069      	streq	r1, [r5, #4]
    9252:	6059      	streq	r1, [r3, #4]
    9254:	3308      	addeq	r3, #8
    9256:	461a      	mov	r2, r3
    9258:	2100      	movs	r1, #0
    925a:	f842 1b04 	str.w	r1, [r2], #4
    925e:	6059      	str	r1, [r3, #4]
    9260:	6051      	str	r1, [r2, #4]
    9262:	4620      	mov	r0, r4
    9264:	bd38      	pop	{r3, r4, r5, pc}
    9266:	2100      	movs	r1, #0
    9268:	f000 f802 	bl	9270 <memset>
    926c:	4620      	mov	r0, r4
    926e:	bd38      	pop	{r3, r4, r5, pc}

00009270 <memset>:
    9270:	2a03      	cmp	r2, #3
    9272:	b2c9      	uxtb	r1, r1
    9274:	b430      	push	{r4, r5}
    9276:	d807      	bhi.n	9288 <memset+0x18>
    9278:	b122      	cbz	r2, 9284 <memset+0x14>
    927a:	2300      	movs	r3, #0
    927c:	54c1      	strb	r1, [r0, r3]
    927e:	3301      	adds	r3, #1
    9280:	4293      	cmp	r3, r2
    9282:	d1fb      	bne.n	927c <memset+0xc>
    9284:	bc30      	pop	{r4, r5}
    9286:	4770      	bx	lr
    9288:	eb00 0c02 	add.w	ip, r0, r2
    928c:	4603      	mov	r3, r0
    928e:	e001      	b.n	9294 <memset+0x24>
    9290:	f803 1c01 	strb.w	r1, [r3, #-1]
    9294:	f003 0403 	and.w	r4, r3, #3
    9298:	461a      	mov	r2, r3
    929a:	3301      	adds	r3, #1
    929c:	2c00      	cmp	r4, #0
    929e:	d1f7      	bne.n	9290 <memset+0x20>
    92a0:	f04f 3301 	mov.w	r3, #16843009	; 0x1010101
    92a4:	ebc2 040c 	rsb	r4, r2, ip
    92a8:	fb03 f301 	mul.w	r3, r3, r1
    92ac:	e01f      	b.n	92ee <memset+0x7e>
    92ae:	f842 3c40 	str.w	r3, [r2, #-64]
    92b2:	f842 3c3c 	str.w	r3, [r2, #-60]
    92b6:	f842 3c38 	str.w	r3, [r2, #-56]
    92ba:	f842 3c34 	str.w	r3, [r2, #-52]
    92be:	f842 3c30 	str.w	r3, [r2, #-48]
    92c2:	f842 3c2c 	str.w	r3, [r2, #-44]
    92c6:	f842 3c28 	str.w	r3, [r2, #-40]
    92ca:	f842 3c24 	str.w	r3, [r2, #-36]
    92ce:	f842 3c20 	str.w	r3, [r2, #-32]
    92d2:	f842 3c1c 	str.w	r3, [r2, #-28]
    92d6:	f842 3c18 	str.w	r3, [r2, #-24]
    92da:	f842 3c14 	str.w	r3, [r2, #-20]
    92de:	f842 3c10 	str.w	r3, [r2, #-16]
    92e2:	f842 3c0c 	str.w	r3, [r2, #-12]
    92e6:	f842 3c08 	str.w	r3, [r2, #-8]
    92ea:	f842 3c04 	str.w	r3, [r2, #-4]
    92ee:	4615      	mov	r5, r2
    92f0:	3240      	adds	r2, #64	; 0x40
    92f2:	2c3f      	cmp	r4, #63	; 0x3f
    92f4:	f1a4 0440 	sub.w	r4, r4, #64	; 0x40
    92f8:	dcd9      	bgt.n	92ae <memset+0x3e>
    92fa:	462a      	mov	r2, r5
    92fc:	ebc5 040c 	rsb	r4, r5, ip
    9300:	e007      	b.n	9312 <memset+0xa2>
    9302:	f842 3c10 	str.w	r3, [r2, #-16]
    9306:	f842 3c0c 	str.w	r3, [r2, #-12]
    930a:	f842 3c08 	str.w	r3, [r2, #-8]
    930e:	f842 3c04 	str.w	r3, [r2, #-4]
    9312:	4615      	mov	r5, r2
    9314:	3210      	adds	r2, #16
    9316:	2c0f      	cmp	r4, #15
    9318:	f1a4 0410 	sub.w	r4, r4, #16
    931c:	dcf1      	bgt.n	9302 <memset+0x92>
    931e:	462a      	mov	r2, r5
    9320:	ebc5 050c 	rsb	r5, r5, ip
    9324:	e001      	b.n	932a <memset+0xba>
    9326:	f842 3c04 	str.w	r3, [r2, #-4]
    932a:	4614      	mov	r4, r2
    932c:	3204      	adds	r2, #4
    932e:	2d03      	cmp	r5, #3
    9330:	f1a5 0504 	sub.w	r5, r5, #4
    9334:	dcf7      	bgt.n	9326 <memset+0xb6>
    9336:	e001      	b.n	933c <memset+0xcc>
    9338:	f804 1b01 	strb.w	r1, [r4], #1
    933c:	4564      	cmp	r4, ip
    933e:	d3fb      	bcc.n	9338 <memset+0xc8>
    9340:	e7a0      	b.n	9284 <memset+0x14>
    9342:	bf00      	nop
    9344:	0000      	lsls	r0, r0, #0
	...

00009348 <__aeabi_uidiv>:
    9348:	1e4a      	subs	r2, r1, #1
    934a:	bf08      	it	eq
    934c:	4770      	bxeq	lr
    934e:	f0c0 8124 	bcc.w	959a <__aeabi_uidiv+0x252>
    9352:	4288      	cmp	r0, r1
    9354:	f240 8116 	bls.w	9584 <__aeabi_uidiv+0x23c>
    9358:	4211      	tst	r1, r2
    935a:	f000 8117 	beq.w	958c <__aeabi_uidiv+0x244>
    935e:	fab0 f380 	clz	r3, r0
    9362:	fab1 f281 	clz	r2, r1
    9366:	eba2 0303 	sub.w	r3, r2, r3
    936a:	f1c3 031f 	rsb	r3, r3, #31
    936e:	a204      	add	r2, pc, #16	; (adr r2, 9380 <__aeabi_uidiv+0x38>)
    9370:	eb02 1303 	add.w	r3, r2, r3, lsl #4
    9374:	f04f 0200 	mov.w	r2, #0
    9378:	469f      	mov	pc, r3
    937a:	bf00      	nop
    937c:	f3af 8000 	nop.w
    9380:	ebb0 7fc1 	cmp.w	r0, r1, lsl #31
    9384:	bf00      	nop
    9386:	eb42 0202 	adc.w	r2, r2, r2
    938a:	bf28      	it	cs
    938c:	eba0 70c1 	subcs.w	r0, r0, r1, lsl #31
    9390:	ebb0 7f81 	cmp.w	r0, r1, lsl #30
    9394:	bf00      	nop
    9396:	eb42 0202 	adc.w	r2, r2, r2
    939a:	bf28      	it	cs
    939c:	eba0 7081 	subcs.w	r0, r0, r1, lsl #30
    93a0:	ebb0 7f41 	cmp.w	r0, r1, lsl #29
    93a4:	bf00      	nop
    93a6:	eb42 0202 	adc.w	r2, r2, r2
    93aa:	bf28      	it	cs
    93ac:	eba0 7041 	subcs.w	r0, r0, r1, lsl #29
    93b0:	ebb0 7f01 	cmp.w	r0, r1, lsl #28
    93b4:	bf00      	nop
    93b6:	eb42 0202 	adc.w	r2, r2, r2
    93ba:	bf28      	it	cs
    93bc:	eba0 7001 	subcs.w	r0, r0, r1, lsl #28
    93c0:	ebb0 6fc1 	cmp.w	r0, r1, lsl #27
    93c4:	bf00      	nop
    93c6:	eb42 0202 	adc.w	r2, r2, r2
    93ca:	bf28      	it	cs
    93cc:	eba0 60c1 	subcs.w	r0, r0, r1, lsl #27
    93d0:	ebb0 6f81 	cmp.w	r0, r1, lsl #26
    93d4:	bf00      	nop
    93d6:	eb42 0202 	adc.w	r2, r2, r2
    93da:	bf28      	it	cs
    93dc:	eba0 6081 	subcs.w	r0, r0, r1, lsl #26
    93e0:	ebb0 6f41 	cmp.w	r0, r1, lsl #25
    93e4:	bf00      	nop
    93e6:	eb42 0202 	adc.w	r2, r2, r2
    93ea:	bf28      	it	cs
    93ec:	eba0 6041 	subcs.w	r0, r0, r1, lsl #25
    93f0:	ebb0 6f01 	cmp.w	r0, r1, lsl #24
    93f4:	bf00      	nop
    93f6:	eb42 0202 	adc.w	r2, r2, r2
    93fa:	bf28      	it	cs
    93fc:	eba0 6001 	subcs.w	r0, r0, r1, lsl #24
    9400:	ebb0 5fc1 	cmp.w	r0, r1, lsl #23
    9404:	bf00      	nop
    9406:	eb42 0202 	adc.w	r2, r2, r2
    940a:	bf28      	it	cs
    940c:	eba0 50c1 	subcs.w	r0, r0, r1, lsl #23
    9410:	ebb0 5f81 	cmp.w	r0, r1, lsl #22
    9414:	bf00      	nop
    9416:	eb42 0202 	adc.w	r2, r2, r2
    941a:	bf28      	it	cs
    941c:	eba0 5081 	subcs.w	r0, r0, r1, lsl #22
    9420:	ebb0 5f41 	cmp.w	r0, r1, lsl #21
    9424:	bf00      	nop
    9426:	eb42 0202 	adc.w	r2, r2, r2
    942a:	bf28      	it	cs
    942c:	eba0 5041 	subcs.w	r0, r0, r1, lsl #21
    9430:	ebb0 5f01 	cmp.w	r0, r1, lsl #20
    9434:	bf00      	nop
    9436:	eb42 0202 	adc.w	r2, r2, r2
    943a:	bf28      	it	cs
    943c:	eba0 5001 	subcs.w	r0, r0, r1, lsl #20
    9440:	ebb0 4fc1 	cmp.w	r0, r1, lsl #19
    9444:	bf00      	nop
    9446:	eb42 0202 	adc.w	r2, r2, r2
    944a:	bf28      	it	cs
    944c:	eba0 40c1 	subcs.w	r0, r0, r1, lsl #19
    9450:	ebb0 4f81 	cmp.w	r0, r1, lsl #18
    9454:	bf00      	nop
    9456:	eb42 0202 	adc.w	r2, r2, r2
    945a:	bf28      	it	cs
    945c:	eba0 4081 	subcs.w	r0, r0, r1, lsl #18
    9460:	ebb0 4f41 	cmp.w	r0, r1, lsl #17
    9464:	bf00      	nop
    9466:	eb42 0202 	adc.w	r2, r2, r2
    946a:	bf28      	it	cs
    946c:	eba0 4041 	subcs.w	r0, r0, r1, lsl #17
    9470:	ebb0 4f01 	cmp.w	r0, r1, lsl #16
    9474:	bf00      	nop
    9476:	eb42 0202 	adc.w	r2, r2, r2
    947a:	bf28      	it	cs
    947c:	eba0 4001 	subcs.w	r0, r0, r1, lsl #16
    9480:	ebb0 3fc1 	cmp.w	r0, r1, lsl #15
    9484:	bf00      	nop
    9486:	eb42 0202 	adc.w	r2, r2, r2
    948a:	bf28      	it	cs
    948c:	eba0 30c1 	subcs.w	r0, r0, r1, lsl #15
    9490:	ebb0 3f81 	cmp.w	r0, r1, lsl #14
    9494:	bf00      	nop
    9496:	eb42 0202 	adc.w	r2, r2, r2
    949a:	bf28      	it	cs
    949c:	eba0 3081 	subcs.w	r0, r0, r1, lsl #14
    94a0:	ebb0 3f41 	cmp.w	r0, r1, lsl #13
    94a4:	bf00      	nop
    94a6:	eb42 0202 	adc.w	r2, r2, r2
    94aa:	bf28      	it	cs
    94ac:	eba0 3041 	subcs.w	r0, r0, r1, lsl #13
    94b0:	ebb0 3f01 	cmp.w	r0, r1, lsl #12
    94b4:	bf00      	nop
    94b6:	eb42 0202 	adc.w	r2, r2, r2
    94ba:	bf28      	it	cs
    94bc:	eba0 3001 	subcs.w	r0, r0, r1, lsl #12
    94c0:	ebb0 2fc1 	cmp.w	r0, r1, lsl #11
    94c4:	bf00      	nop
    94c6:	eb42 0202 	adc.w	r2, r2, r2
    94ca:	bf28      	it	cs
    94cc:	eba0 20c1 	subcs.w	r0, r0, r1, lsl #11
    94d0:	ebb0 2f81 	cmp.w	r0, r1, lsl #10
    94d4:	bf00      	nop
    94d6:	eb42 0202 	adc.w	r2, r2, r2
    94da:	bf28      	it	cs
    94dc:	eba0 2081 	subcs.w	r0, r0, r1, lsl #10
    94e0:	ebb0 2f41 	cmp.w	r0, r1, lsl #9
    94e4:	bf00      	nop
    94e6:	eb42 0202 	adc.w	r2, r2, r2
    94ea:	bf28      	it	cs
    94ec:	eba0 2041 	subcs.w	r0, r0, r1, lsl #9
    94f0:	ebb0 2f01 	cmp.w	r0, r1, lsl #8
    94f4:	bf00      	nop
    94f6:	eb42 0202 	adc.w	r2, r2, r2
    94fa:	bf28      	it	cs
    94fc:	eba0 2001 	subcs.w	r0, r0, r1, lsl #8
    9500:	ebb0 1fc1 	cmp.w	r0, r1, lsl #7
    9504:	bf00      	nop
    9506:	eb42 0202 	adc.w	r2, r2, r2
    950a:	bf28      	it	cs
    950c:	eba0 10c1 	subcs.w	r0, r0, r1, lsl #7
    9510:	ebb0 1f81 	cmp.w	r0, r1, lsl #6
    9514:	bf00      	nop
    9516:	eb42 0202 	adc.w	r2, r2, r2
    951a:	bf28      	it	cs
    951c:	eba0 1081 	subcs.w	r0, r0, r1, lsl #6
    9520:	ebb0 1f41 	cmp.w	r0, r1, lsl #5
    9524:	bf00      	nop
    9526:	eb42 0202 	adc.w	r2, r2, r2
    952a:	bf28      	it	cs
    952c:	eba0 1041 	subcs.w	r0, r0, r1, lsl #5
    9530:	ebb0 1f01 	cmp.w	r0, r1, lsl #4
    9534:	bf00      	nop
    9536:	eb42 0202 	adc.w	r2, r2, r2
    953a:	bf28      	it	cs
    953c:	eba0 1001 	subcs.w	r0, r0, r1, lsl #4
    9540:	ebb0 0fc1 	cmp.w	r0, r1, lsl #3
    9544:	bf00      	nop
    9546:	eb42 0202 	adc.w	r2, r2, r2
    954a:	bf28      	it	cs
    954c:	eba0 00c1 	subcs.w	r0, r0, r1, lsl #3
    9550:	ebb0 0f81 	cmp.w	r0, r1, lsl #2
    9554:	bf00      	nop
    9556:	eb42 0202 	adc.w	r2, r2, r2
    955a:	bf28      	it	cs
    955c:	eba0 0081 	subcs.w	r0, r0, r1, lsl #2
    9560:	ebb0 0f41 	cmp.w	r0, r1, lsl #1
    9564:	bf00      	nop
    9566:	eb42 0202 	adc.w	r2, r2, r2
    956a:	bf28      	it	cs
    956c:	eba0 0041 	subcs.w	r0, r0, r1, lsl #1
    9570:	ebb0 0f01 	cmp.w	r0, r1
    9574:	bf00      	nop
    9576:	eb42 0202 	adc.w	r2, r2, r2
    957a:	bf28      	it	cs
    957c:	eba0 0001 	subcs.w	r0, r0, r1
    9580:	4610      	mov	r0, r2
    9582:	4770      	bx	lr
    9584:	bf0c      	ite	eq
    9586:	2001      	moveq	r0, #1
    9588:	2000      	movne	r0, #0
    958a:	4770      	bx	lr
    958c:	fab1 f281 	clz	r2, r1
    9590:	f1c2 021f 	rsb	r2, r2, #31
    9594:	fa20 f002 	lsr.w	r0, r0, r2
    9598:	4770      	bx	lr
    959a:	b108      	cbz	r0, 95a0 <__aeabi_uidiv+0x258>
    959c:	f04f 30ff 	mov.w	r0, #4294967295
    95a0:	f000 b80e 	b.w	95c0 <__aeabi_idiv0>

000095a4 <__aeabi_uidivmod>:
    95a4:	2900      	cmp	r1, #0
    95a6:	d0f8      	beq.n	959a <__aeabi_uidiv+0x252>
    95a8:	e92d 4003 	stmdb	sp!, {r0, r1, lr}
    95ac:	f7ff fecc 	bl	9348 <__aeabi_uidiv>
    95b0:	e8bd 4006 	ldmia.w	sp!, {r1, r2, lr}
    95b4:	fb02 f300 	mul.w	r3, r2, r0
    95b8:	eba1 0103 	sub.w	r1, r1, r3
    95bc:	4770      	bx	lr
    95be:	bf00      	nop

000095c0 <__aeabi_idiv0>:
    95c0:	4770      	bx	lr
    95c2:	bf00      	nop

000095c4 <__aeabi_drsub>:
    95c4:	f081 4100 	eor.w	r1, r1, #2147483648	; 0x80000000
    95c8:	e002      	b.n	95d0 <__adddf3>
    95ca:	bf00      	nop

000095cc <__aeabi_dsub>:
    95cc:	f083 4300 	eor.w	r3, r3, #2147483648	; 0x80000000

000095d0 <__adddf3>:
    95d0:	b530      	push	{r4, r5, lr}
    95d2:	ea4f 0441 	mov.w	r4, r1, lsl #1
    95d6:	ea4f 0543 	mov.w	r5, r3, lsl #1
    95da:	ea94 0f05 	teq	r4, r5
    95de:	bf08      	it	eq
    95e0:	ea90 0f02 	teqeq	r0, r2
    95e4:	bf1f      	itttt	ne
    95e6:	ea54 0c00 	orrsne.w	ip, r4, r0
    95ea:	ea55 0c02 	orrsne.w	ip, r5, r2
    95ee:	ea7f 5c64 	mvnsne.w	ip, r4, asr #21
    95f2:	ea7f 5c65 	mvnsne.w	ip, r5, asr #21
    95f6:	f000 80e2 	beq.w	97be <__adddf3+0x1ee>
    95fa:	ea4f 5454 	mov.w	r4, r4, lsr #21
    95fe:	ebd4 5555 	rsbs	r5, r4, r5, lsr #21
    9602:	bfb8      	it	lt
    9604:	426d      	neglt	r5, r5
    9606:	dd0c      	ble.n	9622 <__adddf3+0x52>
    9608:	442c      	add	r4, r5
    960a:	ea80 0202 	eor.w	r2, r0, r2
    960e:	ea81 0303 	eor.w	r3, r1, r3
    9612:	ea82 0000 	eor.w	r0, r2, r0
    9616:	ea83 0101 	eor.w	r1, r3, r1
    961a:	ea80 0202 	eor.w	r2, r0, r2
    961e:	ea81 0303 	eor.w	r3, r1, r3
    9622:	2d36      	cmp	r5, #54	; 0x36
    9624:	bf88      	it	hi
    9626:	bd30      	pophi	{r4, r5, pc}
    9628:	f011 4f00 	tst.w	r1, #2147483648	; 0x80000000
    962c:	ea4f 3101 	mov.w	r1, r1, lsl #12
    9630:	f44f 1c80 	mov.w	ip, #1048576	; 0x100000
    9634:	ea4c 3111 	orr.w	r1, ip, r1, lsr #12
    9638:	d002      	beq.n	9640 <__adddf3+0x70>
    963a:	4240      	negs	r0, r0
    963c:	eb61 0141 	sbc.w	r1, r1, r1, lsl #1
    9640:	f013 4f00 	tst.w	r3, #2147483648	; 0x80000000
    9644:	ea4f 3303 	mov.w	r3, r3, lsl #12
    9648:	ea4c 3313 	orr.w	r3, ip, r3, lsr #12
    964c:	d002      	beq.n	9654 <__adddf3+0x84>
    964e:	4252      	negs	r2, r2
    9650:	eb63 0343 	sbc.w	r3, r3, r3, lsl #1
    9654:	ea94 0f05 	teq	r4, r5
    9658:	f000 80a7 	beq.w	97aa <__adddf3+0x1da>
    965c:	f1a4 0401 	sub.w	r4, r4, #1
    9660:	f1d5 0e20 	rsbs	lr, r5, #32
    9664:	db0d      	blt.n	9682 <__adddf3+0xb2>
    9666:	fa02 fc0e 	lsl.w	ip, r2, lr
    966a:	fa22 f205 	lsr.w	r2, r2, r5
    966e:	1880      	adds	r0, r0, r2
    9670:	f141 0100 	adc.w	r1, r1, #0
    9674:	fa03 f20e 	lsl.w	r2, r3, lr
    9678:	1880      	adds	r0, r0, r2
    967a:	fa43 f305 	asr.w	r3, r3, r5
    967e:	4159      	adcs	r1, r3
    9680:	e00e      	b.n	96a0 <__adddf3+0xd0>
    9682:	f1a5 0520 	sub.w	r5, r5, #32
    9686:	f10e 0e20 	add.w	lr, lr, #32
    968a:	2a01      	cmp	r2, #1
    968c:	fa03 fc0e 	lsl.w	ip, r3, lr
    9690:	bf28      	it	cs
    9692:	f04c 0c02 	orrcs.w	ip, ip, #2
    9696:	fa43 f305 	asr.w	r3, r3, r5
    969a:	18c0      	adds	r0, r0, r3
    969c:	eb51 71e3 	adcs.w	r1, r1, r3, asr #31
    96a0:	f001 4500 	and.w	r5, r1, #2147483648	; 0x80000000
    96a4:	d507      	bpl.n	96b6 <__adddf3+0xe6>
    96a6:	f04f 0e00 	mov.w	lr, #0
    96aa:	f1dc 0c00 	rsbs	ip, ip, #0
    96ae:	eb7e 0000 	sbcs.w	r0, lr, r0
    96b2:	eb6e 0101 	sbc.w	r1, lr, r1
    96b6:	f5b1 1f80 	cmp.w	r1, #1048576	; 0x100000
    96ba:	d31b      	bcc.n	96f4 <__adddf3+0x124>
    96bc:	f5b1 1f00 	cmp.w	r1, #2097152	; 0x200000
    96c0:	d30c      	bcc.n	96dc <__adddf3+0x10c>
    96c2:	0849      	lsrs	r1, r1, #1
    96c4:	ea5f 0030 	movs.w	r0, r0, rrx
    96c8:	ea4f 0c3c 	mov.w	ip, ip, rrx
    96cc:	f104 0401 	add.w	r4, r4, #1
    96d0:	ea4f 5244 	mov.w	r2, r4, lsl #21
    96d4:	f512 0f80 	cmn.w	r2, #4194304	; 0x400000
    96d8:	f080 809a 	bcs.w	9810 <__adddf3+0x240>
    96dc:	f1bc 4f00 	cmp.w	ip, #2147483648	; 0x80000000
    96e0:	bf08      	it	eq
    96e2:	ea5f 0c50 	movseq.w	ip, r0, lsr #1
    96e6:	f150 0000 	adcs.w	r0, r0, #0
    96ea:	eb41 5104 	adc.w	r1, r1, r4, lsl #20
    96ee:	ea41 0105 	orr.w	r1, r1, r5
    96f2:	bd30      	pop	{r4, r5, pc}
    96f4:	ea5f 0c4c 	movs.w	ip, ip, lsl #1
    96f8:	4140      	adcs	r0, r0
    96fa:	eb41 0101 	adc.w	r1, r1, r1
    96fe:	f411 1f80 	tst.w	r1, #1048576	; 0x100000
    9702:	f1a4 0401 	sub.w	r4, r4, #1
    9706:	d1e9      	bne.n	96dc <__adddf3+0x10c>
    9708:	f091 0f00 	teq	r1, #0
    970c:	bf04      	itt	eq
    970e:	4601      	moveq	r1, r0
    9710:	2000      	moveq	r0, #0
    9712:	fab1 f381 	clz	r3, r1
    9716:	bf08      	it	eq
    9718:	3320      	addeq	r3, #32
    971a:	f1a3 030b 	sub.w	r3, r3, #11
    971e:	f1b3 0220 	subs.w	r2, r3, #32
    9722:	da0c      	bge.n	973e <__adddf3+0x16e>
    9724:	320c      	adds	r2, #12
    9726:	dd08      	ble.n	973a <__adddf3+0x16a>
    9728:	f102 0c14 	add.w	ip, r2, #20
    972c:	f1c2 020c 	rsb	r2, r2, #12
    9730:	fa01 f00c 	lsl.w	r0, r1, ip
    9734:	fa21 f102 	lsr.w	r1, r1, r2
    9738:	e00c      	b.n	9754 <__adddf3+0x184>
    973a:	f102 0214 	add.w	r2, r2, #20
    973e:	bfd8      	it	le
    9740:	f1c2 0c20 	rsble	ip, r2, #32
    9744:	fa01 f102 	lsl.w	r1, r1, r2
    9748:	fa20 fc0c 	lsr.w	ip, r0, ip
    974c:	bfdc      	itt	le
    974e:	ea41 010c 	orrle.w	r1, r1, ip
    9752:	4090      	lslle	r0, r2
    9754:	1ae4      	subs	r4, r4, r3
    9756:	bfa2      	ittt	ge
    9758:	eb01 5104 	addge.w	r1, r1, r4, lsl #20
    975c:	4329      	orrge	r1, r5
    975e:	bd30      	popge	{r4, r5, pc}
    9760:	ea6f 0404 	mvn.w	r4, r4
    9764:	3c1f      	subs	r4, #31
    9766:	da1c      	bge.n	97a2 <__adddf3+0x1d2>
    9768:	340c      	adds	r4, #12
    976a:	dc0e      	bgt.n	978a <__adddf3+0x1ba>
    976c:	f104 0414 	add.w	r4, r4, #20
    9770:	f1c4 0220 	rsb	r2, r4, #32
    9774:	fa20 f004 	lsr.w	r0, r0, r4
    9778:	fa01 f302 	lsl.w	r3, r1, r2
    977c:	ea40 0003 	orr.w	r0, r0, r3
    9780:	fa21 f304 	lsr.w	r3, r1, r4
    9784:	ea45 0103 	orr.w	r1, r5, r3
    9788:	bd30      	pop	{r4, r5, pc}
    978a:	f1c4 040c 	rsb	r4, r4, #12
    978e:	f1c4 0220 	rsb	r2, r4, #32
    9792:	fa20 f002 	lsr.w	r0, r0, r2
    9796:	fa01 f304 	lsl.w	r3, r1, r4
    979a:	ea40 0003 	orr.w	r0, r0, r3
    979e:	4629      	mov	r1, r5
    97a0:	bd30      	pop	{r4, r5, pc}
    97a2:	fa21 f004 	lsr.w	r0, r1, r4
    97a6:	4629      	mov	r1, r5
    97a8:	bd30      	pop	{r4, r5, pc}
    97aa:	f094 0f00 	teq	r4, #0
    97ae:	f483 1380 	eor.w	r3, r3, #1048576	; 0x100000
    97b2:	bf06      	itte	eq
    97b4:	f481 1180 	eoreq.w	r1, r1, #1048576	; 0x100000
    97b8:	3401      	addeq	r4, #1
    97ba:	3d01      	subne	r5, #1
    97bc:	e74e      	b.n	965c <__adddf3+0x8c>
    97be:	ea7f 5c64 	mvns.w	ip, r4, asr #21
    97c2:	bf18      	it	ne
    97c4:	ea7f 5c65 	mvnsne.w	ip, r5, asr #21
    97c8:	d029      	beq.n	981e <__adddf3+0x24e>
    97ca:	ea94 0f05 	teq	r4, r5
    97ce:	bf08      	it	eq
    97d0:	ea90 0f02 	teqeq	r0, r2
    97d4:	d005      	beq.n	97e2 <__adddf3+0x212>
    97d6:	ea54 0c00 	orrs.w	ip, r4, r0
    97da:	bf04      	itt	eq
    97dc:	4619      	moveq	r1, r3
    97de:	4610      	moveq	r0, r2
    97e0:	bd30      	pop	{r4, r5, pc}
    97e2:	ea91 0f03 	teq	r1, r3
    97e6:	bf1e      	ittt	ne
    97e8:	2100      	movne	r1, #0
    97ea:	2000      	movne	r0, #0
    97ec:	bd30      	popne	{r4, r5, pc}
    97ee:	ea5f 5c54 	movs.w	ip, r4, lsr #21
    97f2:	d105      	bne.n	9800 <__adddf3+0x230>
    97f4:	0040      	lsls	r0, r0, #1
    97f6:	4149      	adcs	r1, r1
    97f8:	bf28      	it	cs
    97fa:	f041 4100 	orrcs.w	r1, r1, #2147483648	; 0x80000000
    97fe:	bd30      	pop	{r4, r5, pc}
    9800:	f514 0480 	adds.w	r4, r4, #4194304	; 0x400000
    9804:	bf3c      	itt	cc
    9806:	f501 1180 	addcc.w	r1, r1, #1048576	; 0x100000
    980a:	bd30      	popcc	{r4, r5, pc}
    980c:	f001 4500 	and.w	r5, r1, #2147483648	; 0x80000000
    9810:	f045 41fe 	orr.w	r1, r5, #2130706432	; 0x7f000000
    9814:	f441 0170 	orr.w	r1, r1, #15728640	; 0xf00000
    9818:	f04f 0000 	mov.w	r0, #0
    981c:	bd30      	pop	{r4, r5, pc}
    981e:	ea7f 5c64 	mvns.w	ip, r4, asr #21
    9822:	bf1a      	itte	ne
    9824:	4619      	movne	r1, r3
    9826:	4610      	movne	r0, r2
    9828:	ea7f 5c65 	mvnseq.w	ip, r5, asr #21
    982c:	bf1c      	itt	ne
    982e:	460b      	movne	r3, r1
    9830:	4602      	movne	r2, r0
    9832:	ea50 3401 	orrs.w	r4, r0, r1, lsl #12
    9836:	bf06      	itte	eq
    9838:	ea52 3503 	orrseq.w	r5, r2, r3, lsl #12
    983c:	ea91 0f03 	teqeq	r1, r3
    9840:	f441 2100 	orrne.w	r1, r1, #524288	; 0x80000
    9844:	bd30      	pop	{r4, r5, pc}
    9846:	bf00      	nop

00009848 <__aeabi_ui2d>:
    9848:	f090 0f00 	teq	r0, #0
    984c:	bf04      	itt	eq
    984e:	2100      	moveq	r1, #0
    9850:	4770      	bxeq	lr
    9852:	b530      	push	{r4, r5, lr}
    9854:	f44f 6480 	mov.w	r4, #1024	; 0x400
    9858:	f104 0432 	add.w	r4, r4, #50	; 0x32
    985c:	f04f 0500 	mov.w	r5, #0
    9860:	f04f 0100 	mov.w	r1, #0
    9864:	e750      	b.n	9708 <__adddf3+0x138>
    9866:	bf00      	nop

00009868 <__aeabi_i2d>:
    9868:	f090 0f00 	teq	r0, #0
    986c:	bf04      	itt	eq
    986e:	2100      	moveq	r1, #0
    9870:	4770      	bxeq	lr
    9872:	b530      	push	{r4, r5, lr}
    9874:	f44f 6480 	mov.w	r4, #1024	; 0x400
    9878:	f104 0432 	add.w	r4, r4, #50	; 0x32
    987c:	f010 4500 	ands.w	r5, r0, #2147483648	; 0x80000000
    9880:	bf48      	it	mi
    9882:	4240      	negmi	r0, r0
    9884:	f04f 0100 	mov.w	r1, #0
    9888:	e73e      	b.n	9708 <__adddf3+0x138>
    988a:	bf00      	nop

0000988c <__aeabi_f2d>:
    988c:	0042      	lsls	r2, r0, #1
    988e:	ea4f 01e2 	mov.w	r1, r2, asr #3
    9892:	ea4f 0131 	mov.w	r1, r1, rrx
    9896:	ea4f 7002 	mov.w	r0, r2, lsl #28
    989a:	bf1f      	itttt	ne
    989c:	f012 437f 	andsne.w	r3, r2, #4278190080	; 0xff000000
    98a0:	f093 4f7f 	teqne	r3, #4278190080	; 0xff000000
    98a4:	f081 5160 	eorne.w	r1, r1, #939524096	; 0x38000000
    98a8:	4770      	bxne	lr
    98aa:	f092 0f00 	teq	r2, #0
    98ae:	bf14      	ite	ne
    98b0:	f093 4f7f 	teqne	r3, #4278190080	; 0xff000000
    98b4:	4770      	bxeq	lr
    98b6:	b530      	push	{r4, r5, lr}
    98b8:	f44f 7460 	mov.w	r4, #896	; 0x380
    98bc:	f001 4500 	and.w	r5, r1, #2147483648	; 0x80000000
    98c0:	f021 4100 	bic.w	r1, r1, #2147483648	; 0x80000000
    98c4:	e720      	b.n	9708 <__adddf3+0x138>
    98c6:	bf00      	nop

000098c8 <__aeabi_ul2d>:
    98c8:	ea50 0201 	orrs.w	r2, r0, r1
    98cc:	bf08      	it	eq
    98ce:	4770      	bxeq	lr
    98d0:	b530      	push	{r4, r5, lr}
    98d2:	f04f 0500 	mov.w	r5, #0
    98d6:	e00a      	b.n	98ee <__aeabi_l2d+0x16>

000098d8 <__aeabi_l2d>:
    98d8:	ea50 0201 	orrs.w	r2, r0, r1
    98dc:	bf08      	it	eq
    98de:	4770      	bxeq	lr
    98e0:	b530      	push	{r4, r5, lr}
    98e2:	f011 4500 	ands.w	r5, r1, #2147483648	; 0x80000000
    98e6:	d502      	bpl.n	98ee <__aeabi_l2d+0x16>
    98e8:	4240      	negs	r0, r0
    98ea:	eb61 0141 	sbc.w	r1, r1, r1, lsl #1
    98ee:	f44f 6480 	mov.w	r4, #1024	; 0x400
    98f2:	f104 0432 	add.w	r4, r4, #50	; 0x32
    98f6:	ea5f 5c91 	movs.w	ip, r1, lsr #22
    98fa:	f43f aedc 	beq.w	96b6 <__adddf3+0xe6>
    98fe:	f04f 0203 	mov.w	r2, #3
    9902:	ea5f 0cdc 	movs.w	ip, ip, lsr #3
    9906:	bf18      	it	ne
    9908:	3203      	addne	r2, #3
    990a:	ea5f 0cdc 	movs.w	ip, ip, lsr #3
    990e:	bf18      	it	ne
    9910:	3203      	addne	r2, #3
    9912:	eb02 02dc 	add.w	r2, r2, ip, lsr #3
    9916:	f1c2 0320 	rsb	r3, r2, #32
    991a:	fa00 fc03 	lsl.w	ip, r0, r3
    991e:	fa20 f002 	lsr.w	r0, r0, r2
    9922:	fa01 fe03 	lsl.w	lr, r1, r3
    9926:	ea40 000e 	orr.w	r0, r0, lr
    992a:	fa21 f102 	lsr.w	r1, r1, r2
    992e:	4414      	add	r4, r2
    9930:	e6c1      	b.n	96b6 <__adddf3+0xe6>
    9932:	bf00      	nop

00009934 <__aeabi_dmul>:
    9934:	b570      	push	{r4, r5, r6, lr}
    9936:	f04f 0cff 	mov.w	ip, #255	; 0xff
    993a:	f44c 6ce0 	orr.w	ip, ip, #1792	; 0x700
    993e:	ea1c 5411 	ands.w	r4, ip, r1, lsr #20
    9942:	bf1d      	ittte	ne
    9944:	ea1c 5513 	andsne.w	r5, ip, r3, lsr #20
    9948:	ea94 0f0c 	teqne	r4, ip
    994c:	ea95 0f0c 	teqne	r5, ip
    9950:	f000 f8de 	bleq	9b10 <__aeabi_dmul+0x1dc>
    9954:	442c      	add	r4, r5
    9956:	ea81 0603 	eor.w	r6, r1, r3
    995a:	ea21 514c 	bic.w	r1, r1, ip, lsl #21
    995e:	ea23 534c 	bic.w	r3, r3, ip, lsl #21
    9962:	ea50 3501 	orrs.w	r5, r0, r1, lsl #12
    9966:	bf18      	it	ne
    9968:	ea52 3503 	orrsne.w	r5, r2, r3, lsl #12
    996c:	f441 1180 	orr.w	r1, r1, #1048576	; 0x100000
    9970:	f443 1380 	orr.w	r3, r3, #1048576	; 0x100000
    9974:	d038      	beq.n	99e8 <__aeabi_dmul+0xb4>
    9976:	fba0 ce02 	umull	ip, lr, r0, r2
    997a:	f04f 0500 	mov.w	r5, #0
    997e:	fbe1 e502 	umlal	lr, r5, r1, r2
    9982:	f006 4200 	and.w	r2, r6, #2147483648	; 0x80000000
    9986:	fbe0 e503 	umlal	lr, r5, r0, r3
    998a:	f04f 0600 	mov.w	r6, #0
    998e:	fbe1 5603 	umlal	r5, r6, r1, r3
    9992:	f09c 0f00 	teq	ip, #0
    9996:	bf18      	it	ne
    9998:	f04e 0e01 	orrne.w	lr, lr, #1
    999c:	f1a4 04ff 	sub.w	r4, r4, #255	; 0xff
    99a0:	f5b6 7f00 	cmp.w	r6, #512	; 0x200
    99a4:	f564 7440 	sbc.w	r4, r4, #768	; 0x300
    99a8:	d204      	bcs.n	99b4 <__aeabi_dmul+0x80>
    99aa:	ea5f 0e4e 	movs.w	lr, lr, lsl #1
    99ae:	416d      	adcs	r5, r5
    99b0:	eb46 0606 	adc.w	r6, r6, r6
    99b4:	ea42 21c6 	orr.w	r1, r2, r6, lsl #11
    99b8:	ea41 5155 	orr.w	r1, r1, r5, lsr #21
    99bc:	ea4f 20c5 	mov.w	r0, r5, lsl #11
    99c0:	ea40 505e 	orr.w	r0, r0, lr, lsr #21
    99c4:	ea4f 2ece 	mov.w	lr, lr, lsl #11
    99c8:	f1b4 0cfd 	subs.w	ip, r4, #253	; 0xfd
    99cc:	bf88      	it	hi
    99ce:	f5bc 6fe0 	cmphi.w	ip, #1792	; 0x700
    99d2:	d81e      	bhi.n	9a12 <__aeabi_dmul+0xde>
    99d4:	f1be 4f00 	cmp.w	lr, #2147483648	; 0x80000000
    99d8:	bf08      	it	eq
    99da:	ea5f 0e50 	movseq.w	lr, r0, lsr #1
    99de:	f150 0000 	adcs.w	r0, r0, #0
    99e2:	eb41 5104 	adc.w	r1, r1, r4, lsl #20
    99e6:	bd70      	pop	{r4, r5, r6, pc}
    99e8:	f006 4600 	and.w	r6, r6, #2147483648	; 0x80000000
    99ec:	ea46 0101 	orr.w	r1, r6, r1
    99f0:	ea40 0002 	orr.w	r0, r0, r2
    99f4:	ea81 0103 	eor.w	r1, r1, r3
    99f8:	ebb4 045c 	subs.w	r4, r4, ip, lsr #1
    99fc:	bfc2      	ittt	gt
    99fe:	ebd4 050c 	rsbsgt	r5, r4, ip
    9a02:	ea41 5104 	orrgt.w	r1, r1, r4, lsl #20
    9a06:	bd70      	popgt	{r4, r5, r6, pc}
    9a08:	f441 1180 	orr.w	r1, r1, #1048576	; 0x100000
    9a0c:	f04f 0e00 	mov.w	lr, #0
    9a10:	3c01      	subs	r4, #1
    9a12:	f300 80ab 	bgt.w	9b6c <__aeabi_dmul+0x238>
    9a16:	f114 0f36 	cmn.w	r4, #54	; 0x36
    9a1a:	bfde      	ittt	le
    9a1c:	2000      	movle	r0, #0
    9a1e:	f001 4100 	andle.w	r1, r1, #2147483648	; 0x80000000
    9a22:	bd70      	pople	{r4, r5, r6, pc}
    9a24:	f1c4 0400 	rsb	r4, r4, #0
    9a28:	3c20      	subs	r4, #32
    9a2a:	da35      	bge.n	9a98 <__aeabi_dmul+0x164>
    9a2c:	340c      	adds	r4, #12
    9a2e:	dc1b      	bgt.n	9a68 <__aeabi_dmul+0x134>
    9a30:	f104 0414 	add.w	r4, r4, #20
    9a34:	f1c4 0520 	rsb	r5, r4, #32
    9a38:	fa00 f305 	lsl.w	r3, r0, r5
    9a3c:	fa20 f004 	lsr.w	r0, r0, r4
    9a40:	fa01 f205 	lsl.w	r2, r1, r5
    9a44:	ea40 0002 	orr.w	r0, r0, r2
    9a48:	f001 4200 	and.w	r2, r1, #2147483648	; 0x80000000
    9a4c:	f021 4100 	bic.w	r1, r1, #2147483648	; 0x80000000
    9a50:	eb10 70d3 	adds.w	r0, r0, r3, lsr #31
    9a54:	fa21 f604 	lsr.w	r6, r1, r4
    9a58:	eb42 0106 	adc.w	r1, r2, r6
    9a5c:	ea5e 0e43 	orrs.w	lr, lr, r3, lsl #1
    9a60:	bf08      	it	eq
    9a62:	ea20 70d3 	biceq.w	r0, r0, r3, lsr #31
    9a66:	bd70      	pop	{r4, r5, r6, pc}
    9a68:	f1c4 040c 	rsb	r4, r4, #12
    9a6c:	f1c4 0520 	rsb	r5, r4, #32
    9a70:	fa00 f304 	lsl.w	r3, r0, r4
    9a74:	fa20 f005 	lsr.w	r0, r0, r5
    9a78:	fa01 f204 	lsl.w	r2, r1, r4
    9a7c:	ea40 0002 	orr.w	r0, r0, r2
    9a80:	f001 4100 	and.w	r1, r1, #2147483648	; 0x80000000
    9a84:	eb10 70d3 	adds.w	r0, r0, r3, lsr #31
    9a88:	f141 0100 	adc.w	r1, r1, #0
    9a8c:	ea5e 0e43 	orrs.w	lr, lr, r3, lsl #1
    9a90:	bf08      	it	eq
    9a92:	ea20 70d3 	biceq.w	r0, r0, r3, lsr #31
    9a96:	bd70      	pop	{r4, r5, r6, pc}
    9a98:	f1c4 0520 	rsb	r5, r4, #32
    9a9c:	fa00 f205 	lsl.w	r2, r0, r5
    9aa0:	ea4e 0e02 	orr.w	lr, lr, r2
    9aa4:	fa20 f304 	lsr.w	r3, r0, r4
    9aa8:	fa01 f205 	lsl.w	r2, r1, r5
    9aac:	ea43 0302 	orr.w	r3, r3, r2
    9ab0:	fa21 f004 	lsr.w	r0, r1, r4
    9ab4:	f001 4100 	and.w	r1, r1, #2147483648	; 0x80000000
    9ab8:	fa21 f204 	lsr.w	r2, r1, r4
    9abc:	ea20 0002 	bic.w	r0, r0, r2
    9ac0:	eb00 70d3 	add.w	r0, r0, r3, lsr #31
    9ac4:	ea5e 0e43 	orrs.w	lr, lr, r3, lsl #1
    9ac8:	bf08      	it	eq
    9aca:	ea20 70d3 	biceq.w	r0, r0, r3, lsr #31
    9ace:	bd70      	pop	{r4, r5, r6, pc}
    9ad0:	f094 0f00 	teq	r4, #0
    9ad4:	d10f      	bne.n	9af6 <__aeabi_dmul+0x1c2>
    9ad6:	f001 4600 	and.w	r6, r1, #2147483648	; 0x80000000
    9ada:	0040      	lsls	r0, r0, #1
    9adc:	eb41 0101 	adc.w	r1, r1, r1
    9ae0:	f411 1f80 	tst.w	r1, #1048576	; 0x100000
    9ae4:	bf08      	it	eq
    9ae6:	3c01      	subeq	r4, #1
    9ae8:	d0f7      	beq.n	9ada <__aeabi_dmul+0x1a6>
    9aea:	ea41 0106 	orr.w	r1, r1, r6
    9aee:	f095 0f00 	teq	r5, #0
    9af2:	bf18      	it	ne
    9af4:	4770      	bxne	lr
    9af6:	f003 4600 	and.w	r6, r3, #2147483648	; 0x80000000
    9afa:	0052      	lsls	r2, r2, #1
    9afc:	eb43 0303 	adc.w	r3, r3, r3
    9b00:	f413 1f80 	tst.w	r3, #1048576	; 0x100000
    9b04:	bf08      	it	eq
    9b06:	3d01      	subeq	r5, #1
    9b08:	d0f7      	beq.n	9afa <__aeabi_dmul+0x1c6>
    9b0a:	ea43 0306 	orr.w	r3, r3, r6
    9b0e:	4770      	bx	lr
    9b10:	ea94 0f0c 	teq	r4, ip
    9b14:	ea0c 5513 	and.w	r5, ip, r3, lsr #20
    9b18:	bf18      	it	ne
    9b1a:	ea95 0f0c 	teqne	r5, ip
    9b1e:	d00c      	beq.n	9b3a <__aeabi_dmul+0x206>
    9b20:	ea50 0641 	orrs.w	r6, r0, r1, lsl #1
    9b24:	bf18      	it	ne
    9b26:	ea52 0643 	orrsne.w	r6, r2, r3, lsl #1
    9b2a:	d1d1      	bne.n	9ad0 <__aeabi_dmul+0x19c>
    9b2c:	ea81 0103 	eor.w	r1, r1, r3
    9b30:	f001 4100 	and.w	r1, r1, #2147483648	; 0x80000000
    9b34:	f04f 0000 	mov.w	r0, #0
    9b38:	bd70      	pop	{r4, r5, r6, pc}
    9b3a:	ea50 0641 	orrs.w	r6, r0, r1, lsl #1
    9b3e:	bf06      	itte	eq
    9b40:	4610      	moveq	r0, r2
    9b42:	4619      	moveq	r1, r3
    9b44:	ea52 0643 	orrsne.w	r6, r2, r3, lsl #1
    9b48:	d019      	beq.n	9b7e <__aeabi_dmul+0x24a>
    9b4a:	ea94 0f0c 	teq	r4, ip
    9b4e:	d102      	bne.n	9b56 <__aeabi_dmul+0x222>
    9b50:	ea50 3601 	orrs.w	r6, r0, r1, lsl #12
    9b54:	d113      	bne.n	9b7e <__aeabi_dmul+0x24a>
    9b56:	ea95 0f0c 	teq	r5, ip
    9b5a:	d105      	bne.n	9b68 <__aeabi_dmul+0x234>
    9b5c:	ea52 3603 	orrs.w	r6, r2, r3, lsl #12
    9b60:	bf1c      	itt	ne
    9b62:	4610      	movne	r0, r2
    9b64:	4619      	movne	r1, r3
    9b66:	d10a      	bne.n	9b7e <__aeabi_dmul+0x24a>
    9b68:	ea81 0103 	eor.w	r1, r1, r3
    9b6c:	f001 4100 	and.w	r1, r1, #2147483648	; 0x80000000
    9b70:	f041 41fe 	orr.w	r1, r1, #2130706432	; 0x7f000000
    9b74:	f441 0170 	orr.w	r1, r1, #15728640	; 0xf00000
    9b78:	f04f 0000 	mov.w	r0, #0
    9b7c:	bd70      	pop	{r4, r5, r6, pc}
    9b7e:	f041 41fe 	orr.w	r1, r1, #2130706432	; 0x7f000000
    9b82:	f441 0178 	orr.w	r1, r1, #16252928	; 0xf80000
    9b86:	bd70      	pop	{r4, r5, r6, pc}

00009b88 <__aeabi_ddiv>:
    9b88:	b570      	push	{r4, r5, r6, lr}
    9b8a:	f04f 0cff 	mov.w	ip, #255	; 0xff
    9b8e:	f44c 6ce0 	orr.w	ip, ip, #1792	; 0x700
    9b92:	ea1c 5411 	ands.w	r4, ip, r1, lsr #20
    9b96:	bf1d      	ittte	ne
    9b98:	ea1c 5513 	andsne.w	r5, ip, r3, lsr #20
    9b9c:	ea94 0f0c 	teqne	r4, ip
    9ba0:	ea95 0f0c 	teqne	r5, ip
    9ba4:	f000 f8a7 	bleq	9cf6 <__aeabi_ddiv+0x16e>
    9ba8:	eba4 0405 	sub.w	r4, r4, r5
    9bac:	ea81 0e03 	eor.w	lr, r1, r3
    9bb0:	ea52 3503 	orrs.w	r5, r2, r3, lsl #12
    9bb4:	ea4f 3101 	mov.w	r1, r1, lsl #12
    9bb8:	f000 8088 	beq.w	9ccc <__aeabi_ddiv+0x144>
    9bbc:	ea4f 3303 	mov.w	r3, r3, lsl #12
    9bc0:	f04f 5580 	mov.w	r5, #268435456	; 0x10000000
    9bc4:	ea45 1313 	orr.w	r3, r5, r3, lsr #4
    9bc8:	ea43 6312 	orr.w	r3, r3, r2, lsr #24
    9bcc:	ea4f 2202 	mov.w	r2, r2, lsl #8
    9bd0:	ea45 1511 	orr.w	r5, r5, r1, lsr #4
    9bd4:	ea45 6510 	orr.w	r5, r5, r0, lsr #24
    9bd8:	ea4f 2600 	mov.w	r6, r0, lsl #8
    9bdc:	f00e 4100 	and.w	r1, lr, #2147483648	; 0x80000000
    9be0:	429d      	cmp	r5, r3
    9be2:	bf08      	it	eq
    9be4:	4296      	cmpeq	r6, r2
    9be6:	f144 04fd 	adc.w	r4, r4, #253	; 0xfd
    9bea:	f504 7440 	add.w	r4, r4, #768	; 0x300
    9bee:	d202      	bcs.n	9bf6 <__aeabi_ddiv+0x6e>
    9bf0:	085b      	lsrs	r3, r3, #1
    9bf2:	ea4f 0232 	mov.w	r2, r2, rrx
    9bf6:	1ab6      	subs	r6, r6, r2
    9bf8:	eb65 0503 	sbc.w	r5, r5, r3
    9bfc:	085b      	lsrs	r3, r3, #1
    9bfe:	ea4f 0232 	mov.w	r2, r2, rrx
    9c02:	f44f 1080 	mov.w	r0, #1048576	; 0x100000
    9c06:	f44f 2c00 	mov.w	ip, #524288	; 0x80000
    9c0a:	ebb6 0e02 	subs.w	lr, r6, r2
    9c0e:	eb75 0e03 	sbcs.w	lr, r5, r3
    9c12:	bf22      	ittt	cs
    9c14:	1ab6      	subcs	r6, r6, r2
    9c16:	4675      	movcs	r5, lr
    9c18:	ea40 000c 	orrcs.w	r0, r0, ip
    9c1c:	085b      	lsrs	r3, r3, #1
    9c1e:	ea4f 0232 	mov.w	r2, r2, rrx
    9c22:	ebb6 0e02 	subs.w	lr, r6, r2
    9c26:	eb75 0e03 	sbcs.w	lr, r5, r3
    9c2a:	bf22      	ittt	cs
    9c2c:	1ab6      	subcs	r6, r6, r2
    9c2e:	4675      	movcs	r5, lr
    9c30:	ea40 005c 	orrcs.w	r0, r0, ip, lsr #1
    9c34:	085b      	lsrs	r3, r3, #1
    9c36:	ea4f 0232 	mov.w	r2, r2, rrx
    9c3a:	ebb6 0e02 	subs.w	lr, r6, r2
    9c3e:	eb75 0e03 	sbcs.w	lr, r5, r3
    9c42:	bf22      	ittt	cs
    9c44:	1ab6      	subcs	r6, r6, r2
    9c46:	4675      	movcs	r5, lr
    9c48:	ea40 009c 	orrcs.w	r0, r0, ip, lsr #2
    9c4c:	085b      	lsrs	r3, r3, #1
    9c4e:	ea4f 0232 	mov.w	r2, r2, rrx
    9c52:	ebb6 0e02 	subs.w	lr, r6, r2
    9c56:	eb75 0e03 	sbcs.w	lr, r5, r3
    9c5a:	bf22      	ittt	cs
    9c5c:	1ab6      	subcs	r6, r6, r2
    9c5e:	4675      	movcs	r5, lr
    9c60:	ea40 00dc 	orrcs.w	r0, r0, ip, lsr #3
    9c64:	ea55 0e06 	orrs.w	lr, r5, r6
    9c68:	d018      	beq.n	9c9c <__aeabi_ddiv+0x114>
    9c6a:	ea4f 1505 	mov.w	r5, r5, lsl #4
    9c6e:	ea45 7516 	orr.w	r5, r5, r6, lsr #28
    9c72:	ea4f 1606 	mov.w	r6, r6, lsl #4
    9c76:	ea4f 03c3 	mov.w	r3, r3, lsl #3
    9c7a:	ea43 7352 	orr.w	r3, r3, r2, lsr #29
    9c7e:	ea4f 02c2 	mov.w	r2, r2, lsl #3
    9c82:	ea5f 1c1c 	movs.w	ip, ip, lsr #4
    9c86:	d1c0      	bne.n	9c0a <__aeabi_ddiv+0x82>
    9c88:	f411 1f80 	tst.w	r1, #1048576	; 0x100000
    9c8c:	d10b      	bne.n	9ca6 <__aeabi_ddiv+0x11e>
    9c8e:	ea41 0100 	orr.w	r1, r1, r0
    9c92:	f04f 0000 	mov.w	r0, #0
    9c96:	f04f 4c00 	mov.w	ip, #2147483648	; 0x80000000
    9c9a:	e7b6      	b.n	9c0a <__aeabi_ddiv+0x82>
    9c9c:	f411 1f80 	tst.w	r1, #1048576	; 0x100000
    9ca0:	bf04      	itt	eq
    9ca2:	4301      	orreq	r1, r0
    9ca4:	2000      	moveq	r0, #0
    9ca6:	f1b4 0cfd 	subs.w	ip, r4, #253	; 0xfd
    9caa:	bf88      	it	hi
    9cac:	f5bc 6fe0 	cmphi.w	ip, #1792	; 0x700
    9cb0:	f63f aeaf 	bhi.w	9a12 <__aeabi_dmul+0xde>
    9cb4:	ebb5 0c03 	subs.w	ip, r5, r3
    9cb8:	bf04      	itt	eq
    9cba:	ebb6 0c02 	subseq.w	ip, r6, r2
    9cbe:	ea5f 0c50 	movseq.w	ip, r0, lsr #1
    9cc2:	f150 0000 	adcs.w	r0, r0, #0
    9cc6:	eb41 5104 	adc.w	r1, r1, r4, lsl #20
    9cca:	bd70      	pop	{r4, r5, r6, pc}
    9ccc:	f00e 4e00 	and.w	lr, lr, #2147483648	; 0x80000000
    9cd0:	ea4e 3111 	orr.w	r1, lr, r1, lsr #12
    9cd4:	eb14 045c 	adds.w	r4, r4, ip, lsr #1
    9cd8:	bfc2      	ittt	gt
    9cda:	ebd4 050c 	rsbsgt	r5, r4, ip
    9cde:	ea41 5104 	orrgt.w	r1, r1, r4, lsl #20
    9ce2:	bd70      	popgt	{r4, r5, r6, pc}
    9ce4:	f441 1180 	orr.w	r1, r1, #1048576	; 0x100000
    9ce8:	f04f 0e00 	mov.w	lr, #0
    9cec:	3c01      	subs	r4, #1
    9cee:	e690      	b.n	9a12 <__aeabi_dmul+0xde>
    9cf0:	ea45 0e06 	orr.w	lr, r5, r6
    9cf4:	e68d      	b.n	9a12 <__aeabi_dmul+0xde>
    9cf6:	ea0c 5513 	and.w	r5, ip, r3, lsr #20
    9cfa:	ea94 0f0c 	teq	r4, ip
    9cfe:	bf08      	it	eq
    9d00:	ea95 0f0c 	teqeq	r5, ip
    9d04:	f43f af3b 	beq.w	9b7e <__aeabi_dmul+0x24a>
    9d08:	ea94 0f0c 	teq	r4, ip
    9d0c:	d10a      	bne.n	9d24 <__aeabi_ddiv+0x19c>
    9d0e:	ea50 3401 	orrs.w	r4, r0, r1, lsl #12
    9d12:	f47f af34 	bne.w	9b7e <__aeabi_dmul+0x24a>
    9d16:	ea95 0f0c 	teq	r5, ip
    9d1a:	f47f af25 	bne.w	9b68 <__aeabi_dmul+0x234>
    9d1e:	4610      	mov	r0, r2
    9d20:	4619      	mov	r1, r3
    9d22:	e72c      	b.n	9b7e <__aeabi_dmul+0x24a>
    9d24:	ea95 0f0c 	teq	r5, ip
    9d28:	d106      	bne.n	9d38 <__aeabi_ddiv+0x1b0>
    9d2a:	ea52 3503 	orrs.w	r5, r2, r3, lsl #12
    9d2e:	f43f aefd 	beq.w	9b2c <__aeabi_dmul+0x1f8>
    9d32:	4610      	mov	r0, r2
    9d34:	4619      	mov	r1, r3
    9d36:	e722      	b.n	9b7e <__aeabi_dmul+0x24a>
    9d38:	ea50 0641 	orrs.w	r6, r0, r1, lsl #1
    9d3c:	bf18      	it	ne
    9d3e:	ea52 0643 	orrsne.w	r6, r2, r3, lsl #1
    9d42:	f47f aec5 	bne.w	9ad0 <__aeabi_dmul+0x19c>
    9d46:	ea50 0441 	orrs.w	r4, r0, r1, lsl #1
    9d4a:	f47f af0d 	bne.w	9b68 <__aeabi_dmul+0x234>
    9d4e:	ea52 0543 	orrs.w	r5, r2, r3, lsl #1
    9d52:	f47f aeeb 	bne.w	9b2c <__aeabi_dmul+0x1f8>
    9d56:	e712      	b.n	9b7e <__aeabi_dmul+0x24a>

00009d58 <__gedf2>:
    9d58:	f04f 3cff 	mov.w	ip, #4294967295
    9d5c:	e006      	b.n	9d6c <__cmpdf2+0x4>
    9d5e:	bf00      	nop

00009d60 <__ledf2>:
    9d60:	f04f 0c01 	mov.w	ip, #1
    9d64:	e002      	b.n	9d6c <__cmpdf2+0x4>
    9d66:	bf00      	nop

00009d68 <__cmpdf2>:
    9d68:	f04f 0c01 	mov.w	ip, #1
    9d6c:	f84d cd04 	str.w	ip, [sp, #-4]!
    9d70:	ea4f 0c41 	mov.w	ip, r1, lsl #1
    9d74:	ea7f 5c6c 	mvns.w	ip, ip, asr #21
    9d78:	ea4f 0c43 	mov.w	ip, r3, lsl #1
    9d7c:	bf18      	it	ne
    9d7e:	ea7f 5c6c 	mvnsne.w	ip, ip, asr #21
    9d82:	d01b      	beq.n	9dbc <__cmpdf2+0x54>
    9d84:	b001      	add	sp, #4
    9d86:	ea50 0c41 	orrs.w	ip, r0, r1, lsl #1
    9d8a:	bf0c      	ite	eq
    9d8c:	ea52 0c43 	orrseq.w	ip, r2, r3, lsl #1
    9d90:	ea91 0f03 	teqne	r1, r3
    9d94:	bf02      	ittt	eq
    9d96:	ea90 0f02 	teqeq	r0, r2
    9d9a:	2000      	moveq	r0, #0
    9d9c:	4770      	bxeq	lr
    9d9e:	f110 0f00 	cmn.w	r0, #0
    9da2:	ea91 0f03 	teq	r1, r3
    9da6:	bf58      	it	pl
    9da8:	4299      	cmppl	r1, r3
    9daa:	bf08      	it	eq
    9dac:	4290      	cmpeq	r0, r2
    9dae:	bf2c      	ite	cs
    9db0:	17d8      	asrcs	r0, r3, #31
    9db2:	ea6f 70e3 	mvncc.w	r0, r3, asr #31
    9db6:	f040 0001 	orr.w	r0, r0, #1
    9dba:	4770      	bx	lr
    9dbc:	ea4f 0c41 	mov.w	ip, r1, lsl #1
    9dc0:	ea7f 5c6c 	mvns.w	ip, ip, asr #21
    9dc4:	d102      	bne.n	9dcc <__cmpdf2+0x64>
    9dc6:	ea50 3c01 	orrs.w	ip, r0, r1, lsl #12
    9dca:	d107      	bne.n	9ddc <__cmpdf2+0x74>
    9dcc:	ea4f 0c43 	mov.w	ip, r3, lsl #1
    9dd0:	ea7f 5c6c 	mvns.w	ip, ip, asr #21
    9dd4:	d1d6      	bne.n	9d84 <__cmpdf2+0x1c>
    9dd6:	ea52 3c03 	orrs.w	ip, r2, r3, lsl #12
    9dda:	d0d3      	beq.n	9d84 <__cmpdf2+0x1c>
    9ddc:	f85d 0b04 	ldr.w	r0, [sp], #4
    9de0:	4770      	bx	lr
    9de2:	bf00      	nop

00009de4 <__aeabi_cdrcmple>:
    9de4:	4684      	mov	ip, r0
    9de6:	4610      	mov	r0, r2
    9de8:	4662      	mov	r2, ip
    9dea:	468c      	mov	ip, r1
    9dec:	4619      	mov	r1, r3
    9dee:	4663      	mov	r3, ip
    9df0:	e000      	b.n	9df4 <__aeabi_cdcmpeq>
    9df2:	bf00      	nop

00009df4 <__aeabi_cdcmpeq>:
    9df4:	b501      	push	{r0, lr}
    9df6:	f7ff ffb7 	bl	9d68 <__cmpdf2>
    9dfa:	2800      	cmp	r0, #0
    9dfc:	bf48      	it	mi
    9dfe:	f110 0f00 	cmnmi.w	r0, #0
    9e02:	bd01      	pop	{r0, pc}

00009e04 <__aeabi_dcmpeq>:
    9e04:	f84d ed08 	str.w	lr, [sp, #-8]!
    9e08:	f7ff fff4 	bl	9df4 <__aeabi_cdcmpeq>
    9e0c:	bf0c      	ite	eq
    9e0e:	2001      	moveq	r0, #1
    9e10:	2000      	movne	r0, #0
    9e12:	f85d fb08 	ldr.w	pc, [sp], #8
    9e16:	bf00      	nop

00009e18 <__aeabi_dcmplt>:
    9e18:	f84d ed08 	str.w	lr, [sp, #-8]!
    9e1c:	f7ff ffea 	bl	9df4 <__aeabi_cdcmpeq>
    9e20:	bf34      	ite	cc
    9e22:	2001      	movcc	r0, #1
    9e24:	2000      	movcs	r0, #0
    9e26:	f85d fb08 	ldr.w	pc, [sp], #8
    9e2a:	bf00      	nop

00009e2c <__aeabi_dcmple>:
    9e2c:	f84d ed08 	str.w	lr, [sp, #-8]!
    9e30:	f7ff ffe0 	bl	9df4 <__aeabi_cdcmpeq>
    9e34:	bf94      	ite	ls
    9e36:	2001      	movls	r0, #1
    9e38:	2000      	movhi	r0, #0
    9e3a:	f85d fb08 	ldr.w	pc, [sp], #8
    9e3e:	bf00      	nop

00009e40 <__aeabi_dcmpge>:
    9e40:	f84d ed08 	str.w	lr, [sp, #-8]!
    9e44:	f7ff ffce 	bl	9de4 <__aeabi_cdrcmple>
    9e48:	bf94      	ite	ls
    9e4a:	2001      	movls	r0, #1
    9e4c:	2000      	movhi	r0, #0
    9e4e:	f85d fb08 	ldr.w	pc, [sp], #8
    9e52:	bf00      	nop

00009e54 <__aeabi_dcmpgt>:
    9e54:	f84d ed08 	str.w	lr, [sp, #-8]!
    9e58:	f7ff ffc4 	bl	9de4 <__aeabi_cdrcmple>
    9e5c:	bf34      	ite	cc
    9e5e:	2001      	movcc	r0, #1
    9e60:	2000      	movcs	r0, #0
    9e62:	f85d fb08 	ldr.w	pc, [sp], #8
    9e66:	bf00      	nop

00009e68 <__aeabi_d2iz>:
    9e68:	ea4f 0241 	mov.w	r2, r1, lsl #1
    9e6c:	f512 1200 	adds.w	r2, r2, #2097152	; 0x200000
    9e70:	d215      	bcs.n	9e9e <__aeabi_d2iz+0x36>
    9e72:	d511      	bpl.n	9e98 <__aeabi_d2iz+0x30>
    9e74:	f46f 7378 	mvn.w	r3, #992	; 0x3e0
    9e78:	ebb3 5262 	subs.w	r2, r3, r2, asr #21
    9e7c:	d912      	bls.n	9ea4 <__aeabi_d2iz+0x3c>
    9e7e:	ea4f 23c1 	mov.w	r3, r1, lsl #11
    9e82:	f043 4300 	orr.w	r3, r3, #2147483648	; 0x80000000
    9e86:	ea43 5350 	orr.w	r3, r3, r0, lsr #21
    9e8a:	f011 4f00 	tst.w	r1, #2147483648	; 0x80000000
    9e8e:	fa23 f002 	lsr.w	r0, r3, r2
    9e92:	bf18      	it	ne
    9e94:	4240      	negne	r0, r0
    9e96:	4770      	bx	lr
    9e98:	f04f 0000 	mov.w	r0, #0
    9e9c:	4770      	bx	lr
    9e9e:	ea50 3001 	orrs.w	r0, r0, r1, lsl #12
    9ea2:	d105      	bne.n	9eb0 <__aeabi_d2iz+0x48>
    9ea4:	f011 4000 	ands.w	r0, r1, #2147483648	; 0x80000000
    9ea8:	bf08      	it	eq
    9eaa:	f06f 4000 	mvneq.w	r0, #2147483648	; 0x80000000
    9eae:	4770      	bx	lr
    9eb0:	f04f 0000 	mov.w	r0, #0
    9eb4:	4770      	bx	lr
    9eb6:	bf00      	nop

00009eb8 <__aeabi_uldivmod>:
    9eb8:	b94b      	cbnz	r3, 9ece <__aeabi_uldivmod+0x16>
    9eba:	b942      	cbnz	r2, 9ece <__aeabi_uldivmod+0x16>
    9ebc:	2900      	cmp	r1, #0
    9ebe:	bf08      	it	eq
    9ec0:	2800      	cmpeq	r0, #0
    9ec2:	d002      	beq.n	9eca <__aeabi_uldivmod+0x12>
    9ec4:	f04f 31ff 	mov.w	r1, #4294967295
    9ec8:	4608      	mov	r0, r1
    9eca:	f7ff bb79 	b.w	95c0 <__aeabi_idiv0>
    9ece:	b082      	sub	sp, #8
    9ed0:	46ec      	mov	ip, sp
    9ed2:	e92d 5000 	stmdb	sp!, {ip, lr}
    9ed6:	f000 f805 	bl	9ee4 <__gnu_uldivmod_helper>
    9eda:	f8dd e004 	ldr.w	lr, [sp, #4]
    9ede:	b002      	add	sp, #8
    9ee0:	bc0c      	pop	{r2, r3}
    9ee2:	4770      	bx	lr

00009ee4 <__gnu_uldivmod_helper>:
    9ee4:	b5f8      	push	{r3, r4, r5, r6, r7, lr}
    9ee6:	4614      	mov	r4, r2
    9ee8:	461d      	mov	r5, r3
    9eea:	4606      	mov	r6, r0
    9eec:	460f      	mov	r7, r1
    9eee:	f000 f9d7 	bl	a2a0 <__udivdi3>
    9ef2:	fb00 f505 	mul.w	r5, r0, r5
    9ef6:	fba0 2304 	umull	r2, r3, r0, r4
    9efa:	fb04 5401 	mla	r4, r4, r1, r5
    9efe:	18e3      	adds	r3, r4, r3
    9f00:	1ab6      	subs	r6, r6, r2
    9f02:	eb67 0703 	sbc.w	r7, r7, r3
    9f06:	9b06      	ldr	r3, [sp, #24]
    9f08:	e9c3 6700 	strd	r6, r7, [r3]
    9f0c:	bdf8      	pop	{r3, r4, r5, r6, r7, pc}
    9f0e:	bf00      	nop

00009f10 <__gnu_ldivmod_helper>:
    9f10:	b5f8      	push	{r3, r4, r5, r6, r7, lr}
    9f12:	4614      	mov	r4, r2
    9f14:	461d      	mov	r5, r3
    9f16:	4606      	mov	r6, r0
    9f18:	460f      	mov	r7, r1
    9f1a:	f000 f80f 	bl	9f3c <__divdi3>
    9f1e:	fb00 f505 	mul.w	r5, r0, r5
    9f22:	fba0 2304 	umull	r2, r3, r0, r4
    9f26:	fb04 5401 	mla	r4, r4, r1, r5
    9f2a:	18e3      	adds	r3, r4, r3
    9f2c:	1ab6      	subs	r6, r6, r2
    9f2e:	eb67 0703 	sbc.w	r7, r7, r3
    9f32:	9b06      	ldr	r3, [sp, #24]
    9f34:	e9c3 6700 	strd	r6, r7, [r3]
    9f38:	bdf8      	pop	{r3, r4, r5, r6, r7, pc}
    9f3a:	bf00      	nop

00009f3c <__divdi3>:
    9f3c:	2900      	cmp	r1, #0
    9f3e:	e92d 4ff0 	stmdb	sp!, {r4, r5, r6, r7, r8, r9, sl, fp, lr}
    9f42:	b085      	sub	sp, #20
    9f44:	f2c0 80c8 	blt.w	a0d8 <__divdi3+0x19c>
    9f48:	2600      	movs	r6, #0
    9f4a:	2b00      	cmp	r3, #0
    9f4c:	f2c0 80bf 	blt.w	a0ce <__divdi3+0x192>
    9f50:	4689      	mov	r9, r1
    9f52:	4614      	mov	r4, r2
    9f54:	4605      	mov	r5, r0
    9f56:	469b      	mov	fp, r3
    9f58:	2b00      	cmp	r3, #0
    9f5a:	d14a      	bne.n	9ff2 <__divdi3+0xb6>
    9f5c:	428a      	cmp	r2, r1
    9f5e:	d957      	bls.n	a010 <__divdi3+0xd4>
    9f60:	fab2 f382 	clz	r3, r2
    9f64:	b153      	cbz	r3, 9f7c <__divdi3+0x40>
    9f66:	f1c3 0020 	rsb	r0, r3, #32
    9f6a:	fa01 f903 	lsl.w	r9, r1, r3
    9f6e:	fa25 f800 	lsr.w	r8, r5, r0
    9f72:	fa12 f403 	lsls.w	r4, r2, r3
    9f76:	409d      	lsls	r5, r3
    9f78:	ea48 0909 	orr.w	r9, r8, r9
    9f7c:	0c27      	lsrs	r7, r4, #16
    9f7e:	4648      	mov	r0, r9
    9f80:	4639      	mov	r1, r7
    9f82:	fa1f fb84 	uxth.w	fp, r4
    9f86:	f7ff f9df 	bl	9348 <__aeabi_uidiv>
    9f8a:	4639      	mov	r1, r7
    9f8c:	4682      	mov	sl, r0
    9f8e:	4648      	mov	r0, r9
    9f90:	f7ff fb08 	bl	95a4 <__aeabi_uidivmod>
    9f94:	0c2a      	lsrs	r2, r5, #16
    9f96:	fb0b f30a 	mul.w	r3, fp, sl
    9f9a:	ea42 4901 	orr.w	r9, r2, r1, lsl #16
    9f9e:	454b      	cmp	r3, r9
    9fa0:	d909      	bls.n	9fb6 <__divdi3+0x7a>
    9fa2:	eb19 0904 	adds.w	r9, r9, r4
    9fa6:	f10a 3aff 	add.w	sl, sl, #4294967295
    9faa:	d204      	bcs.n	9fb6 <__divdi3+0x7a>
    9fac:	454b      	cmp	r3, r9
    9fae:	bf84      	itt	hi
    9fb0:	f10a 3aff 	addhi.w	sl, sl, #4294967295
    9fb4:	44a1      	addhi	r9, r4
    9fb6:	ebc3 0909 	rsb	r9, r3, r9
    9fba:	4639      	mov	r1, r7
    9fbc:	4648      	mov	r0, r9
    9fbe:	b2ad      	uxth	r5, r5
    9fc0:	f7ff f9c2 	bl	9348 <__aeabi_uidiv>
    9fc4:	4639      	mov	r1, r7
    9fc6:	4680      	mov	r8, r0
    9fc8:	4648      	mov	r0, r9
    9fca:	f7ff faeb 	bl	95a4 <__aeabi_uidivmod>
    9fce:	fb0b fb08 	mul.w	fp, fp, r8
    9fd2:	ea45 4501 	orr.w	r5, r5, r1, lsl #16
    9fd6:	45ab      	cmp	fp, r5
    9fd8:	d907      	bls.n	9fea <__divdi3+0xae>
    9fda:	192d      	adds	r5, r5, r4
    9fdc:	f108 38ff 	add.w	r8, r8, #4294967295
    9fe0:	d203      	bcs.n	9fea <__divdi3+0xae>
    9fe2:	45ab      	cmp	fp, r5
    9fe4:	bf88      	it	hi
    9fe6:	f108 38ff 	addhi.w	r8, r8, #4294967295
    9fea:	ea48 480a 	orr.w	r8, r8, sl, lsl #16
    9fee:	2700      	movs	r7, #0
    9ff0:	e003      	b.n	9ffa <__divdi3+0xbe>
    9ff2:	428b      	cmp	r3, r1
    9ff4:	d957      	bls.n	a0a6 <__divdi3+0x16a>
    9ff6:	2700      	movs	r7, #0
    9ff8:	46b8      	mov	r8, r7
    9ffa:	4642      	mov	r2, r8
    9ffc:	463b      	mov	r3, r7
    9ffe:	b116      	cbz	r6, a006 <__divdi3+0xca>
    a000:	4252      	negs	r2, r2
    a002:	eb63 0343 	sbc.w	r3, r3, r3, lsl #1
    a006:	4619      	mov	r1, r3
    a008:	4610      	mov	r0, r2
    a00a:	b005      	add	sp, #20
    a00c:	e8bd 8ff0 	ldmia.w	sp!, {r4, r5, r6, r7, r8, r9, sl, fp, pc}
    a010:	b922      	cbnz	r2, a01c <__divdi3+0xe0>
    a012:	4611      	mov	r1, r2
    a014:	2001      	movs	r0, #1
    a016:	f7ff f997 	bl	9348 <__aeabi_uidiv>
    a01a:	4604      	mov	r4, r0
    a01c:	fab4 f884 	clz	r8, r4
    a020:	f1b8 0f00 	cmp.w	r8, #0
    a024:	d15e      	bne.n	a0e4 <__divdi3+0x1a8>
    a026:	ebc4 0809 	rsb	r8, r4, r9
    a02a:	0c27      	lsrs	r7, r4, #16
    a02c:	fa1f f984 	uxth.w	r9, r4
    a030:	2101      	movs	r1, #1
    a032:	9102      	str	r1, [sp, #8]
    a034:	4639      	mov	r1, r7
    a036:	4640      	mov	r0, r8
    a038:	f7ff f986 	bl	9348 <__aeabi_uidiv>
    a03c:	4639      	mov	r1, r7
    a03e:	4682      	mov	sl, r0
    a040:	4640      	mov	r0, r8
    a042:	f7ff faaf 	bl	95a4 <__aeabi_uidivmod>
    a046:	ea4f 4815 	mov.w	r8, r5, lsr #16
    a04a:	fb09 f30a 	mul.w	r3, r9, sl
    a04e:	ea48 4b01 	orr.w	fp, r8, r1, lsl #16
    a052:	455b      	cmp	r3, fp
    a054:	d909      	bls.n	a06a <__divdi3+0x12e>
    a056:	eb1b 0b04 	adds.w	fp, fp, r4
    a05a:	f10a 3aff 	add.w	sl, sl, #4294967295
    a05e:	d204      	bcs.n	a06a <__divdi3+0x12e>
    a060:	455b      	cmp	r3, fp
    a062:	bf84      	itt	hi
    a064:	f10a 3aff 	addhi.w	sl, sl, #4294967295
    a068:	44a3      	addhi	fp, r4
    a06a:	ebc3 0b0b 	rsb	fp, r3, fp
    a06e:	4639      	mov	r1, r7
    a070:	4658      	mov	r0, fp
    a072:	b2ad      	uxth	r5, r5
    a074:	f7ff f968 	bl	9348 <__aeabi_uidiv>
    a078:	4639      	mov	r1, r7
    a07a:	4680      	mov	r8, r0
    a07c:	4658      	mov	r0, fp
    a07e:	f7ff fa91 	bl	95a4 <__aeabi_uidivmod>
    a082:	fb09 f908 	mul.w	r9, r9, r8
    a086:	ea45 4501 	orr.w	r5, r5, r1, lsl #16
    a08a:	45a9      	cmp	r9, r5
    a08c:	d907      	bls.n	a09e <__divdi3+0x162>
    a08e:	192d      	adds	r5, r5, r4
    a090:	f108 38ff 	add.w	r8, r8, #4294967295
    a094:	d203      	bcs.n	a09e <__divdi3+0x162>
    a096:	45a9      	cmp	r9, r5
    a098:	bf88      	it	hi
    a09a:	f108 38ff 	addhi.w	r8, r8, #4294967295
    a09e:	ea48 480a 	orr.w	r8, r8, sl, lsl #16
    a0a2:	9f02      	ldr	r7, [sp, #8]
    a0a4:	e7a9      	b.n	9ffa <__divdi3+0xbe>
    a0a6:	fab3 f783 	clz	r7, r3
    a0aa:	2f00      	cmp	r7, #0
    a0ac:	d168      	bne.n	a180 <__divdi3+0x244>
    a0ae:	428b      	cmp	r3, r1
    a0b0:	bf2c      	ite	cs
    a0b2:	f04f 0900 	movcs.w	r9, #0
    a0b6:	f04f 0901 	movcc.w	r9, #1
    a0ba:	4282      	cmp	r2, r0
    a0bc:	bf8c      	ite	hi
    a0be:	464c      	movhi	r4, r9
    a0c0:	f049 0401 	orrls.w	r4, r9, #1
    a0c4:	2c00      	cmp	r4, #0
    a0c6:	d096      	beq.n	9ff6 <__divdi3+0xba>
    a0c8:	f04f 0801 	mov.w	r8, #1
    a0cc:	e795      	b.n	9ffa <__divdi3+0xbe>
    a0ce:	4252      	negs	r2, r2
    a0d0:	eb63 0343 	sbc.w	r3, r3, r3, lsl #1
    a0d4:	43f6      	mvns	r6, r6
    a0d6:	e73b      	b.n	9f50 <__divdi3+0x14>
    a0d8:	4240      	negs	r0, r0
    a0da:	eb61 0141 	sbc.w	r1, r1, r1, lsl #1
    a0de:	f04f 36ff 	mov.w	r6, #4294967295
    a0e2:	e732      	b.n	9f4a <__divdi3+0xe>
    a0e4:	fa04 f408 	lsl.w	r4, r4, r8
    a0e8:	f1c8 0720 	rsb	r7, r8, #32
    a0ec:	fa35 f307 	lsrs.w	r3, r5, r7
    a0f0:	fa29 fa07 	lsr.w	sl, r9, r7
    a0f4:	0c27      	lsrs	r7, r4, #16
    a0f6:	fa09 fb08 	lsl.w	fp, r9, r8
    a0fa:	4639      	mov	r1, r7
    a0fc:	4650      	mov	r0, sl
    a0fe:	ea43 020b 	orr.w	r2, r3, fp
    a102:	9202      	str	r2, [sp, #8]
    a104:	f7ff f920 	bl	9348 <__aeabi_uidiv>
    a108:	4639      	mov	r1, r7
    a10a:	fa1f f984 	uxth.w	r9, r4
    a10e:	4683      	mov	fp, r0
    a110:	4650      	mov	r0, sl
    a112:	f7ff fa47 	bl	95a4 <__aeabi_uidivmod>
    a116:	9802      	ldr	r0, [sp, #8]
    a118:	fb09 f20b 	mul.w	r2, r9, fp
    a11c:	0c03      	lsrs	r3, r0, #16
    a11e:	ea43 4301 	orr.w	r3, r3, r1, lsl #16
    a122:	429a      	cmp	r2, r3
    a124:	d904      	bls.n	a130 <__divdi3+0x1f4>
    a126:	191b      	adds	r3, r3, r4
    a128:	f10b 3bff 	add.w	fp, fp, #4294967295
    a12c:	f0c0 80b1 	bcc.w	a292 <__divdi3+0x356>
    a130:	1a9b      	subs	r3, r3, r2
    a132:	4639      	mov	r1, r7
    a134:	4618      	mov	r0, r3
    a136:	9301      	str	r3, [sp, #4]
    a138:	f7ff f906 	bl	9348 <__aeabi_uidiv>
    a13c:	9901      	ldr	r1, [sp, #4]
    a13e:	4682      	mov	sl, r0
    a140:	4608      	mov	r0, r1
    a142:	4639      	mov	r1, r7
    a144:	f7ff fa2e 	bl	95a4 <__aeabi_uidivmod>
    a148:	f8dd c008 	ldr.w	ip, [sp, #8]
    a14c:	fb09 f30a 	mul.w	r3, r9, sl
    a150:	fa1f f08c 	uxth.w	r0, ip
    a154:	ea40 4201 	orr.w	r2, r0, r1, lsl #16
    a158:	4293      	cmp	r3, r2
    a15a:	d908      	bls.n	a16e <__divdi3+0x232>
    a15c:	1912      	adds	r2, r2, r4
    a15e:	f10a 3aff 	add.w	sl, sl, #4294967295
    a162:	d204      	bcs.n	a16e <__divdi3+0x232>
    a164:	4293      	cmp	r3, r2
    a166:	bf84      	itt	hi
    a168:	f10a 3aff 	addhi.w	sl, sl, #4294967295
    a16c:	1912      	addhi	r2, r2, r4
    a16e:	fa05 f508 	lsl.w	r5, r5, r8
    a172:	ea4a 4e0b 	orr.w	lr, sl, fp, lsl #16
    a176:	ebc3 0802 	rsb	r8, r3, r2
    a17a:	f8cd e008 	str.w	lr, [sp, #8]
    a17e:	e759      	b.n	a034 <__divdi3+0xf8>
    a180:	f1c7 0020 	rsb	r0, r7, #32
    a184:	fa03 fa07 	lsl.w	sl, r3, r7
    a188:	40c2      	lsrs	r2, r0
    a18a:	fa35 f300 	lsrs.w	r3, r5, r0
    a18e:	ea42 0b0a 	orr.w	fp, r2, sl
    a192:	fa21 f800 	lsr.w	r8, r1, r0
    a196:	fa01 f907 	lsl.w	r9, r1, r7
    a19a:	4640      	mov	r0, r8
    a19c:	ea4f 4a1b 	mov.w	sl, fp, lsr #16
    a1a0:	ea43 0109 	orr.w	r1, r3, r9
    a1a4:	9102      	str	r1, [sp, #8]
    a1a6:	4651      	mov	r1, sl
    a1a8:	fa1f f28b 	uxth.w	r2, fp
    a1ac:	9203      	str	r2, [sp, #12]
    a1ae:	f7ff f8cb 	bl	9348 <__aeabi_uidiv>
    a1b2:	4651      	mov	r1, sl
    a1b4:	4681      	mov	r9, r0
    a1b6:	4640      	mov	r0, r8
    a1b8:	f7ff f9f4 	bl	95a4 <__aeabi_uidivmod>
    a1bc:	9b03      	ldr	r3, [sp, #12]
    a1be:	f8dd c008 	ldr.w	ip, [sp, #8]
    a1c2:	fb03 f209 	mul.w	r2, r3, r9
    a1c6:	ea4f 401c 	mov.w	r0, ip, lsr #16
    a1ca:	fa14 f307 	lsls.w	r3, r4, r7
    a1ce:	ea40 4401 	orr.w	r4, r0, r1, lsl #16
    a1d2:	42a2      	cmp	r2, r4
    a1d4:	d904      	bls.n	a1e0 <__divdi3+0x2a4>
    a1d6:	eb14 040b 	adds.w	r4, r4, fp
    a1da:	f109 39ff 	add.w	r9, r9, #4294967295
    a1de:	d352      	bcc.n	a286 <__divdi3+0x34a>
    a1e0:	1aa4      	subs	r4, r4, r2
    a1e2:	4651      	mov	r1, sl
    a1e4:	4620      	mov	r0, r4
    a1e6:	9301      	str	r3, [sp, #4]
    a1e8:	f7ff f8ae 	bl	9348 <__aeabi_uidiv>
    a1ec:	4651      	mov	r1, sl
    a1ee:	4680      	mov	r8, r0
    a1f0:	4620      	mov	r0, r4
    a1f2:	f7ff f9d7 	bl	95a4 <__aeabi_uidivmod>
    a1f6:	9803      	ldr	r0, [sp, #12]
    a1f8:	f8dd c008 	ldr.w	ip, [sp, #8]
    a1fc:	fb00 f208 	mul.w	r2, r0, r8
    a200:	fa1f f38c 	uxth.w	r3, ip
    a204:	ea43 4001 	orr.w	r0, r3, r1, lsl #16
    a208:	9b01      	ldr	r3, [sp, #4]
    a20a:	4282      	cmp	r2, r0
    a20c:	d904      	bls.n	a218 <__divdi3+0x2dc>
    a20e:	eb10 000b 	adds.w	r0, r0, fp
    a212:	f108 38ff 	add.w	r8, r8, #4294967295
    a216:	d330      	bcc.n	a27a <__divdi3+0x33e>
    a218:	ea48 4809 	orr.w	r8, r8, r9, lsl #16
    a21c:	fa1f fc83 	uxth.w	ip, r3
    a220:	0c1b      	lsrs	r3, r3, #16
    a222:	1a80      	subs	r0, r0, r2
    a224:	fa1f fe88 	uxth.w	lr, r8
    a228:	ea4f 4a18 	mov.w	sl, r8, lsr #16
    a22c:	fb0c f90e 	mul.w	r9, ip, lr
    a230:	fb0c fc0a 	mul.w	ip, ip, sl
    a234:	fb03 c10e 	mla	r1, r3, lr, ip
    a238:	fb03 f20a 	mul.w	r2, r3, sl
    a23c:	eb01 4119 	add.w	r1, r1, r9, lsr #16
    a240:	458c      	cmp	ip, r1
    a242:	bf88      	it	hi
    a244:	f502 3280 	addhi.w	r2, r2, #65536	; 0x10000
    a248:	eb02 4e11 	add.w	lr, r2, r1, lsr #16
    a24c:	4570      	cmp	r0, lr
    a24e:	d310      	bcc.n	a272 <__divdi3+0x336>
    a250:	fa1f f989 	uxth.w	r9, r9
    a254:	fa05 f707 	lsl.w	r7, r5, r7
    a258:	eb09 4001 	add.w	r0, r9, r1, lsl #16
    a25c:	bf14      	ite	ne
    a25e:	2200      	movne	r2, #0
    a260:	2201      	moveq	r2, #1
    a262:	4287      	cmp	r7, r0
    a264:	bf2c      	ite	cs
    a266:	2700      	movcs	r7, #0
    a268:	f002 0701 	andcc.w	r7, r2, #1
    a26c:	2f00      	cmp	r7, #0
    a26e:	f43f aec4 	beq.w	9ffa <__divdi3+0xbe>
    a272:	f108 38ff 	add.w	r8, r8, #4294967295
    a276:	2700      	movs	r7, #0
    a278:	e6bf      	b.n	9ffa <__divdi3+0xbe>
    a27a:	4282      	cmp	r2, r0
    a27c:	bf84      	itt	hi
    a27e:	4458      	addhi	r0, fp
    a280:	f108 38ff 	addhi.w	r8, r8, #4294967295
    a284:	e7c8      	b.n	a218 <__divdi3+0x2dc>
    a286:	42a2      	cmp	r2, r4
    a288:	bf84      	itt	hi
    a28a:	f109 39ff 	addhi.w	r9, r9, #4294967295
    a28e:	445c      	addhi	r4, fp
    a290:	e7a6      	b.n	a1e0 <__divdi3+0x2a4>
    a292:	429a      	cmp	r2, r3
    a294:	bf84      	itt	hi
    a296:	f10b 3bff 	addhi.w	fp, fp, #4294967295
    a29a:	191b      	addhi	r3, r3, r4
    a29c:	e748      	b.n	a130 <__divdi3+0x1f4>
    a29e:	bf00      	nop

0000a2a0 <__udivdi3>:
    a2a0:	e92d 4ff0 	stmdb	sp!, {r4, r5, r6, r7, r8, r9, sl, fp, lr}
    a2a4:	460c      	mov	r4, r1
    a2a6:	b083      	sub	sp, #12
    a2a8:	4680      	mov	r8, r0
    a2aa:	4616      	mov	r6, r2
    a2ac:	4689      	mov	r9, r1
    a2ae:	461f      	mov	r7, r3
    a2b0:	4615      	mov	r5, r2
    a2b2:	468a      	mov	sl, r1
    a2b4:	2b00      	cmp	r3, #0
    a2b6:	d14b      	bne.n	a350 <__udivdi3+0xb0>
    a2b8:	428a      	cmp	r2, r1
    a2ba:	d95c      	bls.n	a376 <__udivdi3+0xd6>
    a2bc:	fab2 f382 	clz	r3, r2
    a2c0:	b15b      	cbz	r3, a2da <__udivdi3+0x3a>
    a2c2:	f1c3 0020 	rsb	r0, r3, #32
    a2c6:	fa01 fa03 	lsl.w	sl, r1, r3
    a2ca:	fa28 f200 	lsr.w	r2, r8, r0
    a2ce:	fa16 f503 	lsls.w	r5, r6, r3
    a2d2:	fa08 f803 	lsl.w	r8, r8, r3
    a2d6:	ea42 0a0a 	orr.w	sl, r2, sl
    a2da:	0c2e      	lsrs	r6, r5, #16
    a2dc:	4650      	mov	r0, sl
    a2de:	4631      	mov	r1, r6
    a2e0:	b2af      	uxth	r7, r5
    a2e2:	f7ff f831 	bl	9348 <__aeabi_uidiv>
    a2e6:	4631      	mov	r1, r6
    a2e8:	ea4f 4418 	mov.w	r4, r8, lsr #16
    a2ec:	4681      	mov	r9, r0
    a2ee:	4650      	mov	r0, sl
    a2f0:	f7ff f958 	bl	95a4 <__aeabi_uidivmod>
    a2f4:	fb07 f309 	mul.w	r3, r7, r9
    a2f8:	ea44 4a01 	orr.w	sl, r4, r1, lsl #16
    a2fc:	4553      	cmp	r3, sl
    a2fe:	d909      	bls.n	a314 <__udivdi3+0x74>
    a300:	eb1a 0a05 	adds.w	sl, sl, r5
    a304:	f109 39ff 	add.w	r9, r9, #4294967295
    a308:	d204      	bcs.n	a314 <__udivdi3+0x74>
    a30a:	4553      	cmp	r3, sl
    a30c:	bf84      	itt	hi
    a30e:	f109 39ff 	addhi.w	r9, r9, #4294967295
    a312:	44aa      	addhi	sl, r5
    a314:	ebc3 0a0a 	rsb	sl, r3, sl
    a318:	4631      	mov	r1, r6
    a31a:	4650      	mov	r0, sl
    a31c:	fa1f f888 	uxth.w	r8, r8
    a320:	f7ff f812 	bl	9348 <__aeabi_uidiv>
    a324:	4631      	mov	r1, r6
    a326:	4604      	mov	r4, r0
    a328:	4650      	mov	r0, sl
    a32a:	f7ff f93b 	bl	95a4 <__aeabi_uidivmod>
    a32e:	fb07 f704 	mul.w	r7, r7, r4
    a332:	ea48 4801 	orr.w	r8, r8, r1, lsl #16
    a336:	4547      	cmp	r7, r8
    a338:	d906      	bls.n	a348 <__udivdi3+0xa8>
    a33a:	3c01      	subs	r4, #1
    a33c:	eb18 0805 	adds.w	r8, r8, r5
    a340:	d202      	bcs.n	a348 <__udivdi3+0xa8>
    a342:	4547      	cmp	r7, r8
    a344:	bf88      	it	hi
    a346:	3c01      	subhi	r4, #1
    a348:	ea44 4409 	orr.w	r4, r4, r9, lsl #16
    a34c:	2600      	movs	r6, #0
    a34e:	e05c      	b.n	a40a <__udivdi3+0x16a>
    a350:	428b      	cmp	r3, r1
    a352:	d858      	bhi.n	a406 <__udivdi3+0x166>
    a354:	fab3 f683 	clz	r6, r3
    a358:	2e00      	cmp	r6, #0
    a35a:	d15b      	bne.n	a414 <__udivdi3+0x174>
    a35c:	428b      	cmp	r3, r1
    a35e:	bf2c      	ite	cs
    a360:	2200      	movcs	r2, #0
    a362:	2201      	movcc	r2, #1
    a364:	4285      	cmp	r5, r0
    a366:	bf8c      	ite	hi
    a368:	4615      	movhi	r5, r2
    a36a:	f042 0501 	orrls.w	r5, r2, #1
    a36e:	2d00      	cmp	r5, #0
    a370:	d049      	beq.n	a406 <__udivdi3+0x166>
    a372:	2401      	movs	r4, #1
    a374:	e049      	b.n	a40a <__udivdi3+0x16a>
    a376:	b922      	cbnz	r2, a382 <__udivdi3+0xe2>
    a378:	4611      	mov	r1, r2
    a37a:	2001      	movs	r0, #1
    a37c:	f7fe ffe4 	bl	9348 <__aeabi_uidiv>
    a380:	4605      	mov	r5, r0
    a382:	fab5 f685 	clz	r6, r5
    a386:	2e00      	cmp	r6, #0
    a388:	f040 80ba 	bne.w	a500 <__udivdi3+0x260>
    a38c:	1b64      	subs	r4, r4, r5
    a38e:	0c2f      	lsrs	r7, r5, #16
    a390:	fa1f fa85 	uxth.w	sl, r5
    a394:	2601      	movs	r6, #1
    a396:	4639      	mov	r1, r7
    a398:	4620      	mov	r0, r4
    a39a:	f7fe ffd5 	bl	9348 <__aeabi_uidiv>
    a39e:	4639      	mov	r1, r7
    a3a0:	ea4f 4b18 	mov.w	fp, r8, lsr #16
    a3a4:	4681      	mov	r9, r0
    a3a6:	4620      	mov	r0, r4
    a3a8:	f7ff f8fc 	bl	95a4 <__aeabi_uidivmod>
    a3ac:	fb0a f309 	mul.w	r3, sl, r9
    a3b0:	ea4b 4b01 	orr.w	fp, fp, r1, lsl #16
    a3b4:	455b      	cmp	r3, fp
    a3b6:	d909      	bls.n	a3cc <__udivdi3+0x12c>
    a3b8:	eb1b 0b05 	adds.w	fp, fp, r5
    a3bc:	f109 39ff 	add.w	r9, r9, #4294967295
    a3c0:	d204      	bcs.n	a3cc <__udivdi3+0x12c>
    a3c2:	455b      	cmp	r3, fp
    a3c4:	bf84      	itt	hi
    a3c6:	f109 39ff 	addhi.w	r9, r9, #4294967295
    a3ca:	44ab      	addhi	fp, r5
    a3cc:	ebc3 0b0b 	rsb	fp, r3, fp
    a3d0:	4639      	mov	r1, r7
    a3d2:	4658      	mov	r0, fp
    a3d4:	fa1f f888 	uxth.w	r8, r8
    a3d8:	f7fe ffb6 	bl	9348 <__aeabi_uidiv>
    a3dc:	4639      	mov	r1, r7
    a3de:	4604      	mov	r4, r0
    a3e0:	4658      	mov	r0, fp
    a3e2:	f7ff f8df 	bl	95a4 <__aeabi_uidivmod>
    a3e6:	fb0a fa04 	mul.w	sl, sl, r4
    a3ea:	ea48 4801 	orr.w	r8, r8, r1, lsl #16
    a3ee:	45c2      	cmp	sl, r8
    a3f0:	d906      	bls.n	a400 <__udivdi3+0x160>
    a3f2:	3c01      	subs	r4, #1
    a3f4:	eb18 0805 	adds.w	r8, r8, r5
    a3f8:	d202      	bcs.n	a400 <__udivdi3+0x160>
    a3fa:	45c2      	cmp	sl, r8
    a3fc:	bf88      	it	hi
    a3fe:	3c01      	subhi	r4, #1
    a400:	ea44 4409 	orr.w	r4, r4, r9, lsl #16
    a404:	e001      	b.n	a40a <__udivdi3+0x16a>
    a406:	2600      	movs	r6, #0
    a408:	4634      	mov	r4, r6
    a40a:	4631      	mov	r1, r6
    a40c:	4620      	mov	r0, r4
    a40e:	b003      	add	sp, #12
    a410:	e8bd 8ff0 	ldmia.w	sp!, {r4, r5, r6, r7, r8, r9, sl, fp, pc}
    a414:	f1c6 0020 	rsb	r0, r6, #32
    a418:	40b3      	lsls	r3, r6
    a41a:	fa32 f700 	lsrs.w	r7, r2, r0
    a41e:	fa21 fb00 	lsr.w	fp, r1, r0
    a422:	431f      	orrs	r7, r3
    a424:	fa14 f206 	lsls.w	r2, r4, r6
    a428:	fa28 f100 	lsr.w	r1, r8, r0
    a42c:	4658      	mov	r0, fp
    a42e:	ea4f 4a17 	mov.w	sl, r7, lsr #16
    a432:	4311      	orrs	r1, r2
    a434:	9100      	str	r1, [sp, #0]
    a436:	4651      	mov	r1, sl
    a438:	b2bb      	uxth	r3, r7
    a43a:	9301      	str	r3, [sp, #4]
    a43c:	f7fe ff84 	bl	9348 <__aeabi_uidiv>
    a440:	4651      	mov	r1, sl
    a442:	40b5      	lsls	r5, r6
    a444:	4681      	mov	r9, r0
    a446:	4658      	mov	r0, fp
    a448:	f7ff f8ac 	bl	95a4 <__aeabi_uidivmod>
    a44c:	9c01      	ldr	r4, [sp, #4]
    a44e:	9800      	ldr	r0, [sp, #0]
    a450:	fb04 f309 	mul.w	r3, r4, r9
    a454:	ea4f 4c10 	mov.w	ip, r0, lsr #16
    a458:	ea4c 4b01 	orr.w	fp, ip, r1, lsl #16
    a45c:	455b      	cmp	r3, fp
    a45e:	d905      	bls.n	a46c <__udivdi3+0x1cc>
    a460:	eb1b 0b07 	adds.w	fp, fp, r7
    a464:	f109 39ff 	add.w	r9, r9, #4294967295
    a468:	f0c0 808e 	bcc.w	a588 <__udivdi3+0x2e8>
    a46c:	ebc3 0b0b 	rsb	fp, r3, fp
    a470:	4651      	mov	r1, sl
    a472:	4658      	mov	r0, fp
    a474:	f7fe ff68 	bl	9348 <__aeabi_uidiv>
    a478:	4651      	mov	r1, sl
    a47a:	4604      	mov	r4, r0
    a47c:	4658      	mov	r0, fp
    a47e:	f7ff f891 	bl	95a4 <__aeabi_uidivmod>
    a482:	9801      	ldr	r0, [sp, #4]
    a484:	9a00      	ldr	r2, [sp, #0]
    a486:	fb00 f304 	mul.w	r3, r0, r4
    a48a:	fa1f fc82 	uxth.w	ip, r2
    a48e:	ea4c 4201 	orr.w	r2, ip, r1, lsl #16
    a492:	4293      	cmp	r3, r2
    a494:	d906      	bls.n	a4a4 <__udivdi3+0x204>
    a496:	3c01      	subs	r4, #1
    a498:	19d2      	adds	r2, r2, r7
    a49a:	d203      	bcs.n	a4a4 <__udivdi3+0x204>
    a49c:	4293      	cmp	r3, r2
    a49e:	d901      	bls.n	a4a4 <__udivdi3+0x204>
    a4a0:	19d2      	adds	r2, r2, r7
    a4a2:	3c01      	subs	r4, #1
    a4a4:	ea44 4409 	orr.w	r4, r4, r9, lsl #16
    a4a8:	b2a8      	uxth	r0, r5
    a4aa:	1ad2      	subs	r2, r2, r3
    a4ac:	0c2d      	lsrs	r5, r5, #16
    a4ae:	fa1f fc84 	uxth.w	ip, r4
    a4b2:	0c23      	lsrs	r3, r4, #16
    a4b4:	fb00 f70c 	mul.w	r7, r0, ip
    a4b8:	fb00 fe03 	mul.w	lr, r0, r3
    a4bc:	fb05 e10c 	mla	r1, r5, ip, lr
    a4c0:	fb05 f503 	mul.w	r5, r5, r3
    a4c4:	eb01 4117 	add.w	r1, r1, r7, lsr #16
    a4c8:	458e      	cmp	lr, r1
    a4ca:	bf88      	it	hi
    a4cc:	f505 3580 	addhi.w	r5, r5, #65536	; 0x10000
    a4d0:	eb05 4511 	add.w	r5, r5, r1, lsr #16
    a4d4:	42aa      	cmp	r2, r5
    a4d6:	d310      	bcc.n	a4fa <__udivdi3+0x25a>
    a4d8:	b2bf      	uxth	r7, r7
    a4da:	fa08 f606 	lsl.w	r6, r8, r6
    a4de:	eb07 4201 	add.w	r2, r7, r1, lsl #16
    a4e2:	bf14      	ite	ne
    a4e4:	f04f 0e00 	movne.w	lr, #0
    a4e8:	f04f 0e01 	moveq.w	lr, #1
    a4ec:	4296      	cmp	r6, r2
    a4ee:	bf2c      	ite	cs
    a4f0:	2600      	movcs	r6, #0
    a4f2:	f00e 0601 	andcc.w	r6, lr, #1
    a4f6:	2e00      	cmp	r6, #0
    a4f8:	d087      	beq.n	a40a <__udivdi3+0x16a>
    a4fa:	3c01      	subs	r4, #1
    a4fc:	2600      	movs	r6, #0
    a4fe:	e784      	b.n	a40a <__udivdi3+0x16a>
    a500:	40b5      	lsls	r5, r6
    a502:	f1c6 0120 	rsb	r1, r6, #32
    a506:	fa24 f901 	lsr.w	r9, r4, r1
    a50a:	fa28 f201 	lsr.w	r2, r8, r1
    a50e:	0c2f      	lsrs	r7, r5, #16
    a510:	40b4      	lsls	r4, r6
    a512:	4639      	mov	r1, r7
    a514:	4648      	mov	r0, r9
    a516:	4322      	orrs	r2, r4
    a518:	9200      	str	r2, [sp, #0]
    a51a:	f7fe ff15 	bl	9348 <__aeabi_uidiv>
    a51e:	4639      	mov	r1, r7
    a520:	fa1f fa85 	uxth.w	sl, r5
    a524:	4683      	mov	fp, r0
    a526:	4648      	mov	r0, r9
    a528:	f7ff f83c 	bl	95a4 <__aeabi_uidivmod>
    a52c:	9b00      	ldr	r3, [sp, #0]
    a52e:	0c1a      	lsrs	r2, r3, #16
    a530:	fb0a f30b 	mul.w	r3, sl, fp
    a534:	ea42 4401 	orr.w	r4, r2, r1, lsl #16
    a538:	42a3      	cmp	r3, r4
    a53a:	d903      	bls.n	a544 <__udivdi3+0x2a4>
    a53c:	1964      	adds	r4, r4, r5
    a53e:	f10b 3bff 	add.w	fp, fp, #4294967295
    a542:	d327      	bcc.n	a594 <__udivdi3+0x2f4>
    a544:	1ae4      	subs	r4, r4, r3
    a546:	4639      	mov	r1, r7
    a548:	4620      	mov	r0, r4
    a54a:	f7fe fefd 	bl	9348 <__aeabi_uidiv>
    a54e:	4639      	mov	r1, r7
    a550:	4681      	mov	r9, r0
    a552:	4620      	mov	r0, r4
    a554:	f7ff f826 	bl	95a4 <__aeabi_uidivmod>
    a558:	9800      	ldr	r0, [sp, #0]
    a55a:	fb0a f309 	mul.w	r3, sl, r9
    a55e:	fa1f fc80 	uxth.w	ip, r0
    a562:	ea4c 4401 	orr.w	r4, ip, r1, lsl #16
    a566:	42a3      	cmp	r3, r4
    a568:	d908      	bls.n	a57c <__udivdi3+0x2dc>
    a56a:	1964      	adds	r4, r4, r5
    a56c:	f109 39ff 	add.w	r9, r9, #4294967295
    a570:	d204      	bcs.n	a57c <__udivdi3+0x2dc>
    a572:	42a3      	cmp	r3, r4
    a574:	bf84      	itt	hi
    a576:	f109 39ff 	addhi.w	r9, r9, #4294967295
    a57a:	1964      	addhi	r4, r4, r5
    a57c:	fa08 f806 	lsl.w	r8, r8, r6
    a580:	1ae4      	subs	r4, r4, r3
    a582:	ea49 460b 	orr.w	r6, r9, fp, lsl #16
    a586:	e706      	b.n	a396 <__udivdi3+0xf6>
    a588:	455b      	cmp	r3, fp
    a58a:	bf84      	itt	hi
    a58c:	f109 39ff 	addhi.w	r9, r9, #4294967295
    a590:	44bb      	addhi	fp, r7
    a592:	e76b      	b.n	a46c <__udivdi3+0x1cc>
    a594:	42a3      	cmp	r3, r4
    a596:	bf84      	itt	hi
    a598:	f10b 3bff 	addhi.w	fp, fp, #4294967295
    a59c:	1964      	addhi	r4, r4, r5
    a59e:	e7d1      	b.n	a544 <__udivdi3+0x2a4>

0000a5a0 <g_greeting_msg>:
    a5a0:	0a0d 0a0d 2a2a 2a2a 2a2a 2a2a 2a2a 2a2a     ....************
    a5b0:	2a2a 2a2a 2a2a 2a2a 2a2a 2a2a 2a2a 2a2a     ****************
    a5c0:	2a2a 2a2a 2a2a 2a2a 2a2a 2a2a 2a2a 2a2a     ****************
    a5d0:	2a2a 2a2a 2a2a 2a2a 2a2a 2a2a 2a2a 2a2a     ****************
    a5e0:	2a2a 2a2a 2a2a 2a2a 2a2a 0a0d 2a2a 2a2a     **********..****
    a5f0:	2a2a 2a2a 2a2a 2a2a 2a2a 2a2a 202a 6d53     ************* Sm
    a600:	7261 4674 7375 6f69 326e 4d20 5353 5320     artFusion2 MSS S
    a610:	4950 4620 616c 6873 6520 6178 706d 656c     PI Flash example
    a620:	2a20 2a2a 2a2a 2a2a 2a2a 2a2a 2a2a 2a2a      ***************
    a630:	2a2a 0a0d 2a2a 2a2a 2a2a 2a2a 2a2a 2a2a     **..************
    a640:	2a2a 2a2a 2a2a 2a2a 2a2a 2a2a 2a2a 2a2a     ****************
    a650:	2a2a 2a2a 2a2a 2a2a 2a2a 2a2a 2a2a 2a2a     ****************
    a660:	2a2a 2a2a 2a2a 2a2a 2a2a 2a2a 2a2a 2a2a     ****************
    a670:	2a2a 2a2a 2a2a 2a2a 2a2a 0a0d 6854 7369     **********..This
    a680:	6520 6178 706d 656c 7020 6f72 656a 7463      example project
    a690:	6420 6d65 6e6f 7473 6172 6574 2073 6874      demonstrates th
    a6a0:	2065 7375 2065 666f 7420 6568 5320 616d     e use of the Sma
    a6b0:	7472 7546 6973 6e6f 2032 534d 2053 5053     rtFusion2 MSS SP
    a6c0:	0d49 620a 6f6c 6b63 492e 2074 6572 6461     I..block.It read
    a6d0:	2073 6e61 2064 7277 7469 7365 7420 6568     s and writes the
    a6e0:	6320 6e6f 6574 746e 6f20 2066 6e61 6520      content of an e
    a6f0:	7478 7265 616e 206c 5053 2049 6c66 7361     xternal SPI flas
    a700:	2068 6564 6976 6563 0a0d 2d2d 2d2d 2d2d     h device..------
    a710:	2d2d 2d2d 2d2d 2d2d 2d2d 2d2d 2d2d 2d2d     ----------------
    a720:	2d2d 2d2d 2d2d 2d2d 2d2d 2d2d 2d2d 2d2d     ----------------
    a730:	2d2d 2d2d 2d2d 2d2d 2d2d 2d2d 2d2d 2d2d     ----------------
    a740:	2d2d 2d2d 2d2d 2d2d 2d2d 2d2d 2d2d 0d2d     ---------------.
    a750:	000a 0000                                   ....

0000a754 <gp_my_uart>:
    a754:	07d4 2000 3025 7832 0020 0000 6420 7461     ... %02x ... dat
    a764:	2061 666f 7520 622d 6f6f 2e74 6962 206e     a of u-boot.bin 
    a774:	7266 6d6f 5320 4950 4620 616c 6873 2820     from SPI Flash (
    a784:	6966 7372 2074 3231 2038 6f77 6472 2973     first 128 words)
    a794:	0a0d 0000 6420 7461 2061 666f 7520 622d     .... data of u-b
    a7a4:	6f6f 2e74 6962 206e 7266 6d6f 4420 5244     oot.bin from DDR
    a7b4:	2820 6966 7372 2074 3231 2038 6f77 6472      (first 128 word
    a7c4:	2973 0a0d 0000 0000 6f63 7970 735f 6970     s)......copy_spi
    a7d4:	695f 616d 6567 6420 6e6f 2065 0d0a 0020     _image done .. .
    a7e4:	0a0d 7250 7365 2073 6e61 2079 656b 2079     ..Press any key 
    a7f4:	6f74 6320 6e6f 6974 756e 2e65 2e2e 0000     to continue.....
    a804:	0a0d 6e45 6574 2072 6564 6973 6572 2064     ..Enter desired 
    a814:	6361 6974 6e6f 7420 206f 6570 6672 726f     action to perfor
    a824:	206d 6e69 7420 6568 6220 6c65 776f 6d20     m in the below m
    a834:	6e65 6974 6e6f 6465 7320 7165 6575 636e     entioned sequenc
    a844:	3a65 0d0a 0000 0000 2e31 6420 6d75 2070     e:......1. dump 
    a854:	6874 2065 6164 6174 6620 6f72 206d 5053     the data from SP
    a864:	2049 0d0a 0000 0000 2e32 6520 6578 7563     I ......2. execu
    a874:	6574 7320 6970 665f 616c 6873 625f 6f6f     te spi_flash_boo
    a884:	6c74 616f 6564 2072 0d0a 0000 2e33 6120     tloader ....3. a
    a894:	7475 6568 746e 6369 7461 6f69 206e 666f     uthentication of
    a8a4:	6620 7269 776d 7261 2065 0d0a 0000 0000      firmware ......
    a8b4:	2e34 7020 6f72 7267 6d61 696d 676e 6f20     4. programming o
    a8c4:	2066 6966 6d72 6177 6572 0a20 000d 0000     f firmware .....
    a8d4:	2e35 7620 7265 6669 2079 6874 2065 6966     5. verify the fi
    a8e4:	6d72 6177 6572 0d0a 0000 0000 2e36 5220     rmware......6. R
    a8f4:	5345 5445 0a20 000d 2e37 4920 4c44 2045     ESET ...7. IDLE 
    a904:	0d0a 0000 6e45 6574 2072 6176 696c 2064     ....Enter valid 
    a914:	6573 656c 7463 6f69 206e 315b 362d 3a5d     selection [1-6]:
    a924:	0a20 000d 0a0d 5720 6961 2074 6f66 2072      ..... Wait for 
    a934:	6f63 6d6d 6e61 2e64 2e2e 0000 0a0d 6e49     command.......In
    a944:	6176 696c 2064 6361 6974 6e6f 202e 5020     valid action.  P
    a954:	656c 7361 2065 7274 2079 6761 6961 2e6e     lease try again.
    a964:	2e2e 0000 7953 7473 6d65 6e49 7469 5220     ....SystemInit R
    a974:	2d65 6f64 656e 0a20 200d 0000 6f63 7970     e-done .. ..copy
    a984:	7420 6568 5320 4950 6420 7461 2061 6f74      the SPI data to
    a994:	4420 5244 6420 6e6f 0a65 200d 0000 0000      DDR done.. ....
    a9a4:	7274 6979 676e 7420 206f 6f62 746f 6e69     trying to bootin
    a9b4:	2067 6874 2065 2d75 6f62 746f 6220 2079     g the u-boot by 
    a9c4:	6572 616d 7070 6e69 2067 4444 2052 7073     remapping DDR sp
    a9d4:	6361 2065 6f74 3020 3078 3030 3030 3030     ace to 0x0000000
    a9e4:	2030 0d0a 0020 0000 0a0d 7845 7469 7320     0 .. .....Exit s
    a9f4:	6174 7574 2073 203d 0000 0000 0a20 200d     tatus = .... .. 
    aa04:	6e45 6574 6572 2064 6c46 7361 2a68 7246     Entered Flash*Fr
    aa14:	6565 657a 202c 4155 5452 6120 646e 4620     eeze, UART and F
    aa24:	616c 6873 6420 6972 6576 7372 6120 6572     lash drivers are
    aa34:	7220 2d65 6e69 7469 6169 696c 657a 2064      re-initialized 
    aa44:	0d0a 0020 0a0d 5720 6f72 676e 5320 4950     .. ... Wrong SPI
    aa54:	4620 616c 6873 6420 7665 6369 2065 4449      Flash device ID
    aa64:	0d20 000a 0a0d 4320 726f 6572 7463 5320      ..... Correct S
    aa74:	4950 4620 616c 6873 6420 7665 6369 2065     PI Flash device 
    aa84:	4449 2073 0a0d 0000 0a20 200d 7845 7469     IDs .... .. Exit
    aa94:	4620 616c 6873 462a 6572 7a65 2c65 5520      Flash*Freeze, U
    aaa4:	5241 2054 7264 7669 7265 6920 2073 6572     ART driver is re
    aab4:	692d 696e 6974 6c61 7a69 6465 0a20 200d     -initialized .. 
    aac4:	0000 0000 0a20 200d 6572 6461 6e69 2067     .... .. reading 
    aad4:	534d 4453 5244 465f 4341 3143 435f 2052     MSSDDR_FACC1_CR 
    aae4:	6572 6967 7473 7265 2e20 2e2e 0a20 200d     register ... .. 
    aaf4:	0000 0000 0a20 200d 6157 7469 6e69 2067     .... .. Waiting 
    ab04:	6f66 2072 6175 7472 6920 746e 7265 7572     for uart interru
    ab14:	7470 7420 206f 6f64 6d20 6e61 6175 206c     pt to do manual 
    ab24:	6f62 746f 2e2e 202e 0d0a 0020 0a20 200d     boot... .. . .. 
    ab34:	7028 656c 7361 2065 6177 7469 3120 2030     (please wait 10 
    ab44:	6573 7363 6920 206e 6163 6573 6f20 2066     secs in case of 
    ab54:	7561 6f74 622d 6f6f 2e74 2e2e 0d0a 0020     auto-boot..... .
    ab64:	002e 0000 0a20 200d 7561 6f74 6f62 746f     .... .. autoboot
    ab74:	6920 2073 6573 656c 7463 6465 0a20 200d      is selected .. 
    ab84:	0000 0000 0a20 200d 616d 756e 6c61 6220     .... .. manual b
    ab94:	6f6f 2074 7369 7320 6c65 6365 6574 2064     oot is selected 
    aba4:	0d0a 0020 6544 6973 6e67 7620 7265 6973     .. .Design versi
    abb4:	6e6f 2820 6e69 7473 6c61 206c 6e69 7420     on (install in t
    abc4:	6568 6620 6261 6972 2963 3a20 0020 0000     he fabric) : ...
    abd4:	6553 7672 6369 2065 6567 2074 6564 6973     Service get desi
    abe4:	6e67 7620 7265 6973 6e6f 6620 6961 656c     gn version faile
    abf4:	2e64 0a0d 0000 0000 7245 6f72 2072 202d     d.......Error - 
    ac04:	534d 2053 656d 6f6d 7972 6120 6363 7365     MSS memory acces
    ac14:	2073 7265 6f72 2072 0a0d 002e 6544 6973     s error ....Desi
    ac24:	6e67 7620 7265 6973 6e6f 2820 6e69 7473     gn version (inst
    ac34:	6c61 206c 6e69 7420 6568 5320 4950 4620     all in the SPI F
    ac44:	616c 6873 2029 203a 0000 0000 6556 7372     lash) : ....Vers
    ac54:	6f69 206e 616d 6374 2168 2021 6f4e 7020     ion match!! No p
    ac64:	6f72 7267 6d61 696d 676e 002e 0a20 200d     rogramming.. .. 
    ac74:	7541 6874 6e65 6974 6163 6574 2e2e 202e     Authenticate... 
    ac84:	0d0a 0020 0a20 200d 5349 2050 7541 6874     .. . .. ISP Auth
    ac94:	6e65 6974 6163 6974 6e6f 6320 6d6f 6c70     entication compl
    aca4:	7465 6465 7320 6375 6563 7373 7566 6c6c     eted successfull
    acb4:	2079 0d0a 0020 0000 0a20 200d 6f43 746e     y .. ... .. Cont
    acc4:	6e69 6975 676e 7720 7469 2068 5349 2050     inuing with ISP 
    acd4:	7250 676f 6172 6d6d 6e69 2e67 2e2e 0a20     Programming... .
    ace4:	200d 0000 0a20 200d 5349 2050 7270 676f     . .. .. ISP prog
    acf4:	6172 6d6d 6e69 2067 6f63 706d 656c 6574     ramming complete
    ad04:	2064 7573 6363 7365 6673 6c75 796c 0a20     d successfully .
    ad14:	200d 0000 0a20 200d 5349 2050 6576 6972     . .. .. ISP veri
    ad24:	7966 676e 6320 6d6f 6c70 7465 6465 7320     fyng completed s
    ad34:	6375 6563 7373 7566 6c6c 2079 0d0a 0020     uccessfully .. .
    ad44:	6544 6973 6e67 7620 7265 6973 6e6f 4e20     Design version N
    ad54:	7765 796c 6920 736e 6174 6c6c 6920 206e     ewly install in 
    ad64:	6874 2065 6166 7262 6369 3a20 0020 0000     the fabric : ...
    ad74:	0a20 200d 7277 7469 2065 726f 6769 6e69      .. write origin
    ad84:	6c61 7620 6c61 6575 6920 206e 534d 4453     al value in MSSD
    ad94:	5244 465f 4341 3143 435f 2052 2e2e 202e     DR_FACC1_CR ... 
    ada4:	0d0a 0020 0a20 200d 6572 6461 6e69 2067     .. . .. reading 
    adb4:	534d 4453 5244 465f 4341 3143 435f 2052     MSSDDR_FACC1_CR 
    adc4:	6572 6967 7473 7265 6120 6167 6e69 2e2e     register again..
    add4:	202e 0d0a 0020 0000 0a20 200d 5349 2050     . .. ... .. ISP 
    ade4:	6576 6972 7966 676e 6620 6961 656c 2064     verifyng failed 
    adf4:	6977 6874 6520 7272 726f 203a 0000 0000     with error: ....
    ae04:	0a20 200d 5349 2050 7250 676f 6172 6d6d      .. ISP Programm
    ae14:	6e69 2067 6166 6c69 6465 7720 7469 2068     ing failed with 
    ae24:	7265 6f72 3a72 0020 0a20 200d 5349 2050     error: . .. ISP 
    ae34:	7541 6874 6e65 6974 6163 6974 6e6f 6620     Authentication f
    ae44:	6961 656c 2064 6977 6874 6520 7272 726f     ailed with error
    ae54:	203a 0000 0a0d 6550 6672 726f 696d 676e     : ....Performing
    ae64:	6120 7475 6568 746e 6369 7461 6f69 2e6e      authentication.
    ae74:	2020 6c50 6165 6573 7720 6961 2e74 2e2e       Please wait...
    ae84:	0a0d 0000 0a0d 6550 6672 726f 696d 676e     ......Performing
    ae94:	7020 6f72 7267 6d61 696d 676e 202e 5020      programming.  P
    aea4:	656c 7361 2065 6177 7469 2e2e 0d2e 000a     lease wait......
    aeb4:	0a0d 6550 6672 726f 696d 676e 7620 7265     ..Performing ver
    aec4:	6669 6369 7461 6f69 2e6e 2020 6c50 6165     ification.  Plea
    aed4:	6573 7720 6961 2e74 2e2e 0a0d 0000 0000     se wait.........
    aee4:	0a20 200d 6572 6461 6e69 2067 534d 4453      .. reading MSSD
    aef4:	5244 465f 4341 3143 435f 2052 6572 6967     DR_FACC1_CR regi
    af04:	7473 7265 6120 6167 6e69 2e20 2e2e 0a20     ster again ... .
    af14:	200d 0000 0a0d 7245 6f72 3a72 4920 766e     . ....Error: Inv
    af24:	6c61 6469 6120 7463 6f69 2e6e 0020 0000     alid action. ...
    af34:	6946 6d72 6177 6572 6220 7469 7473 6572     Firmware bitstre
    af44:	6d61 2820 6966 7372 2074 3231 2038 6f77     am (first 128 wo
    af54:	6472 2973 0a0d 0000                         rds)....

0000af5c <g_m2s_mddr_addr>:
    af5c:	0800 4002                                   ...@

0000af60 <g_m2s_mddr_subsys_config>:
    af60:	0004 0000 1188 0290 0002 0000 0000 0000     ................
	...
    af78:	0000 0001 0000 0000 095a 0402 0000 0000     ........Z.......
	...
    afa0:	0000 040c 0000 0000 0000 0002 0000 0083     ................
	...
    afc0:	0003 0040 0000 0000 0000 0000 1016 0004     ..@.............
	...
    afe0:	0240 4081 0000 0000 0000 0000 0000 0000     @..@............
	...
    b010:	0040 0401 4010 0000 0000 0000 0000 0000     @....@..........
	...
    b030:	0040 0401 0401 0000 0000 0000 0000 0000     @...............
	...

0000b06c <C.83.5030>:
    b06c:	87aa 22ca 8bbe 3705 b18e 1ec7 20f3 74ad     ..."...7..... .t
    b07c:	1d6e 623b a78b 989b f759 e041 5482 382a     n.;b....Y.A..T*8
    b08c:	0255 5df2 55bf 6c29 543a 385e 7672 b70a     U..].U)l:T^8rv..
    b09c:	1736 4ade 2696 6f2c 9e5d bf98 9292 29dc     6..J.&,o]......)
    b0ac:	f4f8 bd1d 9a28 7c14 dae9 1331 f0b5 c0b8     ....(..|..1.....
    b0bc:	600a ceb1 7e1d 9d81 437a 7c1d ea90 5f0e     .`...~..zC.|..._
    b0cc:	0a20 200d 534d 5f53 5953 5f53 6c66 7361      .. MSS_SYS_flas
    b0dc:	5f68 7266 6565 657a 0a20 200d 0000 0000     h_freeze .. ....
    b0ec:	0a20 200d 7753 7469 6863 6465 6320 6f6c      .. Switched clo
    b0fc:	6b63 2e2e 202e 6572 6e69 7469 6169 696c     ck... reinitiali
    b10c:	657a 2064 6c46 7361 2068 6e61 2064 4155     zed Flash and UA
    b11c:	5452 6420 6972 6576 7372 0a20 200d 0000     RT drivers .. ..
    b12c:	0a0d 5720 6f72 676e 4920 2044 0a0d 0000     .. Wrong ID ....
    b13c:	0a0d 4320 726f 6572 7463 6420 7665 6369     .. Correct devic
    b14c:	2065 4449 2073 0a0d 0000 0000               e IDs ......

0000b158 <C.18.3460>:
    b158:	0100 0100 0202 0303 0043 0000               ........C...

0000b164 <blanks.3595>:
    b164:	2020 2020 2020 2020 2020 2020 2020 2020                     

0000b174 <zeroes.3596>:
    b174:	3030 3030 3030 3030 3030 3030 3030 3030     0000000000000000
    b184:	3130 3332 3534 3736 3938 4241 4443 4645     0123456789ABCDEF
    b194:	0000 0000 4e49 0046 6e69 0066 414e 004e     ....INF.inf.NAN.
    b1a4:	616e 006e 3130 3332 3534 3736 3938 6261     nan.0123456789ab
    b1b4:	6463 6665 0000 0000 6e28 6c75 296c 0000     cdef....(null)..
    b1c4:	0030 0000 6e49 6966 696e 7974 0000 0000     0...Infinity....
    b1d4:	614e 004e                                   NaN.

0000b1d8 <charset>:
    b1d8:	b20c 0000                                   ....

0000b1dc <lconv>:
    b1dc:	ab64 0000 b154 0000 b154 0000 b154 0000     d...T...T...T...
    b1ec:	b154 0000 b154 0000 b154 0000 b154 0000     T...T...T...T...
    b1fc:	b154 0000 b154 0000 ffff ffff ffff ffff     T...T...........
    b20c:	5349 2d4f 3838 3935 312d 0000               ISO-8859-1..

0000b218 <__mprec_tens>:
    b218:	0000 0000 0000 3ff0 0000 0000 0000 4024     .......?......$@
    b228:	0000 0000 0000 4059 0000 0000 4000 408f     ......Y@.....@.@
    b238:	0000 0000 8800 40c3 0000 0000 6a00 40f8     .......@.....j.@
    b248:	0000 0000 8480 412e 0000 0000 12d0 4163     .......A......cA
    b258:	0000 0000 d784 4197 0000 0000 cd65 41cd     .......A....e..A
    b268:	0000 2000 a05f 4202 0000 e800 4876 4237     ... _..B....vH7B
    b278:	0000 a200 1a94 426d 0000 e540 309c 42a2     ......mB..@..0.B
    b288:	0000 1e90 bcc4 42d6 0000 2634 6bf5 430c     .......B..4&.k.C
    b298:	8000 37e0 c379 4341 a000 85d8 3457 4376     ...7y.AC....W4vC
    b2a8:	c800 674e c16d 43ab 3d00 6091 58e4 43e1     ..Ngm..C.=.`.X.C
    b2b8:	8c40 78b5 af1d 4415 ef50 d6e2 1ae4 444b     @..x...DP.....KD
    b2c8:	d592 064d f0cf 4480 4af6 c7e1 2d02 44b5     ..M....D.J...-.D
    b2d8:	9db4 79d9 7843 44ea                         ...yCx.D

0000b2e0 <p05.2463>:
    b2e0:	0005 0000 0019 0000 007d 0000 0000 0000     ........}.......

0000b2f0 <__mprec_bigtens>:
    b2f0:	8000 37e0 c379 4341 6e17 b505 b8b5 4693     ...7y.AC.n.....F
    b300:	f9f5 e93f 4f03 4d38 1d32 f930 7748 5a82     ..?..O8M2.0.Hw.Z
    b310:	bf3c 7f73 4fdd 7515                         <.s..O.u

0000b318 <__mprec_tinytens>:
    b318:	89bc 97d8 d2b2 3c9c a733 d5a8 f623 3949     .......<3...#.I9
    b328:	a73d 44f4 0ffd 32a5 979d cf8c ba08 255b     =..D...2......[%
    b338:	6f43 64ac 0628 0ac8                         Co.d(...

0000b340 <_init>:
    b340:	b5f8      	push	{r3, r4, r5, r6, r7, lr}
    b342:	bf00      	nop
    b344:	bcf8      	pop	{r3, r4, r5, r6, r7}
    b346:	bc08      	pop	{r3}
    b348:	469e      	mov	lr, r3
    b34a:	4770      	bx	lr

0000b34c <_fini>:
    b34c:	b5f8      	push	{r3, r4, r5, r6, r7, lr}
    b34e:	bf00      	nop
    b350:	bcf8      	pop	{r3, r4, r5, r6, r7}
    b352:	bc08      	pop	{r3}
    b354:	469e      	mov	lr, r3
    b356:	4770      	bx	lr

0000b358 <__frame_dummy_init_array_entry>:
    b358:	0305 0000                                   ....

0000b35c <__do_global_dtors_aux_fini_array_entry>:
    b35c:	02f1 0000                                   ....
